TN:
SF:/home/nikola/Desktop/2024_Analysis_Mini-Student-Management-System/Mini-Student-Management-System/include/csv.h
FN:1035,1062,_ZN3Csv11csv_handler19write_and_terminateEc
FN:1065,1068,_ZN3Csv11csv_handler9terminateEv
FN:107,111,_ZN3Csv9multitype6assignEc
FN:1071,1074,_ZN3Csv11csv_handler9get_tableEv
FN:112,116,_ZN3Csv9multitype6assignEPKc
FN:122,135,_ZN3Csv9multitype6assignERKS0_
FN:136,140,_ZN3Csv9multitypeaSEi
FN:161,165,_ZN3Csv9multitypeaSERKS0_
FN:169,180,_ZN3Csv9multitype6appendERKS0_
FN:184,187,_ZNK3Csv9multitype4typeEv
FN:190,193,_ZNK3Csv9multitype7is_typeEPKc
FN:197,200,_ZNK3Csv9multitype10is_unknownEv
FN:203,227,_ZNK3Csv9multitype6to_intEv
FN:230,254,_ZNK3Csv9multitype7to_longEv
FN:257,276,_ZNK3Csv9multitype7to_charEv
FN:279,330,_ZNK3Csv9multitype6to_strEv
FN:333,376,_ZNK3Csv9multitype9to_doubleEv
FN:380,389,_ZNK3Csv9multitype5equalERKS0_
FN:39,43,_ZN3Csv11string_copyEPKcRPc
FN:393,408,_ZNK3Csv9multitype12strict_equalERKS0_
FN:423,431,_ZN3Csv4listINS_9multitypeEE12destroy_utilEPNS2_4iterE
FN:436,442,_ZN3Csv4listINS_9multitypeEEC2Ei
FN:436,442,_ZN3Csv4listIcEC2Ei
FN:436,442,_ZN3Csv4listIiEC2Ei
FN:444,450,_ZN3Csv4listINS_9multitypeEEC2ESt16initializer_listIS1_E
FN:453,461,_ZN3Csv4listINS_9multitypeEE9push_backERKS1_
FN:453,461,_ZN3Csv4listIcE9push_backERKc
FN:453,461,_ZN3Csv4listIiE9push_backERKi
FN:474,486,_ZN3Csv4listIcE8pop_backEv
FN:489,499,_ZN3Csv4listIcE9pop_frontEv
FN:515,518,_ZN3Csv4listINS_9multitypeEE7destroyEv
FN:521,524,_ZNK3Csv4listINS_9multitypeEE5emptyEv
FN:521,524,_ZNK3Csv4listIcE5emptyEv
FN:527,530,_ZNK3Csv4listINS_9multitypeEE4sizeEv
FN:527,530,_ZNK3Csv4listIcE4sizeEv
FN:533,541,_ZN3Csv4listINS_9multitypeEE2atEi
FN:533,541,_ZN3Csv4listIiE2atEi
FN:542,550,_ZNK3Csv4listINS_9multitypeEE2atEi
FN:553,565,_ZN3Csv4listINS_9multitypeEE9delete_atEi
FN:568,574,_ZNK3Csv4listINS_9multitypeEE4copyEv
FN:592,596,_ZN3Csv5tableC2Ev
FN:599,610,_ZN3Csv5table7add_keyERKNS_9multitypeE
FN:61,64,_ZN3Csv9multitypeC2Ev
FN:613,627,_ZN3Csv5table6rm_keyERKNS_9multitypeE
FN:630,636,_ZNK3Csv5table7get_keyERKNS_9multitypeE
FN:639,642,_ZNK3Csv5table7has_keyERKNS_9multitypeE
FN:645,648,_ZNK3Csv5table8get_keysEv
FN:65,68,_ZN3Csv9multitypeC2Ei
FN:651,688,_ZN3Csv5table8fix_keysENS_4listINS_9multitypeEEE
FN:691,699,_ZN3Csv5table7add_rowEv
FN:702,714,_ZN3Csv5table6rm_rowEi
FN:718,721,_ZNK3Csv5table8num_rowsEv
FN:724,732,_ZN3Csv5table7get_rowEi
FN:73,76,_ZN3Csv9multitypeC2Ec
FN:733,741,_ZNK3Csv5table7get_rowEi
FN:747,760,_ZN3Csv5table13get_row_whereERKNS_9multitypeES3_b
FN:77,80,_ZN3Csv9multitypeC2EPKc
FN:777,787,_ZN3Csv5table3getEiRKNS_9multitypeE
FN:788,798,_ZNK3Csv5table3getEiRKNS_9multitypeE
FN:804,818,_ZN3Csv5table9get_whereERKNS_9multitypeES3_S3_b
FN:819,833,_ZNK3Csv5table9get_whereERKNS_9multitypeES3_S3_b
FN:838,857,_ZN3Csv5table12rm_row_whereERKNS_9multitypeES3_b
FN:85,88,_ZN3Csv9multitypeC2ERKS0_
FN:865,888,_ZNK3Csv5table6filterEPFbNS_9multitypeENS_4listIS1_EES0_E
FN:902,917,_ZN3Csv11csv_handler13csv_read_charEv
FN:91,94,_ZN3Csv9multitype4initEv
FN:918,931,_ZN3Csv11csv_handler14csv_break_lineEv
FN:932,940,_ZN3Csv11csv_handler16csv_export_pcharEv
FN:945,950,_ZN3Csv11csv_handlerC2EPKc
FN:954,958,_ZN3Csv11csv_handler9init_readEv
FN:962,965,_ZN3Csv11csv_handler10init_writeEv
FN:97,101,_ZN3Csv9multitype6assignEi
FN:970,1030,_ZN3Csv11csv_handler18read_and_terminateEc
FNDA:56,_ZN3Csv11csv_handler19write_and_terminateEc
FNDA:636,_ZN3Csv11csv_handler9terminateEv
FNDA:904,_ZN3Csv9multitype6assignEc
FNDA:2430,_ZN3Csv11csv_handler9get_tableEv
FNDA:31963,_ZN3Csv9multitype6assignEPKc
FNDA:1568244,_ZN3Csv9multitype6assignERKS0_
FNDA:4,_ZN3Csv9multitypeaSEi
FNDA:758821,_ZN3Csv9multitypeaSERKS0_
FNDA:622,_ZN3Csv9multitype6appendERKS0_
FNDA:1671158,_ZNK3Csv9multitype4typeEv
FNDA:14888807,_ZNK3Csv9multitype7is_typeEPKc
FNDA:41307,_ZNK3Csv9multitype10is_unknownEv
FNDA:6785,_ZNK3Csv9multitype6to_intEv
FNDA:0,_ZNK3Csv9multitype7to_longEv
FNDA:0,_ZNK3Csv9multitype7to_charEv
FNDA:1638567,_ZNK3Csv9multitype6to_strEv
FNDA:0,_ZNK3Csv9multitype9to_doubleEv
FNDA:16050,_ZNK3Csv9multitype5equalERKS0_
FNDA:4111289,_ZN3Csv11string_copyEPKcRPc
FNDA:86864,_ZNK3Csv9multitype12strict_equalERKS0_
FNDA:8,_ZN3Csv4listINS_9multitypeEE12destroy_utilEPNS2_4iterE
FNDA:151164,_ZN3Csv4listINS_9multitypeEEC2Ei
FNDA:162,_ZN3Csv4listIcEC2Ei
FNDA:19,_ZN3Csv4listIiEC2Ei
FNDA:582,_ZN3Csv4listINS_9multitypeEEC2ESt16initializer_listIS1_E
FNDA:757800,_ZN3Csv4listINS_9multitypeEE9push_backERKS1_
FNDA:133243,_ZN3Csv4listIcE9push_backERKc
FNDA:108,_ZN3Csv4listIiE9push_backERKi
FNDA:15512,_ZN3Csv4listIcE8pop_backEv
FNDA:117731,_ZN3Csv4listIcE9pop_frontEv
FNDA:7,_ZN3Csv4listINS_9multitypeEE7destroyEv
FNDA:5,_ZNK3Csv4listINS_9multitypeEE5emptyEv
FNDA:273164,_ZNK3Csv4listIcE5emptyEv
FNDA:294609,_ZNK3Csv4listINS_9multitypeEE4sizeEv
FNDA:21753,_ZNK3Csv4listIcE4sizeEv
FNDA:110802,_ZN3Csv4listINS_9multitypeEE2atEi
FNDA:3132,_ZN3Csv4listIiE2atEi
FNDA:802227,_ZNK3Csv4listINS_9multitypeEE2atEi
FNDA:48,_ZN3Csv4listINS_9multitypeEE9delete_atEi
FNDA:138158,_ZNK3Csv4listINS_9multitypeEE4copyEv
FNDA:149,_ZN3Csv5tableC2Ev
FNDA:4748,_ZN3Csv5table7add_keyERKNS_9multitypeE
FNDA:933839,_ZN3Csv9multitypeC2Ev
FNDA:8,_ZN3Csv5table6rm_keyERKNS_9multitypeE
FNDA:20753,_ZNK3Csv5table7get_keyERKNS_9multitypeE
FNDA:4751,_ZNK3Csv5table7has_keyERKNS_9multitypeE
FNDA:135849,_ZNK3Csv5table8get_keysEv
FNDA:1465,_ZN3Csv9multitypeC2Ei
FNDA:581,_ZN3Csv5table8fix_keysENS_4listINS_9multitypeEEE
FNDA:6331,_ZN3Csv5table7add_rowEv
FNDA:5860,_ZN3Csv5table6rm_rowEi
FNDA:4214,_ZNK3Csv5table8num_rowsEv
FNDA:33241,_ZN3Csv5table7get_rowEi
FNDA:904,_ZN3Csv9multitypeC2Ec
FNDA:2309,_ZNK3Csv5table7get_rowEi
FNDA:11,_ZN3Csv5table13get_row_whereERKNS_9multitypeES3_b
FNDA:11889,_ZN3Csv9multitypeC2EPKc
FNDA:1119,_ZN3Csv5table3getEiRKNS_9multitypeE
FNDA:2600,_ZNK3Csv5table3getEiRKNS_9multitypeE
FNDA:80,_ZN3Csv5table9get_whereERKNS_9multitypeES3_S3_b
FNDA:69,_ZNK3Csv5table9get_whereERKNS_9multitypeES3_S3_b
FNDA:16,_ZN3Csv5table12rm_row_whereERKNS_9multitypeES3_b
FNDA:809036,_ZN3Csv9multitypeC2ERKS0_
FNDA:33,_ZNK3Csv5table6filterEPFbNS_9multitypeENS_4listIS1_EES0_E
FNDA:139173,_ZN3Csv11csv_handler13csv_read_charEv
FNDA:933982,_ZN3Csv9multitype4initEv
FNDA:0,_ZN3Csv11csv_handler14csv_break_lineEv
FNDA:21467,_ZN3Csv11csv_handler16csv_export_pcharEv
FNDA:19,_ZN3Csv11csv_handlerC2EPKc
FNDA:581,_ZN3Csv11csv_handler9init_readEv
FNDA:56,_ZN3Csv11csv_handler10init_writeEv
FNDA:1746,_ZN3Csv9multitype6assignEi
FNDA:580,_ZN3Csv11csv_handler18read_and_terminateEc
FNF:73
FNH:69
DA:39,4111289
DA:41,4111289
DA:42,27471197
DA:43,4111289
DA:61,933839
DA:62,933839
DA:63,933839
DA:64,933839
DA:65,1465
DA:66,1465
DA:67,1465
DA:68,1465
DA:73,904
DA:74,904
DA:75,904
DA:76,904
DA:77,11889
DA:78,11889
DA:79,11889
DA:80,11889
DA:85,809036
DA:86,809036
DA:87,809036
DA:88,809036
DA:91,933982
DA:93,933982
DA:94,933982
DA:97,1746
DA:99,1746
DA:100,1746
DA:101,1746
DA:107,904
DA:109,904
DA:110,904
DA:111,904
DA:112,31963
DA:114,31963
DA:115,31963
DA:116,31963
DA:122,1568244
DA:124,1568244
DA:125,1568244
DA:126,1714
DA:127,1568244
DA:128,0
DA:129,1568244
DA:130,0
DA:131,1568244
DA:132,1542468
DA:133,1568244
DA:134,0
DA:135,1568244
DA:136,4
DA:138,4
DA:139,4
DA:161,758821
DA:163,758821
DA:164,758821
DA:169,622
DA:171,622
DA:172,622
DA:173,622
DA:174,622
DA:175,2738
DA:176,1851
DA:177,622
DA:178,622
DA:179,622
DA:184,1671158
DA:186,1671158
DA:190,14888807
DA:192,14888807
DA:197,41307
DA:199,41307
DA:203,6785
DA:205,6785
DA:206,6344
DA:207,441
DA:208,0
DA:209,441
DA:210,0
DA:211,441
DA:213,441
DA:214,441
DA:215,1468
DA:216,1030
DA:217,1027
DA:220,441
DA:221,0
DA:222,441
DA:224,0
DA:225,0
DA:226,0
DA:230,0
DA:232,0
DA:233,0
DA:234,0
DA:235,0
DA:236,0
DA:237,0
DA:238,0
DA:240,0
DA:241,0
DA:242,0
DA:243,0
DA:244,0
DA:247,0
DA:248,0
DA:249,0
DA:251,0
DA:252,0
DA:253,0
DA:257,0
DA:259,0
DA:262,0
DA:263,0
DA:265,0
DA:266,0
DA:267,0
DA:268,0
DA:269,0
DA:272,0
DA:273,0
DA:275,0
DA:279,1638567
DA:281,1638567
DA:283,2106
DA:284,2106
DA:285,2106
DA:287,1636461
DA:289,0
DA:290,0
DA:291,0
DA:293,1636461
DA:295,904
DA:296,904
DA:297,904
DA:299,1635557
DA:300,1635557
DA:301,0
DA:303,0
DA:304,0
DA:307,0
DA:310,0
DA:312,0
DA:313,0
DA:315,0
DA:316,0
DA:317,0
DA:318,0
DA:320,0
DA:321,0
DA:322,0
DA:323,0
DA:324,0
DA:326,0
DA:328,0
DA:329,0
DA:333,0
DA:335,0
DA:336,0
DA:337,0
DA:338,0
DA:339,0
DA:341,0
DA:342,0
DA:344,0
DA:346,0
DA:347,0
DA:348,0
DA:349,0
DA:350,0
DA:351,0
DA:354,0
DA:356,0
DA:357,0
DA:358,0
DA:362,0
DA:363,0
DA:364,0
DA:366,0
DA:367,0
DA:370,0
DA:380,16050
DA:382,16050
DA:383,15669
DA:384,381
DA:385,381
DA:386,0
DA:387,0
DA:388,0
DA:393,86864
DA:395,86864
DA:396,0
DA:397,86864
DA:398,2
DA:399,86862
DA:400,0
DA:401,86862
DA:402,0
DA:403,86862
DA:404,86862
DA:405,0
DA:406,0
DA:407,0
DA:423,8
DA:425,8
DA:426,7
DA:427,1
DA:428,1
DA:429,1
DA:430,1
DA:436,151345
DA:438,151345
DA:439,151345
DA:440,175406
DA:441,24061
DA:442,151345
DA:444,582
DA:446,582
DA:447,582
DA:448,2823
DA:449,2241
DA:450,582
DA:453,891151
DA:455,891151
DA:456,3614917
DA:457,2723766
DA:458,891151
DA:459,891151
DA:460,891151
DA:461,891151
DA:474,15512
DA:476,15512
DA:477,0
DA:478,15512
DA:479,101899
DA:480,86387
DA:481,15512
DA:482,15512
DA:483,15512
DA:484,15512
DA:485,15512
DA:489,117731
DA:491,117731
DA:492,0
DA:493,117731
DA:494,117731
DA:495,117731
DA:496,117731
DA:497,117731
DA:498,117731
DA:515,7
DA:517,7
DA:518,7
DA:521,273169
DA:523,273169
DA:527,316362
DA:529,316362
DA:533,113934
DA:535,113934
DA:536,2
DA:537,113932
DA:538,392675
DA:539,278743
DA:540,113932
DA:542,802227
DA:544,802227
DA:545,0
DA:546,802227
DA:547,3126114
DA:548,2323887
DA:549,802227
DA:553,48
DA:555,48
DA:556,0
DA:557,48
DA:558,192
DA:559,144
DA:561,48
DA:562,48
DA:563,48
DA:564,48
DA:568,138158
DA:570,138158
DA:571,869224
DA:572,731066
DA:573,138158
DA:592,149
DA:593,149
DA:594,149
DA:595,149
DA:596,149
DA:599,4748
DA:601,4748
DA:602,4404
DA:603,344
DA:604,344
DA:605,344
DA:607,0
DA:608,0
DA:613,8
DA:615,32
DA:616,32
DA:618,8
DA:619,8
DA:620,48
DA:622,40
DA:623,40
DA:625,8
DA:630,20753
DA:632,71547
DA:633,71161
DA:634,20367
DA:635,386
DA:639,4751
DA:641,4751
DA:645,135849
DA:647,135849
DA:651,581
DA:653,581
DA:654,2820
DA:656,2239
DA:657,14722
DA:658,12483
DA:659,2231
DA:660,2239
DA:661,8
DA:663,2820
DA:664,2239
DA:667,2820
DA:668,7381
DA:670,5142
DA:671,5142
DA:672,5142
DA:674,3
DA:676,2
DA:677,2
DA:678,2
DA:680,1
DA:681,1
DA:682,1
DA:683,1
DA:684,1
DA:685,1
DA:688,581
DA:691,6331
DA:693,6331
DA:694,116997
DA:695,110666
DA:696,6331
DA:697,6331
DA:698,6331
DA:699,6331
DA:702,5860
DA:704,5860
DA:705,0
DA:706,5860
DA:707,115084
DA:708,109224
DA:710,5860
DA:711,5860
DA:712,5860
DA:713,5860
DA:718,4214
DA:720,4214
DA:724,33241
DA:726,33241
DA:727,0
DA:728,33241
DA:729,309926
DA:730,276685
DA:731,33241
DA:733,2309
DA:735,2309
DA:736,0
DA:737,2309
DA:738,16868
DA:739,14559
DA:740,2309
DA:747,11
DA:749,11
DA:750,11
DA:751,0
DA:752,11
DA:753,68
DA:755,68
DA:756,11
DA:757,57
DA:759,0
DA:777,1119
DA:779,1119
DA:780,0
DA:781,1119
DA:782,4949
DA:783,3830
DA:784,1119
DA:785,2196
DA:786,2196
DA:788,2600
DA:790,2600
DA:791,0
DA:792,2600
DA:793,9620
DA:794,7020
DA:795,2600
DA:796,0
DA:797,2600
DA:804,80
DA:806,80
DA:807,80
DA:808,80
DA:809,0
DA:810,80
DA:811,236
DA:813,164
DA:814,8
DA:815,156
DA:817,72
DA:819,69
DA:821,69
DA:822,69
DA:823,69
DA:824,0
DA:825,69
DA:826,312
DA:828,312
DA:829,69
DA:830,243
DA:832,0
DA:838,16
DA:840,16
DA:841,16
DA:842,0
DA:843,16
DA:844,109
DA:846,106
DA:848,13
DA:849,13
DA:850,13
DA:851,13
DA:852,13
DA:854,93
DA:856,3
DA:865,33
DA:867,33
DA:868,33
DA:869,33
DA:870,33
DA:871,33
DA:872,367
DA:873,1756
DA:874,1422
DA:875,293
DA:876,33
DA:877,178
DA:878,145
DA:879,105
DA:880,367
DA:881,334
DA:883,76
DA:884,411
DA:885,335
DA:887,33
DA:902,139173
DA:904,139173
DA:905,580
DA:906,138593
DA:907,138593
DA:909,580
DA:910,580
DA:911,0
DA:912,0
DA:914,138013
DA:915,132638
DA:916,138013
DA:918,0
DA:920,0
DA:921,0
DA:924,0
DA:925,0
DA:926,0
DA:927,0
DA:928,0
DA:929,0
DA:932,21467
DA:934,21467
DA:935,21467
DA:936,138593
DA:937,117126
DA:938,21467
DA:939,21467
DA:945,19
DA:946,19
DA:947,19
DA:948,19
DA:949,19
DA:950,19
DA:954,581
DA:956,581
DA:957,581
DA:962,56
DA:964,56
DA:970,580
DA:972,580
DA:973,0
DA:974,580
DA:975,0
DA:981,20110
DA:982,20110
DA:983,1659
DA:984,20110
DA:985,2239
DA:987,20110
DA:990,580
DA:991,6535
DA:993,5955
DA:994,5955
DA:995,119063
DA:997,119063
DA:998,119063
DA:1000,580
DA:1001,580
DA:1003,118483
DA:1005,5375
DA:1006,5375
DA:1008,113108
DA:1010,13853
DA:1011,13853
DA:1012,13853
DA:1013,0
DA:1019,11225
DA:1021,10645
DA:1022,10645
DA:1023,51952
DA:1024,41307
DA:1025,10645
DA:1026,5849
DA:1029,580
DA:1035,56
DA:1037,56
DA:1038,0
DA:1041,56
DA:1042,268
DA:1043,212
DA:1044,56
DA:1046,156
DA:1047,56
DA:1050,629
DA:1052,573
DA:1053,2440
DA:1054,1867
DA:1055,573
DA:1057,1294
DA:1058,573
DA:1061,56
DA:1065,636
DA:1067,636
DA:1068,636
DA:1071,2430
DA:1073,2430
LF:561
LH:432
end_of_record
TN:
SF:/home/nikola/Desktop/2024_Analysis_Mini-Student-Management-System/Mini-Student-Management-System/src/attendancelist.cpp
FN:102,140,_ZN3SMS29export_attendance_list_to_csvEv
FN:13,16,_Z38__attendancelist_filter_studentID_funcN3Csv9multitypeENS_4listIS0_EENS_5tableE
FN:142,194,_ZN3SMS21edit_attendance_tableERKN3Csv5tableE
FN:17,21,_Z48__attendancelist_filter_studentID_view_mode_funcN3Csv9multitypeENS_4listIS0_EENS_5tableE
FN:196,220,_ZN3SMS25edit_attendance_by_courseEv
FN:222,241,_ZN3SMS26edit_attendance_by_studentEv
FN:23,32,_Z55__attendancelist_filter_studentID_checkin_courseID_funcN3Csv9multitypeENS_4listIS0_EENS_5tableE
FN:243,261,_ZN3SMS15edit_attendanceEv
FN:263,323,_ZN3SMS16student_check_inERKN3Csv9multitypeE
FN:325,331,_ZN3SMS13view_check_inERKN3Csv9multitypeE
FN:35,69,_Z26__courses_filter_date_funcN3Csv9multitypeENS_4listIS0_EENS_5tableE
FN:7,10,_Z37__attendancelist_filter_courseID_funcN3Csv9multitypeENS_4listIS0_EENS_5tableE
FN:73,100,_ZN3SMS20view_attendance_listEv
FNDA:1,_ZN3SMS29export_attendance_list_to_csvEv
FNDA:80,_Z38__attendancelist_filter_studentID_funcN3Csv9multitypeENS_4listIS0_EENS_5tableE
FNDA:3,_ZN3SMS21edit_attendance_tableERKN3Csv5tableE
FNDA:15,_Z48__attendancelist_filter_studentID_view_mode_funcN3Csv9multitypeENS_4listIS0_EENS_5tableE
FNDA:1,_ZN3SMS25edit_attendance_by_courseEv
FNDA:2,_ZN3SMS26edit_attendance_by_studentEv
FNDA:15,_Z55__attendancelist_filter_studentID_checkin_courseID_funcN3Csv9multitypeENS_4listIS0_EENS_5tableE
FNDA:0,_ZN3SMS15edit_attendanceEv
FNDA:1,_ZN3SMS16student_check_inERKN3Csv9multitypeE
FNDA:1,_ZN3SMS13view_check_inERKN3Csv9multitypeE
FNDA:55,_Z26__courses_filter_date_funcN3Csv9multitypeENS_4listIS0_EENS_5tableE
FNDA:60,_Z37__attendancelist_filter_courseID_funcN3Csv9multitypeENS_4listIS0_EENS_5tableE
FNDA:1,_ZN3SMS20view_attendance_listEv
FNF:13
FNH:12
DA:7,60
DA:9,60
DA:13,80
DA:15,80
DA:17,15
DA:19,24
DA:20,24
DA:23,15
DA:25,15
DA:26,15
DA:27,15
DA:28,0
DA:29,0
DA:30,0
DA:31,0
DA:35,55
DA:37,105
DA:38,105
DA:39,30
DA:41,25
DA:42,25
DA:43,125
DA:44,100
DA:45,20
DA:46,25
DA:47,5
DA:49,20
DA:50,20
DA:51,20
DA:52,20
DA:54,20
DA:55,15
DA:57,5
DA:58,5
DA:59,5
DA:60,5
DA:61,5
DA:63,5
DA:64,5
DA:65,20
DA:66,20
DA:67,5
DA:68,0
DA:73,1
DA:75,1
DA:76,1
DA:77,1
DA:79,1
DA:80,1
DA:81,6
DA:82,5
DA:83,1
DA:88,2
DA:89,2
DA:91,1
DA:92,1
DA:93,1
DA:94,1
DA:96,1
DA:99,2
DA:100,1
DA:102,1
DA:104,1
DA:105,1
DA:106,1
DA:108,1
DA:109,1
DA:110,6
DA:111,5
DA:112,1
DA:117,2
DA:118,2
DA:120,1
DA:121,1
DA:123,1
DA:124,1
DA:125,1
DA:126,1
DA:127,1
DA:128,1
DA:129,1
DA:130,1
DA:131,1
DA:132,0
DA:133,1
DA:134,1
DA:135,1
DA:136,1
DA:139,2
DA:142,3
DA:144,3
DA:145,3
DA:146,3
DA:147,3
DA:148,3
DA:150,3
DA:151,3
DA:153,0
DA:155,0
DA:156,0
DA:160,3
DA:161,3
DA:162,3
DA:163,3
DA:164,3
DA:169,3
DA:170,3
DA:172,2
DA:173,2
DA:174,2
DA:175,0
DA:176,2
DA:177,2
DA:179,2
DA:182,1
DA:184,1
DA:185,1
DA:186,0
DA:187,1
DA:188,1
DA:189,1
DA:191,3
DA:196,1
DA:198,1
DA:199,1
DA:200,1
DA:202,1
DA:203,1
DA:204,6
DA:205,5
DA:206,1
DA:211,2
DA:212,2
DA:214,1
DA:215,1
DA:216,1
DA:219,2
DA:220,1
DA:222,2
DA:224,2
DA:226,2
DA:227,2
DA:228,2
DA:230,2
DA:231,2
DA:233,0
DA:235,0
DA:236,0
DA:239,2
DA:240,2
DA:243,0
DA:245,0
DA:246,0
DA:247,0
DA:248,0
DA:249,0
DA:252,0
DA:253,0
DA:254,0
DA:256,0
DA:257,0
DA:259,0
DA:260,0
DA:261,0
DA:263,1
DA:265,1
DA:266,1
DA:267,1
DA:268,5
DA:269,4
DA:271,1
DA:272,1
DA:273,1
DA:275,1
DA:276,1
DA:277,2
DA:279,1
DA:280,1
DA:281,1
DA:282,1
DA:283,1
DA:284,1
DA:285,1
DA:286,1
DA:288,1
DA:293,2
DA:294,2
DA:296,1
DA:297,1
DA:298,1
DA:300,0
DA:301,0
DA:305,1
DA:306,1
DA:307,1
DA:308,1
DA:309,1
DA:310,1
DA:311,1
DA:312,1
DA:313,1
DA:314,1
DA:315,0
DA:316,1
DA:317,1
DA:318,1
DA:322,2
DA:323,1
DA:325,1
DA:327,1
DA:328,1
DA:329,1
DA:330,1
DA:331,1
LF:214
LH:183
end_of_record
TN:
SF:/home/nikola/Desktop/2024_Analysis_Mini-Student-Management-System/Mini-Student-Management-System/src/class.cpp
FN:16,23,_ZN3SMS11checkExist2EN3Csv9multitypeE
FN:180,191,_ZN3SMS11updateusersEv
FN:194,204,_ZN3SMS11filterClassEN3Csv9multitypeENS0_4listIS1_EENS0_5tableE
FN:207,209,_ZN3SMS13filterStudentEN3Csv9multitypeENS0_4listIS1_EENS0_5tableE
FN:211,214,_ZN3SMS9viewClassEv
FN:216,224,_ZN3SMS18viewStudentInClassEv
FN:225,261,_ZN3SMS8newClassEv
FN:25,54,_ZN3SMS13removeStudentEv
FN:56,90,_ZN3SMS10addStudentEv
FN:7,14,_ZN3SMS10checkExistEN3Csv9multitypeE
FN:92,178,_ZN3SMS11editStudentEv
FNDA:4,_ZN3SMS11checkExist2EN3Csv9multitypeE
FNDA:0,_ZN3SMS11updateusersEv
FNDA:50,_ZN3SMS11filterClassEN3Csv9multitypeENS0_4listIS1_EENS0_5tableE
FNDA:40,_ZN3SMS13filterStudentEN3Csv9multitypeENS0_4listIS1_EENS0_5tableE
FNDA:1,_ZN3SMS9viewClassEv
FNDA:1,_ZN3SMS18viewStudentInClassEv
FNDA:1,_ZN3SMS8newClassEv
FNDA:3,_ZN3SMS13removeStudentEv
FNDA:1,_ZN3SMS10addStudentEv
FNDA:5,_ZN3SMS10checkExistEN3Csv9multitypeE
FNDA:1,_ZN3SMS11editStudentEv
FNF:11
FNH:10
DA:7,5
DA:8,40
DA:9,39
DA:10,4
DA:13,1
DA:16,4
DA:17,84
DA:18,80
DA:19,0
DA:22,4
DA:25,3
DA:26,3
DA:27,3
DA:28,3
DA:29,3
DA:30,3
DA:31,0
DA:32,0
DA:33,0
DA:35,3
DA:36,3
DA:37,0
DA:39,3
DA:40,3
DA:41,3
DA:42,0
DA:44,3
DA:45,3
DA:46,0
DA:48,3
DA:49,0
DA:51,3
DA:52,3
DA:53,3
DA:56,1
DA:57,1
DA:58,1
DA:59,1
DA:60,1
DA:61,1
DA:62,1
DA:63,1
DA:64,1
DA:65,1
DA:66,0
DA:67,0
DA:68,0
DA:70,1
DA:71,1
DA:72,1
DA:73,1
DA:74,1
DA:75,1
DA:76,1
DA:77,0
DA:79,1
DA:80,1
DA:81,1
DA:82,1
DA:83,1
DA:84,1
DA:85,0
DA:87,1
DA:88,1
DA:89,1
DA:92,1
DA:93,1
DA:94,1
DA:95,1
DA:96,1
DA:97,1
DA:98,1
DA:99,1
DA:100,1
DA:101,1
DA:102,1
DA:103,1
DA:104,1
DA:105,1
DA:106,0
DA:107,0
DA:108,0
DA:113,6
DA:114,6
DA:115,1
DA:116,1
DA:117,1
DA:118,1
DA:119,1
DA:120,1
DA:121,1
DA:122,1
DA:123,0
DA:125,1
DA:127,1
DA:128,1
DA:129,1
DA:130,1
DA:131,1
DA:132,1
DA:133,1
DA:135,1
DA:136,1
DA:137,1
DA:138,1
DA:139,1
DA:140,1
DA:141,1
DA:143,1
DA:144,1
DA:145,1
DA:146,1
DA:147,1
DA:148,1
DA:149,1
DA:151,1
DA:152,1
DA:153,1
DA:154,1
DA:155,1
DA:156,1
DA:157,1
DA:159,1
DA:160,0
DA:163,6
DA:164,1
DA:165,0
DA:167,1
DA:168,0
DA:170,1
DA:171,0
DA:173,1
DA:174,1
DA:175,1
DA:176,1
DA:177,1
DA:180,0
DA:181,0
DA:182,0
DA:183,0
DA:184,0
DA:185,0
DA:186,0
DA:187,0
DA:189,0
DA:194,50
DA:195,50
DA:196,40
DA:197,10
DA:198,19
DA:199,16
DA:200,7
DA:202,3
DA:203,3
DA:207,40
DA:208,40
DA:211,1
DA:212,1
DA:213,1
DA:214,1
DA:216,1
DA:217,1
DA:218,1
DA:219,1
DA:220,1
DA:221,1
DA:222,1
DA:223,1
DA:224,1
DA:225,1
DA:226,1
DA:227,1
DA:228,1
DA:229,1
DA:230,1
DA:231,1
DA:232,1
DA:233,0
DA:234,0
DA:235,0
DA:237,1
DA:238,1
DA:239,3
DA:240,2
DA:241,2
DA:242,2
DA:243,2
DA:244,2
DA:245,2
DA:246,2
DA:247,2
DA:248,2
DA:249,2
DA:251,1
DA:252,0
DA:254,1
DA:255,0
DA:257,1
DA:258,1
DA:259,1
DA:260,1
LF:201
LH:166
end_of_record
TN:
SF:/home/nikola/Desktop/2024_Analysis_Mini-Student-Management-System/Mini-Student-Management-System/src/courses.cpp
FN:150,195,_ZN3SMS22update_course_manuallyEv
FN:197,217,_ZN3SMS13delete_courseEv
FN:219,262,_ZN3SMS25update_academic_year_nameEv
FN:264,305,_ZN3SMS20update_semester_nameEv
FN:307,365,_ZN3SMS21add_student_to_courseEv
FN:31,83,_ZN3SMS33add_new_semester_to_academic_yearEv
FN:367,408,_ZN3SMS26remove_student_from_courseEv
FN:410,468,_ZN3SMS22add_lecturer_to_courseEv
FN:470,508,_ZN3SMS27remove_lecturer_from_courseEv
FN:511,513,_ZN3SMS15filter_semesterEN3Csv9multitypeENS0_4listIS1_EENS0_5tableE
FN:516,523,_ZN3SMS20filter_semester_nameEN3Csv9multitypeENS0_4listIS1_EENS0_5tableE
FN:525,578,_ZN3SMS34delete_semester_from_academic_yearEv
FN:581,583,_ZN3SMS14filter_studentEN3Csv9multitypeENS0_4listIS1_EENS0_5tableE
FN:586,591,_ZN3SMS21filter_student_courseEN3Csv9multitypeENS0_4listIS1_EENS0_5tableE
FN:593,639,_ZN3SMS23view_students_of_courseEv
FN:641,693,_ZN3SMS22add_course_to_semesterEv
FN:697,699,_ZN3SMS22filter_course_semesterEN3Csv9multitypeENS0_4listIS1_EENS0_5tableE
FN:701,745,_ZN3SMS27delete_course_from_semesterEv
FN:748,753,_ZN3SMS19filter_course_printEN3Csv9multitypeENS0_4listIS1_EENS0_5tableE
FN:755,781,_ZN3SMS23view_course_of_semesterEv
FN:783,871,_ZN3SMS22import_course_from_csvEv
FN:86,148,_ZN3SMS26create_new_course_manuallyEv
FN:874,876,_ZN3SMS25filter_student_and_courseEN3Csv9multitypeENS0_4listIS1_EENS0_5tableE
FN:880,905,_ZN3SMS15filter_scheduleEN3Csv9multitypeENS0_4listIS1_EENS0_5tableE
FN:9,29,_ZN3SMS20create_academic_yearEv
FN:907,935,_ZN3SMS24view_schedule_of_studentEN3Csv9multitypeE
FN:937,939,_ZN3SMS11filter_yearEN3Csv9multitypeENS0_4listIS1_EENS0_5tableE
FN:940,943,_ZN3SMS22view_all_academic_yearEv
FN:945,975,_ZN3SMS30view_semester_in_academic_yearEv
FN:977,1005,_ZN3SMS20delete_academic_yearEv
FNDA:1,_ZN3SMS22update_course_manuallyEv
FNDA:2,_ZN3SMS13delete_courseEv
FNDA:1,_ZN3SMS25update_academic_year_nameEv
FNDA:1,_ZN3SMS20update_semester_nameEv
FNDA:1,_ZN3SMS21add_student_to_courseEv
FNDA:1,_ZN3SMS33add_new_semester_to_academic_yearEv
FNDA:1,_ZN3SMS26remove_student_from_courseEv
FNDA:1,_ZN3SMS22add_lecturer_to_courseEv
FNDA:1,_ZN3SMS27remove_lecturer_from_courseEv
FNDA:24,_ZN3SMS15filter_semesterEN3Csv9multitypeENS0_4listIS1_EENS0_5tableE
FNDA:24,_ZN3SMS20filter_semester_nameEN3Csv9multitypeENS0_4listIS1_EENS0_5tableE
FNDA:1,_ZN3SMS34delete_semester_from_academic_yearEv
FNDA:42,_ZN3SMS14filter_studentEN3Csv9multitypeENS0_4listIS1_EENS0_5tableE
FNDA:35,_ZN3SMS21filter_student_courseEN3Csv9multitypeENS0_4listIS1_EENS0_5tableE
FNDA:1,_ZN3SMS23view_students_of_courseEv
FNDA:1,_ZN3SMS22add_course_to_semesterEv
FNDA:78,_ZN3SMS22filter_course_semesterEN3Csv9multitypeENS0_4listIS1_EENS0_5tableE
FNDA:1,_ZN3SMS27delete_course_from_semesterEv
FNDA:66,_ZN3SMS19filter_course_printEN3Csv9multitypeENS0_4listIS1_EENS0_5tableE
FNDA:1,_ZN3SMS23view_course_of_semesterEv
FNDA:1,_ZN3SMS22import_course_from_csvEv
FNDA:1,_ZN3SMS26create_new_course_manuallyEv
FNDA:42,_ZN3SMS25filter_student_and_courseEN3Csv9multitypeENS0_4listIS1_EENS0_5tableE
FNDA:66,_ZN3SMS15filter_scheduleEN3Csv9multitypeENS0_4listIS1_EENS0_5tableE
FNDA:1,_ZN3SMS20create_academic_yearEv
FNDA:1,_ZN3SMS24view_schedule_of_studentEN3Csv9multitypeE
FNDA:6,_ZN3SMS11filter_yearEN3Csv9multitypeENS0_4listIS1_EENS0_5tableE
FNDA:1,_ZN3SMS22view_all_academic_yearEv
FNDA:1,_ZN3SMS30view_semester_in_academic_yearEv
FNDA:1,_ZN3SMS20delete_academic_yearEv
FNF:30
FNH:30
DA:9,1
DA:10,1
DA:11,1
DA:12,1
DA:13,1
DA:15,3
DA:16,2
DA:17,0
DA:18,0
DA:19,0
DA:22,1
DA:23,1
DA:24,1
DA:25,1
DA:26,1
DA:27,1
DA:28,1
DA:31,1
DA:32,1
DA:33,1
DA:36,4
DA:37,3
DA:40,1
DA:45,2
DA:46,2
DA:47,1
DA:48,1
DA:49,1
DA:51,1
DA:53,1
DA:54,6
DA:55,5
DA:56,0
DA:57,0
DA:58,0
DA:61,1
DA:64,1
DA:65,1
DA:66,1
DA:69,1
DA:70,1
DA:71,1
DA:73,1
DA:75,1
DA:76,1
DA:78,1
DA:79,1
DA:80,1
DA:82,2
DA:83,1
DA:86,1
DA:87,1
DA:88,1
DA:89,1
DA:90,1
DA:91,1
DA:92,1
DA:93,1
DA:94,1
DA:95,1
DA:96,1
DA:97,1
DA:98,1
DA:99,1
DA:101,1
DA:103,1
DA:104,1
DA:105,1
DA:108,6
DA:109,5
DA:110,0
DA:111,0
DA:112,0
DA:116,1
DA:117,12
DA:119,1
DA:120,1
DA:123,8
DA:124,7
DA:125,0
DA:126,0
DA:127,0
DA:128,0
DA:129,0
DA:132,0
DA:133,0
DA:134,0
DA:135,0
DA:140,1
DA:142,1
DA:143,1
DA:145,1
DA:146,1
DA:147,1
DA:150,1
DA:151,1
DA:152,1
DA:153,7
DA:154,6
DA:156,1
DA:160,1
DA:161,1
DA:163,1
DA:165,1
DA:167,1
DA:168,1
DA:169,1
DA:170,1
DA:171,1
DA:172,1
DA:173,1
DA:174,1
DA:175,1
DA:176,1
DA:178,1
DA:180,1
DA:181,1
DA:182,1
DA:184,12
DA:186,1
DA:187,1
DA:188,1
DA:189,1
DA:190,1
DA:192,0
DA:195,1
DA:197,2
DA:198,2
DA:199,2
DA:200,15
DA:201,13
DA:203,2
DA:207,2
DA:208,2
DA:209,2
DA:210,2
DA:211,2
DA:212,2
DA:213,2
DA:214,2
DA:216,0
DA:217,2
DA:219,1
DA:220,1
DA:221,1
DA:224,4
DA:225,3
DA:228,1
DA:232,1
DA:233,1
DA:234,1
DA:235,1
DA:236,1
DA:237,1
DA:239,1
DA:240,4
DA:241,3
DA:242,0
DA:243,0
DA:247,1
DA:248,0
DA:249,0
DA:250,0
DA:253,1
DA:254,1
DA:255,1
DA:256,1
DA:257,1
DA:258,1
DA:260,0
DA:262,1
DA:264,1
DA:265,1
DA:266,1
DA:267,7
DA:268,6
DA:270,1
DA:273,1
DA:274,1
DA:276,1
DA:277,1
DA:278,1
DA:280,1
DA:282,1
DA:283,7
DA:284,6
DA:285,0
DA:286,0
DA:290,1
DA:291,0
DA:292,0
DA:293,0
DA:296,1
DA:298,1
DA:299,1
DA:300,1
DA:301,1
DA:302,1
DA:304,0
DA:305,1
DA:307,1
DA:309,1
DA:310,1
DA:311,7
DA:312,6
DA:314,1
DA:319,2
DA:320,2
DA:321,1
DA:322,1
DA:323,1
DA:325,1
DA:327,1
DA:328,3
DA:329,3
DA:330,1
DA:331,1
DA:335,1
DA:336,0
DA:337,0
DA:338,0
DA:340,1
DA:341,21
DA:342,20
DA:343,0
DA:344,0
DA:348,1
DA:349,0
DA:350,0
DA:351,0
DA:355,1
DA:356,1
DA:357,1
DA:358,1
DA:359,1
DA:360,1
DA:361,1
DA:363,2
DA:365,1
DA:367,1
DA:368,1
DA:369,1
DA:370,8
DA:371,7
DA:373,1
DA:378,5
DA:379,5
DA:380,4
DA:381,4
DA:382,4
DA:383,4
DA:385,4
DA:387,87
DA:388,87
DA:389,4
DA:390,4
DA:391,4
DA:395,4
DA:396,4
DA:398,4
DA:399,0
DA:400,0
DA:403,4
DA:404,4
DA:407,5
DA:408,1
DA:410,1
DA:411,1
DA:412,1
DA:413,7
DA:414,6
DA:416,1
DA:421,2
DA:422,2
DA:423,1
DA:424,1
DA:425,1
DA:427,1
DA:429,1
DA:431,1
DA:432,1
DA:433,1
DA:434,1
DA:437,1
DA:438,0
DA:439,0
DA:440,0
DA:443,1
DA:444,5
DA:445,4
DA:446,0
DA:447,0
DA:450,1
DA:451,0
DA:452,0
DA:453,0
DA:457,1
DA:458,1
DA:459,1
DA:460,1
DA:462,1
DA:463,1
DA:464,1
DA:466,2
DA:468,1
DA:470,1
DA:471,1
DA:472,1
DA:473,7
DA:474,6
DA:476,1
DA:481,2
DA:482,2
DA:483,1
DA:484,1
DA:485,1
DA:487,1
DA:488,5
DA:489,5
DA:490,1
DA:491,1
DA:492,1
DA:493,1
DA:494,1
DA:498,1
DA:499,0
DA:500,0
DA:503,1
DA:504,1
DA:507,2
DA:508,1
DA:511,24
DA:512,24
DA:516,24
DA:517,24
DA:518,22
DA:519,12
DA:522,22
DA:525,1
DA:526,1
DA:527,1
DA:530,4
DA:531,3
DA:534,1
DA:539,2
DA:540,2
DA:542,1
DA:543,1
DA:545,1
DA:546,2
DA:547,1
DA:550,1
DA:552,1
DA:553,1
DA:554,2
DA:555,1
DA:558,1
DA:562,1
DA:563,1
DA:564,1
DA:565,1
DA:566,1
DA:567,1
DA:568,1
DA:569,1
DA:571,1
DA:572,1
DA:573,1
DA:575,0
DA:577,2
DA:578,1
DA:581,42
DA:582,42
DA:586,35
DA:587,65
DA:588,35
DA:590,30
DA:593,1
DA:594,1
DA:595,1
DA:596,7
DA:597,6
DA:599,1
DA:604,1
DA:606,8
DA:607,7
DA:608,0
DA:609,0
DA:610,0
DA:611,0
DA:612,0
DA:615,0
DA:616,0
DA:617,0
DA:618,0
DA:623,1
DA:624,1
DA:626,1
DA:628,1
DA:629,2
DA:630,1
DA:633,1
DA:634,1
DA:635,1
DA:636,1
DA:638,0
DA:639,1
DA:641,1
DA:642,1
DA:643,1
DA:644,7
DA:645,6
DA:647,1
DA:652,2
DA:653,2
DA:654,1
DA:655,1
DA:656,7
DA:657,6
DA:659,1
DA:664,1
DA:666,1
DA:667,1
DA:668,9
DA:669,8
DA:670,0
DA:671,0
DA:675,1
DA:676,0
DA:677,0
DA:678,0
DA:681,1
DA:682,1
DA:683,1
DA:684,1
DA:685,1
DA:686,1
DA:687,1
DA:688,1
DA:690,0
DA:692,2
DA:693,1
DA:697,78
DA:698,78
DA:701,1
DA:702,1
DA:703,1
DA:704,7
DA:705,6
DA:707,1
DA:712,4
DA:713,4
DA:714,3
DA:715,3
DA:717,3
DA:718,3
DA:719,9
DA:720,6
DA:722,3
DA:727,3
DA:729,3
DA:730,30
DA:731,30
DA:732,3
DA:733,3
DA:734,3
DA:735,3
DA:738,3
DA:739,3
DA:740,3
DA:742,0
DA:744,4
DA:745,1
DA:748,66
DA:749,121
DA:750,66
DA:752,55
DA:755,1
DA:756,1
DA:757,1
DA:758,7
DA:759,6
DA:761,1
DA:766,2
DA:767,2
DA:768,1
DA:769,1
DA:771,1
DA:772,2
DA:773,1
DA:775,1
DA:776,1
DA:777,1
DA:779,2
DA:781,1
DA:783,1
DA:784,1
DA:785,1
DA:786,7
DA:787,6
DA:789,1
DA:794,2
DA:795,2
DA:797,1
DA:798,1
DA:799,1
DA:800,1
DA:802,1
DA:803,1
DA:804,0
DA:805,0
DA:806,0
DA:808,1
DA:810,1
DA:812,3
DA:813,2
DA:814,8
DA:815,7
DA:816,1
DA:817,1
DA:820,2
DA:821,1
DA:822,12
DA:823,11
DA:828,1
DA:829,1
DA:831,3
DA:832,2
DA:833,21
DA:834,19
DA:835,0
DA:836,0
DA:839,2
DA:840,2
DA:841,2
DA:842,2
DA:844,16
DA:845,14
DA:846,6
DA:847,81
DA:848,78
DA:849,3
DA:850,3
DA:853,6
DA:854,3
DA:855,3
DA:856,3
DA:862,1
DA:863,1
DA:864,1
DA:866,1
DA:867,1
DA:868,1
DA:870,2
DA:871,1
DA:874,42
DA:875,42
DA:880,66
DA:881,66
DA:882,66
DA:883,198
DA:884,165
DA:885,33
DA:887,33
DA:888,176
DA:889,176
DA:890,33
DA:891,33
DA:895,33
DA:897,33
DA:898,33
DA:899,33
DA:901,33
DA:904,33
DA:907,1
DA:909,1
DA:910,1
DA:911,1
DA:913,1
DA:916,1
DA:917,4
DA:918,3
DA:920,1
DA:924,1
DA:925,0
DA:926,0
DA:927,0
DA:928,0
DA:929,0
DA:933,1
DA:934,1
DA:935,1
DA:937,6
DA:938,6
DA:940,1
DA:941,1
DA:942,1
DA:943,1
DA:945,1
DA:946,1
DA:947,1
DA:950,4
DA:951,3
DA:954,1
DA:958,2
DA:959,2
DA:960,1
DA:961,1
DA:962,1
DA:963,2
DA:964,1
DA:968,1
DA:970,1
DA:971,1
DA:974,2
DA:975,1
DA:977,1
DA:978,1
DA:979,1
DA:982,4
DA:983,3
DA:986,1
DA:989,1
DA:990,1
DA:991,1
DA:992,1
DA:993,1
DA:995,1
DA:996,1
DA:998,1
DA:999,1
DA:1001,1
DA:1002,1
DA:1004,0
DA:1005,1
LF:635
LH:554
end_of_record
TN:
SF:/home/nikola/Desktop/2024_Analysis_Mini-Student-Management-System/Mini-Student-Management-System/src/csv_import.cpp
FN:20,31,_ZN3SMS13csv_read_utilERN3Csv11csv_handlerERKNS0_9multitypeERKNS0_4listIS3_EE
FN:33,59,_ZN3SMS13init_all_csvsEv
FNDA:578,_ZN3SMS13csv_read_utilERN3Csv11csv_handlerERKNS0_9multitypeERKNS0_4listIS3_EE
FNDA:48,_ZN3SMS13init_all_csvsEv
FNF:2
FNH:2
DA:20,578
DA:22,578
DA:24,1
DA:25,1
DA:26,1
DA:29,577
DA:30,577
DA:33,48
DA:35,48
DA:37,48
DA:39,48
DA:41,48
DA:43,48
DA:45,48
DA:47,48
DA:49,48
DA:51,48
DA:53,48
DA:55,48
DA:57,48
DA:59,48
LF:21
LH:21
end_of_record
TN:
SF:/home/nikola/Desktop/2024_Analysis_Mini-Student-Management-System/Mini-Student-Management-System/src/date.cpp
FN:104,179,_ZNK4date7compileERKN3Csv9multitypeE
FN:181,225,_ZNK4date7add_dayERKN3Csv9multitypeE
FN:227,230,_ZNK4dateltERKS_
FN:232,235,_ZNK4dategtERKS_
FN:237,240,_ZNK4dateeqERKS_
FN:242,245,_ZNK4dateneERKS_
FN:247,250,_ZNK4dateleERKS_
FN:252,255,_ZNK4dategeERKS_
FN:257,272,_ZNK4date9substractES_
FN:27,38,_ZN4date3nowEv
FN:40,102,_ZN4date5parseERKN3Csv9multitypeES3_
FN:8,25,_ZN4dateC2ERKN3Csv9multitypeES3_S3_S3_S3_
FNDA:12,_ZNK4date7compileERKN3Csv9multitypeE
FNDA:53,_ZNK4date7add_dayERKN3Csv9multitypeE
FNDA:120,_ZNK4dateltERKS_
FNDA:115,_ZNK4dategtERKS_
FNDA:58,_ZNK4dateeqERKS_
FNDA:21,_ZNK4dateneERKS_
FNDA:38,_ZNK4dateleERKS_
FNDA:38,_ZNK4dategeERKS_
FNDA:3,_ZNK4date9substractES_
FNDA:89,_ZN4date3nowEv
FNDA:113,_ZN4date5parseERKN3Csv9multitypeES3_
FNDA:265,_ZN4dateC2ERKN3Csv9multitypeES3_S3_S3_S3_
FNF:12
FNH:12
DA:8,265
DA:9,265
DA:11,265
DA:12,265
DA:13,265
DA:14,1
DA:16,264
DA:17,25
DA:19,239
DA:21,265
DA:22,265
DA:23,265
DA:24,265
DA:25,265
DA:27,89
DA:29,89
DA:30,89
DA:31,89
DA:32,89
DA:33,89
DA:34,89
DA:35,89
DA:36,89
DA:37,89
DA:40,113
DA:42,113
DA:43,113
DA:44,113
DA:45,113
DA:46,113
DA:47,113
DA:48,113
DA:49,0
DA:50,113
DA:51,113
DA:52,113
DA:53,113
DA:54,113
DA:55,678
DA:57,565
DA:59,113
DA:60,113
DA:61,452
DA:62,339
DA:63,113
DA:65,565
DA:67,113
DA:68,113
DA:69,226
DA:70,113
DA:71,113
DA:73,565
DA:75,113
DA:76,113
DA:77,226
DA:78,113
DA:79,113
DA:81,565
DA:83,0
DA:84,0
DA:85,0
DA:86,0
DA:87,0
DA:89,565
DA:91,0
DA:92,0
DA:93,0
DA:94,0
DA:95,0
DA:99,113
DA:100,113
DA:101,113
DA:104,12
DA:106,12
DA:107,12
DA:108,69
DA:110,57
DA:111,57
DA:112,57
DA:114,70
DA:116,58
DA:118,10
DA:119,10
DA:120,10
DA:121,40
DA:123,30
DA:124,30
DA:127,58
DA:129,10
DA:130,10
DA:131,10
DA:132,20
DA:134,10
DA:135,10
DA:138,58
DA:140,10
DA:141,10
DA:142,10
DA:143,20
DA:145,10
DA:146,10
DA:149,58
DA:151,4
DA:152,4
DA:153,4
DA:154,8
DA:156,4
DA:157,4
DA:160,58
DA:162,4
DA:163,4
DA:164,4
DA:165,8
DA:167,4
DA:168,4
DA:172,69
DA:174,57
DA:175,57
DA:176,57
DA:178,12
DA:181,53
DA:183,53
DA:184,53
DA:185,53
DA:186,53
DA:187,53
DA:188,53
DA:189,117
DA:191,64
DA:193,44
DA:194,44
DA:196,0
DA:197,0
DA:199,0
DA:200,0
DA:202,0
DA:203,0
DA:205,44
DA:209,20
DA:210,40
DA:211,20
DA:213,1
DA:214,1
DA:216,0
DA:217,0
DA:219,1
DA:221,20
DA:224,53
DA:227,120
DA:229,120
DA:232,115
DA:234,115
DA:237,58
DA:239,58
DA:242,21
DA:244,21
DA:247,38
DA:249,38
DA:252,38
DA:254,38
DA:257,3
DA:259,3
DA:260,0
DA:261,3
DA:262,1
DA:263,2
DA:264,2
DA:265,2
DA:266,20
DA:268,18
DA:269,18
DA:271,2
LF:172
LH:152
end_of_record
TN:
SF:/home/nikola/Desktop/2024_Analysis_Mini-Student-Management-System/Mini-Student-Management-System/src/interface.cpp
FN:100,208,_ZN9Interface11print_tableERKN3Csv5tableERKNS0_9multitypeEbbbRSo
FN:210,215,_ZN9Interface11select_menuC2Ev
FN:217,222,_ZN9Interface11select_menu8add_itemEiRKN3Csv9multitypeE
FN:224,227,_ZN9Interface11select_menu17remove_item_by_noEi
FN:229,232,_ZN9Interface11select_menu9set_titleERKN3Csv9multitypeE
FN:234,267,_ZNK9Interface11select_menu19print_menu_and_waitEbRSo
FN:269,274,_ZN9Interface10input_menuC2Ev
FN:276,283,_ZN9Interface10input_menu8add_itemERKN3Csv9multitypeEb
FN:285,288,_ZN9Interface10input_menu19remove_item_by_descERKN3Csv9multitypeEb
FN:290,293,_ZN9Interface10input_menu9set_titleERKN3Csv9multitypeE
FN:295,323,_ZNK9Interface10input_menu19print_menu_and_waitEbRSo
FN:3,29,_ZrsRSiRN3Csv9multitypeE
FN:31,34,_ZlsRSoRKN3Csv9multitypeE
FN:36,61,_Z8readlineRSiRN3Csv9multitypeE
FN:65,72,_ZN9Interface6clrscrEv
FN:74,83,_ZN9Interface5pauseEv
FN:85,98,_ZN9Interface10print_noteERKN3Csv9multitypeES3_bRSo
FNDA:19,_ZN9Interface11print_tableERKN3Csv5tableERKNS0_9multitypeEbbbRSo
FNDA:38,_ZN9Interface11select_menuC2Ev
FNDA:202,_ZN9Interface11select_menu8add_itemEiRKN3Csv9multitypeE
FNDA:2,_ZN9Interface11select_menu17remove_item_by_noEi
FNDA:38,_ZN9Interface11select_menu9set_titleERKN3Csv9multitypeE
FNDA:69,_ZNK9Interface11select_menu19print_menu_and_waitEbRSo
FNDA:39,_ZN9Interface10input_menuC2Ev
FNDA:72,_ZN9Interface10input_menu8add_itemERKN3Csv9multitypeEb
FNDA:2,_ZN9Interface10input_menu19remove_item_by_descERKN3Csv9multitypeEb
FNDA:38,_ZN9Interface10input_menu9set_titleERKN3Csv9multitypeE
FNDA:39,_ZNK9Interface10input_menu19print_menu_and_waitEbRSo
FNDA:2,_ZrsRSiRN3Csv9multitypeE
FNDA:1433,_ZlsRSoRKN3Csv9multitypeE
FNDA:141,_Z8readlineRSiRN3Csv9multitypeE
FNDA:159,_ZN9Interface6clrscrEv
FNDA:52,_ZN9Interface5pauseEv
FNDA:41,_ZN9Interface10print_noteERKN3Csv9multitypeES3_bRSo
FNF:17
FNH:17
DA:3,2
DA:5,2
DA:6,2
DA:8,2
DA:9,2
DA:10,2
DA:12,2
DA:13,2
DA:14,16
DA:15,14
DA:18,2
DA:19,2
DA:20,2
DA:21,16
DA:22,14
DA:23,2
DA:27,0
DA:28,2
DA:31,1433
DA:33,1433
DA:36,141
DA:39,141
DA:42,141
DA:43,141
DA:46,732
DA:47,732
DA:48,141
DA:49,591
DA:50,0
DA:51,591
DA:55,141
DA:56,141
DA:57,141
DA:58,732
DA:59,591
DA:60,141
DA:61,141
DA:65,159
DA:70,159
DA:72,159
DA:74,52
DA:83,52
DA:85,41
DA:90,41
DA:91,40
DA:92,41
DA:93,41
DA:94,41
DA:95,41
DA:96,41
DA:97,41
DA:98,41
DA:100,19
DA:107,19
DA:108,19
DA:109,19
DA:110,19
DA:111,19
DA:113,19
DA:114,19
DA:115,19
DA:116,19
DA:117,108
DA:118,89
DA:119,75
DA:121,56
DA:122,311
DA:123,255
DA:127,19
DA:129,18
DA:131,18
DA:133,11
DA:134,11
DA:135,0
DA:137,99
DA:139,81
DA:140,81
DA:141,217
DA:142,136
DA:144,18
DA:145,18
DA:147,33
DA:148,22
DA:149,11
DA:151,99
DA:153,842
DA:154,761
DA:155,81
DA:157,18
DA:158,74
DA:160,56
DA:162,29
DA:163,29
DA:164,58
DA:165,29
DA:167,311
DA:169,255
DA:170,255
DA:171,1080
DA:172,825
DA:174,56
DA:179,0
DA:180,0
DA:181,0
DA:182,0
DA:184,0
DA:186,0
DA:187,0
DA:188,0
DA:189,0
DA:191,0
DA:193,0
DA:194,0
DA:195,0
DA:196,0
DA:197,0
DA:199,0
DA:200,0
DA:205,1
DA:206,19
DA:207,19
DA:208,19
DA:210,38
DA:212,38
DA:213,38
DA:214,38
DA:215,38
DA:217,202
DA:219,202
DA:220,202
DA:221,202
DA:222,202
DA:224,2
DA:226,2
DA:229,38
DA:231,38
DA:232,38
DA:234,69
DA:236,69
DA:237,68
DA:238,69
DA:239,69
DA:240,69
DA:242,69
DA:243,462
DA:244,393
DA:245,462
DA:247,393
DA:248,393
DA:249,0
DA:250,393
DA:252,69
DA:257,69
DA:258,69
DA:259,69
DA:260,69
DA:261,69
DA:263,69
DA:264,69
DA:266,0
DA:269,39
DA:271,39
DA:272,39
DA:273,39
DA:274,39
DA:276,72
DA:278,72
DA:279,0
DA:280,72
DA:281,72
DA:282,72
DA:285,2
DA:287,2
DA:290,38
DA:292,38
DA:293,38
DA:295,39
DA:297,39
DA:298,32
DA:299,39
DA:300,39
DA:301,39
DA:303,39
DA:304,39
DA:305,111
DA:306,72
DA:307,111
DA:309,72
DA:310,72
DA:311,372
DA:312,300
DA:313,72
DA:314,71
DA:316,1
DA:317,72
DA:319,39
DA:320,39
DA:322,39
LF:198
LH:175
end_of_record
TN:
SF:/home/nikola/Desktop/2024_Analysis_Mini-Student-Management-System/Mini-Student-Management-System/src/lecturer.cpp
FN:114,151,_ZN3SMS15delete_lecturerEv
FN:13,19,_Z35__lecturers_filter_lecturerIDs_funcN3Csv9multitypeENS_4listIS0_EENS_5tableE
FN:153,157,_ZN3SMS18view_all_lecturersEv
FN:159,191,_ZN3SMS24view_lecturers_of_courseEv
FN:23,69,_ZN3SMS12add_lecturerEv
FN:7,10,_Z37__courselecturer_filter_courseID_funcN3Csv9multitypeENS_4listIS0_EENS_5tableE
FN:71,112,_ZN3SMS13edit_lecturerEv
FNDA:1,_ZN3SMS15delete_lecturerEv
FNDA:16,_Z35__lecturers_filter_lecturerIDs_funcN3Csv9multitypeENS_4listIS0_EENS_5tableE
FNDA:1,_ZN3SMS18view_all_lecturersEv
FNDA:1,_ZN3SMS24view_lecturers_of_courseEv
FNDA:1,_ZN3SMS12add_lecturerEv
FNDA:8,_Z37__courselecturer_filter_courseID_funcN3Csv9multitypeENS_4listIS0_EENS_5tableE
FNDA:1,_ZN3SMS13edit_lecturerEv
FNF:7
FNH:7
DA:7,8
DA:9,8
DA:13,16
DA:15,36
DA:16,28
DA:17,8
DA:18,8
DA:23,1
DA:25,1
DA:26,1
DA:27,1
DA:28,1
DA:29,1
DA:30,1
DA:31,1
DA:33,1
DA:34,1
DA:36,1
DA:37,5
DA:38,4
DA:39,0
DA:40,1
DA:42,0
DA:43,0
DA:44,0
DA:47,1
DA:48,1
DA:49,1
DA:50,1
DA:51,1
DA:53,1
DA:54,0
DA:55,1
DA:58,1
DA:59,1
DA:60,1
DA:61,1
DA:63,1
DA:64,0
DA:65,1
DA:67,1
DA:68,1
DA:71,1
DA:73,1
DA:74,1
DA:76,1
DA:78,1
DA:79,1
DA:80,1
DA:82,1
DA:83,1
DA:84,6
DA:85,5
DA:86,1
DA:87,1
DA:89,0
DA:90,0
DA:91,0
DA:94,1
DA:95,1
DA:96,1
DA:97,1
DA:98,1
DA:99,1
DA:101,1
DA:102,1
DA:103,1
DA:105,1
DA:106,0
DA:107,1
DA:109,1
DA:111,1
DA:114,1
DA:116,1
DA:117,1
DA:119,1
DA:121,1
DA:122,1
DA:123,1
DA:125,1
DA:126,1
DA:127,6
DA:128,5
DA:129,1
DA:130,1
DA:132,0
DA:133,0
DA:134,0
DA:137,1
DA:138,1
DA:139,0
DA:140,1
DA:142,1
DA:144,1
DA:146,1
DA:148,1
DA:150,1
DA:153,1
DA:155,1
DA:156,1
DA:157,1
DA:159,1
DA:161,1
DA:162,1
DA:164,1
DA:165,1
DA:166,6
DA:167,5
DA:168,1
DA:173,2
DA:174,2
DA:176,1
DA:177,1
DA:178,1
DA:180,1
DA:181,3
DA:182,2
DA:184,1
DA:185,1
DA:186,1
DA:190,2
DA:191,1
LF:122
LH:108
end_of_record
TN:
SF:/home/nikola/Desktop/2024_Analysis_Mini-Student-Management-System/Mini-Student-Management-System/src/scoreboard.cpp
FN:12,15,_Z31__courses_filter_studentID_funcN3Csv9multitypeENS_4listIS0_EENS_5tableE
FN:138,164,_ZN3SMS15view_scoreboardEv
FN:166,193,_ZN3SMS23student_view_scoreboardERKN3Csv9multitypeE
FN:17,21,_Z43__scoreboard_filter_courseID_studentID_funcN3Csv9multitypeENS_4listIS0_EENS_5tableE
FN:195,234,_ZN3SMS24export_scoreboard_to_csvEv
FN:25,77,_ZN3SMS17import_scoreboardEv
FN:6,9,_Z33__scoreboard_filter_courseID_funcN3Csv9multitypeENS_4listIS0_EENS_5tableE
FN:79,136,_ZN3SMS15edit_scoreboardEv
FNDA:40,_Z31__courses_filter_studentID_funcN3Csv9multitypeENS_4listIS0_EENS_5tableE
FNDA:1,_ZN3SMS15view_scoreboardEv
FNDA:1,_ZN3SMS23student_view_scoreboardERKN3Csv9multitypeE
FNDA:264,_Z43__scoreboard_filter_courseID_studentID_funcN3Csv9multitypeENS_4listIS0_EENS_5tableE
FNDA:1,_ZN3SMS24export_scoreboard_to_csvEv
FNDA:1,_ZN3SMS17import_scoreboardEv
FNDA:396,_Z33__scoreboard_filter_courseID_funcN3Csv9multitypeENS_4listIS0_EENS_5tableE
FNDA:1,_ZN3SMS15edit_scoreboardEv
FNF:8
FNH:8
DA:6,396
DA:8,396
DA:12,40
DA:14,40
DA:17,264
DA:19,354
DA:20,354
DA:25,1
DA:27,1
DA:28,1
DA:29,1
DA:31,1
DA:32,1
DA:33,6
DA:34,5
DA:35,1
DA:40,2
DA:41,2
DA:43,1
DA:44,1
DA:45,1
DA:46,1
DA:48,1
DA:49,1
DA:50,1
DA:52,0
DA:53,0
DA:54,0
DA:56,1
DA:57,1
DA:58,5
DA:60,4
DA:61,4
DA:62,4
DA:63,4
DA:64,4
DA:65,4
DA:66,4
DA:68,1
DA:69,0
DA:70,1
DA:71,1
DA:72,1
DA:73,1
DA:76,2
DA:77,1
DA:79,1
DA:81,1
DA:82,1
DA:83,1
DA:85,1
DA:86,1
DA:87,6
DA:88,5
DA:89,1
DA:94,2
DA:95,2
DA:97,1
DA:98,1
DA:99,1
DA:100,1
DA:102,1
DA:103,1
DA:104,1
DA:105,1
DA:106,1
DA:107,1
DA:109,1
DA:110,1
DA:111,1
DA:112,1
DA:113,1
DA:114,1
DA:115,1
DA:117,23
DA:118,30
DA:119,30
DA:121,1
DA:122,1
DA:123,1
DA:124,1
DA:129,0
DA:130,0
DA:131,0
DA:135,2
DA:136,1
DA:138,1
DA:140,1
DA:141,1
DA:142,1
DA:144,1
DA:145,1
DA:146,6
DA:147,5
DA:148,1
DA:153,2
DA:154,2
DA:156,1
DA:157,1
DA:158,1
DA:159,1
DA:160,1
DA:163,2
DA:164,1
DA:166,1
DA:168,1
DA:169,1
DA:170,1
DA:171,1
DA:173,1
DA:174,1
DA:175,4
DA:176,3
DA:177,1
DA:182,2
DA:183,2
DA:185,1
DA:186,1
DA:187,1
DA:188,1
DA:189,1
DA:192,2
DA:193,1
DA:195,1
DA:197,1
DA:198,1
DA:199,1
DA:201,1
DA:202,1
DA:203,6
DA:204,5
DA:205,1
DA:210,2
DA:211,2
DA:213,1
DA:214,1
DA:216,1
DA:217,1
DA:218,1
DA:219,1
DA:220,1
DA:221,1
DA:222,1
DA:223,1
DA:224,1
DA:225,1
DA:226,0
DA:227,1
DA:228,1
DA:229,1
DA:230,1
DA:233,2
LF:152
LH:144
end_of_record
TN:
SF:/home/nikola/Desktop/2024_Analysis_Mini-Student-Management-System/catch.hpp
FN:10000,10000,_ZNK5Catch6Config8runOrderEv
FN:10001,10001,_ZNK5Catch6Config7rngSeedEv
FN:10002,10002,_ZNK5Catch6Config9useColourEv
FN:10003,10003,_ZNK5Catch6Config16shouldDebugBreakEv
FN:10004,10004,_ZNK5Catch6Config10abortAfterEv
FN:10005,10005,_ZNK5Catch6Config14showInvisiblesEv
FN:10006,10006,_ZNK5Catch6Config9verbosityEv
FN:10008,10008,_ZNK5Catch6Config19benchmarkNoAnalysisEv
FN:10009,10009,_ZNK5Catch6Config16benchmarkSamplesEv
FN:10010,10010,_ZNK5Catch6Config27benchmarkConfidenceIntervalEv
FN:10011,10011,_ZNK5Catch6Config18benchmarkResamplesEv
FN:10012,10012,_ZNK5Catch6Config19benchmarkWarmupTimeEv
FN:10014,10016,_ZN5Catch6Config10openStreamEv
FN:10078,10078,_ZN5Catch12_GLOBAL__N_111IColourImplD2Ev
FN:10083,10083,_ZN5Catch12_GLOBAL__N_112NoColourImpl3useENS_6Colour4CodeE
FN:10085,10088,_ZN5Catch12_GLOBAL__N_112NoColourImpl8instanceEv
FN:10180,10200,_ZN5Catch12_GLOBAL__N_115PosixColourImpl3useENS_6Colour4CodeE
FN:10201,10204,_ZN5Catch12_GLOBAL__N_115PosixColourImpl8instanceEv
FN:10207,10210,_ZN5Catch12_GLOBAL__N_115PosixColourImpl9setColourEPKc
FN:10213,10224,_ZN5Catch12_GLOBAL__N_119useColourOnPlatformEv
FN:10225,10238,_ZN5Catch12_GLOBAL__N_122platformColourInstanceEv
FN:10255,10255,_ZN5Catch6ColourC2ENS0_4CodeE
FN:10256,10259,_ZN5Catch6ColourC2EOS0_
FN:10260,10264,_ZN5Catch6ColouraSEOS0_
FN:10266,10266,_ZN5Catch6ColourD2Ev
FN:10268,10277,_ZN5Catch6Colour3useENS0_4CodeE
FN:10279,10281,_ZN5CatchlsERSoRKNS_6ColourE
FN:10297,10299,_ZN5Catch7Context16getResultCaptureEv
FN:10300,10302,_ZN5Catch7Context9getRunnerEv
FN:10304,10306,_ZNK5Catch7Context9getConfigEv
FN:10311,10313,_ZN5Catch7Context16setResultCaptureEPNS_14IResultCaptureE
FN:10314,10316,_ZN5Catch7Context9setRunnerEPNS_7IRunnerE
FN:10317,10319,_ZN5Catch7Context9setConfigERKSt10shared_ptrIKNS_7IConfigEE
FN:10331,10334,_ZN5Catch15IMutableContext13createContextEv
FN:10336,10339,_ZN5Catch14cleanUpContextEv
FN:10340,10340,_ZN5Catch8IContextD0Ev
FN:10340,10340,_ZN5Catch8IContextD2Ev
FN:10341,10341,_ZN5Catch15IMutableContextD0Ev
FN:10341,10341,_ZN5Catch15IMutableContextD2Ev
FN:10342,10342,_ZN5Catch7ContextD0Ev
FN:10342,10342,_ZN5Catch7ContextD2Ev
FN:10344,10347,_ZN5Catch3rngEv
FN:10382,10385,_ZN5Catch19writeToDebugConsoleERKNSt7__cxx1112basic_stringIcSt11char_traitsIcESaIcEEE
FN:10463,10479,_ZN5Catch16isDebuggerActiveEv
FN:10505,10505,_ZN5Catch20ITransientExpressionD0Ev
FN:10505,10505,_ZN5Catch20ITransientExpressionD2Ev
FN:10507,10514,_ZN5Catch29formatReconstructedExpressionERSoRKNSt7__cxx1112basic_stringIcSt11char_traitsIcESaIcEEENS_9StringRefES8_
FN:10532,10534,_ZN5Catch17throw_logic_errorERKNSt7__cxx1112basic_stringIcSt11char_traitsIcESaIcEEE
FN:10537,10539,_ZN5Catch18throw_domain_errorERKNSt7__cxx1112basic_stringIcSt11char_traitsIcESaIcEEE
FN:10542,10544,_ZN5Catch19throw_runtime_errorERKNSt7__cxx1112basic_stringIcSt11char_traitsIcESaIcEEE
FN:10580,10580,_ZN5Catch26IMutableEnumValuesRegistryD0Ev
FN:10580,10580,_ZN5Catch26IMutableEnumValuesRegistryD2Ev
FN:10587,10594,_ZN5Catch6Detail12_GLOBAL__N_119extractInstanceNameENS_9StringRefE
FN:10597,10605,_ZN5Catch6Detail10parseEnumsENS_9StringRefE
FN:10607,10607,_ZN5Catch6Detail8EnumInfoD2Ev
FN:10609,10615,_ZNK5Catch6Detail8EnumInfo6lookupEi
FN:10617,10629,_ZN5Catch6Detail12makeEnumInfoENS_9StringRefES1_RKSt6vectorIiSaIiEE
FN:10631,10634,_ZN5Catch6Detail18EnumValuesRegistry12registerEnumENS_9StringRefES2_RKSt6vectorIiSaIiEE
FN:10645,10645,_ZN5Catch10ErrnoGuardC2Ev
FN:10646,10646,_ZN5Catch10ErrnoGuardD2Ev
FN:10678,10679,_ZN5Catch27ExceptionTranslatorRegistryD0Ev
FN:10678,10679,_ZN5Catch27ExceptionTranslatorRegistryD2Ev
FN:10681,10683,_ZN5Catch27ExceptionTranslatorRegistry18registerTranslatorEPKNS_20IExceptionTranslatorE
FN:10686,10726,_ZNK5Catch27ExceptionTranslatorRegistry24translateActiveExceptionB5cxx11Ev
FN:10728,10734,_ZNK5Catch27ExceptionTranslatorRegistry14tryTranslatorsB5cxx11Ev
FN:10775,10777,_ZN12_GLOBAL__N_111reportFatalEPKc
FN:10888,10898,_ZN5CatchL29restorePreviousSignalHandlersEv
FN:10900,10914,_ZN5CatchL12handleSignalEi
FN:10916,10922,_ZN5Catch21FatalConditionHandlerC2Ev
FN:10924,10929,_ZN5Catch21FatalConditionHandlerD2Ev
FN:10931,10944,_ZN5Catch21FatalConditionHandler15engage_platformEv
FN:10950,10952,_ZN5Catch21FatalConditionHandler18disengage_platformEv
FN:10965,10965,_ZN5Catch17IGeneratorTrackerD0Ev
FN:10965,10965,_ZN5Catch17IGeneratorTrackerD2Ev
FN:10967,10969,_ZNK5Catch18GeneratorException4whatEv
FN:10973,10973,_ZN5Catch10Generators20GeneratorUntypedBaseD0Ev
FN:10973,10973,_ZN5Catch10Generators20GeneratorUntypedBaseD2Ev
FN:10975,10977,_ZN5Catch10Generators23acquireGeneratorTrackerENS_9StringRefERKNS_14SourceLineInfoE
FN:10985,10985,_ZN5Catch14IResultCaptureD0Ev
FN:10985,10985,_ZN5Catch14IResultCaptureD2Ev
FN:10991,10991,_ZN5Catch7IConfigD0Ev
FN:10991,10991,_ZN5Catch7IConfigD2Ev
FN:10997,10997,_ZN5Catch20IExceptionTranslatorD0Ev
FN:10997,10997,_ZN5Catch20IExceptionTranslatorD2Ev
FN:10998,10998,_ZN5Catch28IExceptionTranslatorRegistryD0Ev
FN:10998,10998,_ZN5Catch28IExceptionTranslatorRegistryD2Ev
FN:11004,11004,_ZN5Catch12IRegistryHubD0Ev
FN:11004,11004,_ZN5Catch12IRegistryHubD2Ev
FN:11005,11005,_ZN5Catch19IMutableRegistryHubD0Ev
FN:11005,11005,_ZN5Catch19IMutableRegistryHubD2Ev
FN:11066,11067,_ZN5Catch14ReporterConfigC2ERKSt10shared_ptrIKNS_7IConfigEE
FN:11069,11070,_ZN5Catch14ReporterConfigC2ERKSt10shared_ptrIKNS_7IConfigEERSo
FN:11072,11072,_ZNK5Catch14ReporterConfig6streamEv
FN:11073,11073,_ZNK5Catch14ReporterConfig10fullConfigEv
FN:11075,11075,_ZN5Catch11TestRunInfoC2ERKNSt7__cxx1112basic_stringIcSt11char_traitsIcESaIcEEE
FN:11077,11083,_ZN5Catch9GroupInfoC2ERKNSt7__cxx1112basic_stringIcSt11char_traitsIcESaIcEEEmm
FN:11085,11103,_ZN5Catch14AssertionStatsC2ERKNS_15AssertionResultERKSt6vectorINS_11MessageInfoESaIS5_EERKNS_6TotalsE
FN:11105,11105,_ZN5Catch14AssertionStatsD0Ev
FN:11105,11105,_ZN5Catch14AssertionStatsD2Ev
FN:11107,11115,_ZN5Catch12SectionStatsC2ERKNS_11SectionInfoERKNS_6CountsEdb
FN:11117,11117,_ZN5Catch12SectionStatsD0Ev
FN:11117,11117,_ZN5Catch12SectionStatsD2Ev
FN:11119,11129,_ZN5Catch13TestCaseStatsC2ERKNS_12TestCaseInfoERKNS_6TotalsERKNSt7__cxx1112basic_stringIcSt11char_traitsIcESaIcEEESE_b
FN:11131,11131,_ZN5Catch13TestCaseStatsD0Ev
FN:11131,11131,_ZN5Catch13TestCaseStatsD2Ev
FN:11133,11139,_ZN5Catch14TestGroupStatsC2ERKNS_9GroupInfoERKNS_6TotalsEb
FN:11141,11144,_ZN5Catch14TestGroupStatsC2ERKNS_9GroupInfoE
FN:11146,11146,_ZN5Catch14TestGroupStatsD0Ev
FN:11146,11146,_ZN5Catch14TestGroupStatsD2Ev
FN:11148,11154,_ZN5Catch12TestRunStatsC2ERKNS_11TestRunInfoERKNS_6TotalsEb
FN:11156,11156,_ZN5Catch12TestRunStatsD0Ev
FN:11156,11156,_ZN5Catch12TestRunStatsD2Ev
FN:11158,11158,_ZN5Catch18IStreamingReporter21fatalErrorEncounteredENS_9StringRefE
FN:11159,11159,_ZNK5Catch18IStreamingReporter7isMultiEv
FN:11161,11161,_ZN5Catch16IReporterFactoryD0Ev
FN:11161,11161,_ZN5Catch16IReporterFactoryD2Ev
FN:11162,11162,_ZN5Catch17IReporterRegistryD0Ev
FN:11162,11162,_ZN5Catch17IReporterRegistryD2Ev
FN:11169,11169,_ZN5Catch7IRunnerD0Ev
FN:11169,11169,_ZN5Catch7IRunnerD2Ev
FN:11175,11175,_ZN5Catch12ITestInvokerD0Ev
FN:11175,11175,_ZN5Catch12ITestInvokerD2Ev
FN:11176,11176,_ZN5Catch17ITestCaseRegistryD0Ev
FN:11176,11176,_ZN5Catch17ITestCaseRegistryD2Ev
FN:11200,11200,_ZN5Catch12LeakDetectorC2Ev
FN:11204,11206,_ZN5Catch12LeakDetectorD2Ev
FN:11250,11282,_ZN5Catch9listTestsERKNS_6ConfigE
FN:11284,11299,_ZN5Catch18listTestsNamesOnlyERKNS_6ConfigE
FN:11301,11304,_ZN5Catch7TagInfo3addERKNSt7__cxx1112basic_stringIcSt11char_traitsIcESaIcEEE
FN:11306,11320,_ZNK5Catch7TagInfo3allB5cxx11Ev
FN:11322,11355,_ZN5Catch8listTagsERKNS_6ConfigE
FN:11357,11377,_ZN5Catch13listReportersEv
FN:11379,11391,_ZN5Catch4listERKSt10shared_ptrINS_6ConfigEE
FN:11401,11405,_ZNK5Catch8Matchers4Impl18MatcherUntypedBase8toStringB5cxx11Ev
FN:11407,11407,_ZN5Catch8Matchers4Impl18MatcherUntypedBaseD0Ev
FN:11407,11407,_ZN5Catch8Matchers4Impl18MatcherUntypedBaseD2Ev
FN:11423,11425,_ZNK5Catch8Matchers9Exception23ExceptionMessageMatcher5matchERKSt9exception
FN:11427,11429,_ZNK5Catch8Matchers9Exception23ExceptionMessageMatcher8describeB5cxx11Ev
FN:11432,11434,_ZN5Catch8Matchers7MessageERKNSt7__cxx1112basic_stringIcSt11char_traitsIcESaIcEEE
FN:11481,11486,_ZN5Catch12_GLOBAL__N_17convertEf
FN:11488,11493,_ZN5Catch12_GLOBAL__N_17convertEd
FN:11496,11514,_ZN5Catch12_GLOBAL__N_115almostEqualUlpsIdEEbT_S2_m
FN:11496,11514,_ZN5Catch12_GLOBAL__N_115almostEqualUlpsIfEEbT_S2_m
FN:11518,11520,_ZN5Catch12_GLOBAL__N_19nextafterEff
FN:11522,11524,_ZN5Catch12_GLOBAL__N_19nextafterEdd
FN:11529,11538,_ZN5Catch12_GLOBAL__N_14stepIdEET_S2_S2_m
FN:11529,11538,_ZN5Catch12_GLOBAL__N_14stepIfEET_S2_S2_m
FN:11542,11544,_ZN5Catch12_GLOBAL__N_116marginComparisonEddd
FN:11547,11551,_ZN5Catch12_GLOBAL__N_15writeIdEEvRSoT_
FN:11547,11551,_ZN5Catch12_GLOBAL__N_15writeIfEEvRSoT_
FN:11563,11567,_ZN5Catch8Matchers8Floating16WithinAbsMatcherC2Edd
FN:11571,11573,_ZNK5Catch8Matchers8Floating16WithinAbsMatcher5matchERKd
FN:11575,11577,_ZNK5Catch8Matchers8Floating16WithinAbsMatcher8describeB5cxx11Ev
FN:11579,11584,_ZN5Catch8Matchers8Floating17WithinUlpsMatcherC2EdmNS1_17FloatingPointKindE
FN:11592,11601,_ZNK5Catch8Matchers8Floating17WithinUlpsMatcher5matchERKd
FN:11607,11633,_ZNK5Catch8Matchers8Floating17WithinUlpsMatcher8describeB5cxx11Ev
FN:11635,11640,_ZN5Catch8Matchers8Floating16WithinRelMatcherC2Edd
FN:11642,11646,_ZNK5Catch8Matchers8Floating16WithinRelMatcher5matchERKd
FN:11648,11652,_ZNK5Catch8Matchers8Floating16WithinRelMatcher8describeB5cxx11Ev
FN:11656,11658,_ZN5Catch8Matchers9WithinULPEdm
FN:11660,11662,_ZN5Catch8Matchers9WithinULPEfm
FN:11664,11666,_ZN5Catch8Matchers9WithinAbsEdd
FN:11668,11670,_ZN5Catch8Matchers9WithinRelEdd
FN:11672,11674,_ZN5Catch8Matchers9WithinRelEd
FN:11676,11678,_ZN5Catch8Matchers9WithinRelEff
FN:11680,11682,_ZN5Catch8Matchers9WithinRelEf
FN:11689,11695,_ZN5Catch8Matchers7Generic6Detail19finalizeDescriptionERKNSt7__cxx1112basic_stringIcSt11char_traitsIcESaIcEEE
FN:11706,11709,_ZN5Catch8Matchers9StdString11CasedStringC2ERKNSt7__cxx1112basic_stringIcSt11char_traitsIcESaIcEEENS_13CaseSensitive6ChoiceE
FN:11710,11714,_ZNK5Catch8Matchers9StdString11CasedString12adjustStringERKNSt7__cxx1112basic_stringIcSt11char_traitsIcESaIcEEE
FN:11715,11719,_ZNK5Catch8Matchers9StdString11CasedString21caseSensitivitySuffixB5cxx11Ev
FN:11721,11724,_ZN5Catch8Matchers9StdString17StringMatcherBaseC2ERKNSt7__cxx1112basic_stringIcSt11char_traitsIcESaIcEEERKNS1_11CasedStringE
FN:11726,11736,_ZNK5Catch8Matchers9StdString17StringMatcherBase8describeB5cxx11Ev
FN:11738,11738,_ZN5Catch8Matchers9StdString13EqualsMatcherC2ERKNS1_11CasedStringE
FN:11740,11742,_ZNK5Catch8Matchers9StdString13EqualsMatcher5matchERKNSt7__cxx1112basic_stringIcSt11char_traitsIcESaIcEEE
FN:11744,11744,_ZN5Catch8Matchers9StdString15ContainsMatcherC2ERKNS1_11CasedStringE
FN:11746,11748,_ZNK5Catch8Matchers9StdString15ContainsMatcher5matchERKNSt7__cxx1112basic_stringIcSt11char_traitsIcESaIcEEE
FN:11750,11750,_ZN5Catch8Matchers9StdString17StartsWithMatcherC2ERKNS1_11CasedStringE
FN:11752,11754,_ZNK5Catch8Matchers9StdString17StartsWithMatcher5matchERKNSt7__cxx1112basic_stringIcSt11char_traitsIcESaIcEEE
FN:11756,11756,_ZN5Catch8Matchers9StdString15EndsWithMatcherC2ERKNS1_11CasedStringE
FN:11758,11760,_ZNK5Catch8Matchers9StdString15EndsWithMatcher5matchERKNSt7__cxx1112basic_stringIcSt11char_traitsIcESaIcEEE
FN:11762,11762,_ZN5Catch8Matchers9StdString12RegexMatcherC2ENSt7__cxx1112basic_stringIcSt11char_traitsIcESaIcEEENS_13CaseSensitive6ChoiceE
FN:11764,11771,_ZNK5Catch8Matchers9StdString12RegexMatcher5matchERKNSt7__cxx1112basic_stringIcSt11char_traitsIcESaIcEEE
FN:11773,11775,_ZNK5Catch8Matchers9StdString12RegexMatcher8describeB5cxx11Ev
FN:11779,11781,_ZN5Catch8Matchers6EqualsERKNSt7__cxx1112basic_stringIcSt11char_traitsIcESaIcEEENS_13CaseSensitive6ChoiceE
FN:11782,11784,_ZN5Catch8Matchers8ContainsERKNSt7__cxx1112basic_stringIcSt11char_traitsIcESaIcEEENS_13CaseSensitive6ChoiceE
FN:11785,11787,_ZN5Catch8Matchers8EndsWithERKNSt7__cxx1112basic_stringIcSt11char_traitsIcESaIcEEENS_13CaseSensitive6ChoiceE
FN:11788,11790,_ZN5Catch8Matchers10StartsWithERKNSt7__cxx1112basic_stringIcSt11char_traitsIcESaIcEEENS_13CaseSensitive6ChoiceE
FN:11792,11794,_ZN5Catch8Matchers7MatchesERKNSt7__cxx1112basic_stringIcSt11char_traitsIcESaIcEEENS_13CaseSensitive6ChoiceE
FN:11813,11820,_ZN5Catch11MessageInfoC2ERKNS_9StringRefERKNS_14SourceLineInfoENS_9ResultWas6OfTypeE
FN:11822,11824,_ZNK5Catch11MessageInfoeqERKS0_
FN:11826,11828,_ZNK5Catch11MessageInfoltERKS0_
FN:11835,11838,_ZN5Catch14MessageBuilderC2ERKNS_9StringRefERKNS_14SourceLineInfoENS_9ResultWas6OfTypeE
FN:11842,11847,_ZN5Catch13ScopedMessageC2ERKNS_14MessageBuilderE
FN:11849,11853,_ZN5Catch13ScopedMessageC2EOS0_
FN:11855,11859,_ZN5Catch13ScopedMessageD2Ev
FN:11861,11917,_ZN5Catch8CapturerC2ENS_9StringRefERKNS_14SourceLineInfoENS_9ResultWas6OfTypeES1_
FN:11862,11870,_ZZN5Catch8CapturerC4ENS_9StringRefERKNS_14SourceLineInfoENS_9ResultWas6OfTypeES1_ENKUlmmE_clEmm
FN:11871,11879,_ZZN5Catch8CapturerC4ENS_9StringRefERKNS_14SourceLineInfoENS_9ResultWas6OfTypeES1_ENKUlmcE_clEmc
FN:11918,11924,_ZN5Catch8CapturerD2Ev
FN:11926,11931,_ZN5Catch8Capturer12captureValueEmRKNSt7__cxx1112basic_stringIcSt11char_traitsIcESaIcEEE
FN:12063,12069,_ZN5Catch16RedirectedStreamC2ERSoS1_
FN:12071,12073,_ZN5Catch16RedirectedStreamD2Ev
FN:12075,12075,_ZN5Catch16RedirectedStdOutC2Ev
FN:12076,12076,_ZNK5Catch16RedirectedStdOut3strB5cxx11Ev
FN:12078,12081,_ZN5Catch16RedirectedStdErrC2Ev
FN:12082,12082,_ZNK5Catch16RedirectedStdErr3strB5cxx11Ev
FN:12084,12087,_ZN5Catch17RedirectedStreamsC2ERNSt7__cxx1112basic_stringIcSt11char_traitsIcESaIcEEES7_
FN:12089,12092,_ZN5Catch17RedirectedStreamsD2Ev
FN:12187,12189,_ZN5Catch5isnanEf
FN:12190,12192,_ZN5Catch5isnanEd
FN:12216,12220,_ZN5Catch12_GLOBAL__N_112rotate_rightEjj
FN:12228,12230,_ZN5Catch11SimplePcg32C2Ej
FN:12232,12237,_ZN5Catch11SimplePcg324seedEj
FN:12239,12245,_ZN5Catch11SimplePcg327discardEm
FN:12247,12256,_ZN5Catch11SimplePcg32clEv
FN:12258,12260,_ZN5CatcheqERKNS_11SimplePcg32ES2_
FN:12262,12264,_ZN5CatchneERKNS_11SimplePcg32ES2_
FN:12293,12293,_ZN5Catch12TestRegistryD0Ev
FN:12293,12293,_ZN5Catch12TestRegistryD2Ev
FN:12422,12429,_ZN5Catch9SingletonINS_12_GLOBAL__N_111RegistryHubENS_12IRegistryHubENS_19IMutableRegistryHubEE11getInternalEv
FN:12422,12429,_ZN5Catch9SingletonINS_13StringStreamsES1_S1_E11getInternalEv
FN:12432,12434,_ZN5Catch9SingletonINS_12_GLOBAL__N_111RegistryHubENS_12IRegistryHubENS_19IMutableRegistryHubEE3getEv
FN:12435,12437,_ZN5Catch9SingletonINS_12_GLOBAL__N_111RegistryHubENS_12IRegistryHubENS_19IMutableRegistryHubEE10getMutableEv
FN:12435,12437,_ZN5Catch9SingletonINS_13StringStreamsES1_S1_E10getMutableEv
FN:12451,12451,_ZN5Catch12_GLOBAL__N_111RegistryHubC2Ev
FN:12452,12454,_ZNK5Catch12_GLOBAL__N_111RegistryHub19getReporterRegistryEv
FN:12455,12457,_ZNK5Catch12_GLOBAL__N_111RegistryHub19getTestCaseRegistryEv
FN:12458,12460,_ZNK5Catch12_GLOBAL__N_111RegistryHub30getExceptionTranslatorRegistryEv
FN:12461,12463,_ZNK5Catch12_GLOBAL__N_111RegistryHub19getTagAliasRegistryEv
FN:12464,12466,_ZNK5Catch12_GLOBAL__N_111RegistryHub27getStartupExceptionRegistryEv
FN:12469,12471,_ZN5Catch12_GLOBAL__N_111RegistryHub16registerReporterERKNSt7__cxx1112basic_stringIcSt11char_traitsIcESaIcEEERKSt10shared_ptrINS_16IReporterFactoryEE
FN:12472,12474,_ZN5Catch12_GLOBAL__N_111RegistryHub16registerListenerERKSt10shared_ptrINS_16IReporterFactoryEE
FN:12475,12477,_ZN5Catch12_GLOBAL__N_111RegistryHub12registerTestERKNS_8TestCaseE
FN:12478,12480,_ZN5Catch12_GLOBAL__N_111RegistryHub18registerTranslatorEPKNS_20IExceptionTranslatorE
FN:12481,12483,_ZN5Catch12_GLOBAL__N_111RegistryHub16registerTagAliasERKNSt7__cxx1112basic_stringIcSt11char_traitsIcESaIcEEES9_RKNS_14SourceLineInfoE
FN:12484,12490,_ZN5Catch12_GLOBAL__N_111RegistryHub24registerStartupExceptionEv
FN:12491,12493,_ZN5Catch12_GLOBAL__N_111RegistryHub28getMutableEnumValuesRegistryEv
FN:12507,12509,_ZN5Catch14getRegistryHubEv
FN:12510,12512,_ZN5Catch21getMutableRegistryHubEv
FN:12513,12516,_ZN5Catch7cleanUpEv
FN:12517,12519,_ZN5Catch24translateActiveExceptionB5cxx11Ev
FN:12527,12527,_ZN5Catch16ReporterRegistryD0Ev
FN:12527,12527,_ZN5Catch16ReporterRegistryD2Ev
FN:12529,12534,_ZNK5Catch16ReporterRegistry6createERKNSt7__cxx1112basic_stringIcSt11char_traitsIcESaIcEEERKSt10shared_ptrIKNS_7IConfigEE
FN:12536,12538,_ZN5Catch16ReporterRegistry16registerReporterERKNSt7__cxx1112basic_stringIcSt11char_traitsIcESaIcEEERKSt10shared_ptrINS_16IReporterFactoryEE
FN:12539,12541,_ZN5Catch16ReporterRegistry16registerListenerERKSt10shared_ptrINS_16IReporterFactoryEE
FN:12543,12545,_ZNK5Catch16ReporterRegistry12getFactoriesB5cxx11Ev
FN:12546,12548,_ZNK5Catch16ReporterRegistry12getListenersEv
FN:12556,12558,_ZN5Catch4isOkENS_9ResultWas6OfTypeE
FN:12559,12561,_ZN5Catch10isJustInfoEi
FN:12563,12565,_ZN5CatchorENS_17ResultDisposition5FlagsES1_
FN:12567,12567,_ZN5Catch23shouldContinueOnFailureEi
FN:12568,12568,_ZN5Catch21shouldSuppressFailureEi
FN:12584,12586,_ZN5Catch10Generators16GeneratorTrackerC2ERKNS_16TestCaseTracking15NameAndLocationERNS2_14TrackerContextEPNS2_8ITrackerE
FN:12589,12623,_ZN5Catch10Generators16GeneratorTracker7acquireERNS_16TestCaseTracking14TrackerContextERKNS2_15NameAndLocationE
FN:12626,12626,_ZNK5Catch10Generators16GeneratorTracker18isGeneratorTrackerEv
FN:12627,12629,_ZNK5Catch10Generators16GeneratorTracker12hasGeneratorEv
FN:12630,12697,_ZN5Catch10Generators16GeneratorTracker5closeEv
FN:12639,12685,_ZZN5Catch10Generators16GeneratorTracker5closeEvENKUlvE_clEv
FN:12648,12650,_ZZZN5Catch10Generators16GeneratorTracker5closeEvENKUlvE_clEvENKUlSt10shared_ptrINS_16TestCaseTracking8ITrackerEEE_clES6_
FN:12700,12702,_ZNK5Catch10Generators16GeneratorTracker12getGeneratorEv
FN:12703,12705,_ZN5Catch10Generators16GeneratorTracker12setGeneratorEOSt10unique_ptrINS0_20GeneratorUntypedBaseESt14default_deleteIS3_EE
FN:12707,12707,_ZN5Catch10Generators16GeneratorTrackerD0Ev
FN:12707,12707,_ZN5Catch10Generators16GeneratorTrackerD2Ev
FN:12710,12722,_ZN5Catch10RunContextC2ERKSt10shared_ptrIKNS_7IConfigEEOSt10unique_ptrINS_18IStreamingReporterESt14default_deleteIS8_EE
FN:12724,12726,_ZN5Catch10RunContextD0Ev
FN:12724,12726,_ZN5Catch10RunContextD2Ev
FN:12728,12730,_ZN5Catch10RunContext17testGroupStartingERKNSt7__cxx1112basic_stringIcSt11char_traitsIcESaIcEEEmm
FN:12732,12734,_ZN5Catch10RunContext14testGroupEndedERKNSt7__cxx1112basic_stringIcSt11char_traitsIcESaIcEEERKNS_6TotalsEmm
FN:12736,12774,_ZN5Catch10RunContext7runTestERKNS_8TestCaseE
FN:12776,12778,_ZNK5Catch10RunContext6configEv
FN:12780,12782,_ZNK5Catch10RunContext8reporterEv
FN:12784,12809,_ZN5Catch10RunContext14assertionEndedERKNS_15AssertionResultE
FN:12810,12813,_ZN5Catch10RunContext18resetAssertionInfoEv
FN:12815,12828,_ZN5Catch10RunContext14sectionStartedERKNS_11SectionInfoERNS_6CountsE
FN:12829,12835,_ZN5Catch10RunContext23acquireGeneratorTrackerENS_9StringRefERKNS_14SourceLineInfoE
FN:12837,12847,_ZN5Catch10RunContext24testForMissingAssertionsERNS_6CountsE
FN:12849,12861,_ZN5Catch10RunContext12sectionEndedERKNS_14SectionEndInfoE
FN:12863,12871,_ZN5Catch10RunContext17sectionEndedEarlyERKNS_14SectionEndInfoE
FN:12888,12890,_ZN5Catch10RunContext17pushScopedMessageERKNS_11MessageInfoE
FN:12892,12894,_ZN5Catch10RunContext16popScopedMessageERKNS_11MessageInfoE
FN:12896,12898,_ZN5Catch10RunContext22emplaceUnscopedMessageERKNS_14MessageBuilderE
FN:12900,12904,_ZNK5Catch10RunContext18getCurrentTestNameB5cxx11Ev
FN:12906,12908,_ZNK5Catch10RunContext13getLastResultEv
FN:12910,12912,_ZN5Catch10RunContext22exceptionEarlyReportedEv
FN:12914,12950,_ZN5Catch10RunContext25handleFatalErrorConditionENS_9StringRefE
FN:12952,12954,_ZN5Catch10RunContext19lastAssertionPassedEv
FN:12956,12961,_ZN5Catch10RunContext15assertionPassedEv
FN:12963,12965,_ZNK5Catch10RunContext8abortingEv
FN:12967,13016,_ZN5Catch10RunContext14runCurrentTestERNSt7__cxx1112basic_stringIcSt11char_traitsIcESaIcEEES7_
FN:13018,13021,_ZN5Catch10RunContext20invokeActiveTestCaseEv
FN:13023,13032,_ZN5Catch10RunContext24handleUnfinishedSectionsEv
FN:13034,13056,_ZN5Catch10RunContext10handleExprERKNS_13AssertionInfoERKNS_20ITransientExpressionERNS_17AssertionReactionE
FN:13057,13070,_ZN5Catch10RunContext10reportExprERKNS_13AssertionInfoENS_9ResultWas6OfTypeEPKNS_20ITransientExpressionEb
FN:13072,13088,_ZN5Catch10RunContext13handleMessageERKNS_13AssertionInfoENS_9ResultWas6OfTypeERKNS_9StringRefERNS_17AssertionReactionE
FN:13089,13094,_ZN5Catch10RunContext34handleUnexpectedExceptionNotThrownERKNS_13AssertionInfoERNS_17AssertionReactionE
FN:13096,13108,_ZN5Catch10RunContext33handleUnexpectedInflightExceptionERKNS_13AssertionInfoERKNSt7__cxx1112basic_stringIcSt11char_traitsIcESaIcEEERNS_17AssertionReactionE
FN:13110,13113,_ZN5Catch10RunContext16populateReactionERNS_17AssertionReactionE
FN:13115,13124,_ZN5Catch10RunContext16handleIncompleteERKNS_13AssertionInfoE
FN:13125,13138,_ZN5Catch10RunContext13handleNonExprERKNS_13AssertionInfoENS_9ResultWas6OfTypeERNS_17AssertionReactionE
FN:13140,13145,_ZN5Catch16getResultCaptureEv
FN:13147,13152,_ZN5Catch7seedRngERKNS_7IConfigE
FN:13154,13156,_ZN5Catch7rngSeedEv
FN:13164,13169,_ZN5Catch7SectionC2ERKNS_11SectionInfoE
FN:13171,13179,_ZN5Catch7SectionD0Ev
FN:13171,13179,_ZN5Catch7SectionD2Ev
FN:13182,13184,_ZNK5Catch7SectioncvbEv
FN:13192,13197,_ZN5Catch11SectionInfoC2ERKNS_14SourceLineInfoERKNSt7__cxx1112basic_stringIcSt11char_traitsIcESaIcEEE
FN:13226,13233,_ZN5Catch7Session3runIcEEiiPKPKT_
FN:13294,13299,_ZN5Catch12_GLOBAL__N_114createReporterERKNSt7__cxx1112basic_stringIcSt11char_traitsIcESaIcEEERKSt10shared_ptrIKNS_7IConfigEE
FN:13301,13319,_ZN5Catch12_GLOBAL__N_112makeReporterERKSt10shared_ptrINS_6ConfigEE
FN:13323,13339,_ZN5Catch12_GLOBAL__N_19TestGroupC2ERKSt10shared_ptrINS_6ConfigEE
FN:13341,13366,_ZN5Catch12_GLOBAL__N_19TestGroup7executeEv
FN:13377,13397,_ZN5Catch12_GLOBAL__N_120applyFilenamesAsTagsERKNS_7IConfigE
FN:13401,13431,_ZN5Catch7SessionC2Ev
FN:13432,13434,_ZN5Catch7SessionD0Ev
FN:13432,13434,_ZN5Catch7SessionD2Ev
FN:13436,13441,_ZNK5Catch7Session8showHelpEv
FN:13442,13448,_ZN5Catch7Session11libIdentifyEv
FN:13450,13473,_ZN5Catch7Session16applyCommandLineEiPKPKc
FN:13499,13502,_ZN5Catch7Session13useConfigDataERKNS_10ConfigDataE
FN:13504,13515,_ZN5Catch7Session3runEv
FN:13517,13519,_ZNK5Catch7Session3cliEv
FN:13520,13522,_ZN5Catch7Session3cliERKNS_5clara6detail6ParserE
FN:13523,13525,_ZN5Catch7Session10configDataEv
FN:13526,13530,_ZN5Catch7Session6configEv
FN:13532,13569,_ZN5Catch7Session11runInternalEv
FN:13580,13585,_ZN5Catch12_GLOBAL__N_1L13getSingletonsEv
FN:13588,13588,_ZN5Catch10ISingletonD0Ev
FN:13588,13588,_ZN5Catch10ISingletonD2Ev
FN:13590,13592,_ZN5Catch12addSingletonEPNS_10ISingletonE
FN:13593,13599,_ZN5Catch17cleanupSingletonsEv
FN:13607,13614,_ZN5Catch24StartupExceptionRegistry3addERKNSt15__exception_ptr13exception_ptrE
FN:13616,13618,_ZNK5Catch24StartupExceptionRegistry13getExceptionsEv
FN:13634,13634,_ZN5Catch7IStreamD0Ev
FN:13634,13634,_ZN5Catch7IStreamD2Ev
FN:13643,13645,_ZN5Catch6Detail12_GLOBAL__N_113StreamBufImplINS1_17OutputDebugWriterELm256EEC2Ev
FN:13647,13649,_ZN5Catch6Detail12_GLOBAL__N_113StreamBufImplINS1_17OutputDebugWriterELm256EED0Ev
FN:13647,13649,_ZN5Catch6Detail12_GLOBAL__N_113StreamBufImplINS1_17OutputDebugWriterELm256EED2Ev
FN:13652,13662,_ZN5Catch6Detail12_GLOBAL__N_113StreamBufImplINS1_17OutputDebugWriterELm256EE8overflowEi
FN:13664,13670,_ZN5Catch6Detail12_GLOBAL__N_113StreamBufImplINS1_17OutputDebugWriterELm256EE4syncEv
FN:13677,13679,_ZN5Catch6Detail12_GLOBAL__N_117OutputDebugWriterclERKNSt7__cxx1112basic_stringIcSt11char_traitsIcESaIcEEE
FN:13687,13690,_ZN5Catch6Detail12_GLOBAL__N_110FileStreamC2ENS_9StringRefE
FN:13691,13691,_ZN5Catch6Detail12_GLOBAL__N_110FileStreamD0Ev
FN:13691,13691,_ZN5Catch6Detail12_GLOBAL__N_110FileStreamD2Ev
FN:13693,13695,_ZNK5Catch6Detail12_GLOBAL__N_110FileStream6streamEv
FN:13705,13705,_ZN5Catch6Detail12_GLOBAL__N_110CoutStreamC2Ev
FN:13706,13706,_ZN5Catch6Detail12_GLOBAL__N_110CoutStreamD0Ev
FN:13706,13706,_ZN5Catch6Detail12_GLOBAL__N_110CoutStreamD2Ev
FN:13709,13709,_ZNK5Catch6Detail12_GLOBAL__N_110CoutStream6streamEv
FN:13718,13721,_ZN5Catch6Detail12_GLOBAL__N_114DebugOutStreamC2Ev
FN:13723,13723,_ZN5Catch6Detail12_GLOBAL__N_114DebugOutStreamD0Ev
FN:13723,13723,_ZN5Catch6Detail12_GLOBAL__N_114DebugOutStreamD2Ev
FN:13726,13726,_ZNK5Catch6Detail12_GLOBAL__N_114DebugOutStream6streamEv
FN:13733,13744,_ZN5Catch10makeStreamERKNS_9StringRefE
FN:13752,13762,_ZN5Catch13StringStreams3addEv
FN:13764,13767,_ZN5Catch13StringStreams7releaseEm
FN:13770,13773,_ZN5Catch20ReusableStringStreamC2Ev
FN:13775,13779,_ZN5Catch20ReusableStringStreamD0Ev
FN:13775,13779,_ZN5Catch20ReusableStringStreamD2Ev
FN:13781,13783,_ZNK5Catch20ReusableStringStream3strB5cxx11Ev
FN:13788,13788,_ZN5Catch4coutEv
FN:13789,13789,_ZN5Catch4cerrEv
FN:13790,13790,_ZN5Catch4clogEv
FN:13805,13807,_ZN5Catch12_GLOBAL__N_19toLowerChEc
FN:13810,13812,_ZN5Catch10startsWithERKNSt7__cxx1112basic_stringIcSt11char_traitsIcESaIcEEES7_
FN:13813,13815,_ZN5Catch10startsWithERKNSt7__cxx1112basic_stringIcSt11char_traitsIcESaIcEEEc
FN:13816,13818,_ZN5Catch8endsWithERKNSt7__cxx1112basic_stringIcSt11char_traitsIcESaIcEEES7_
FN:13819,13821,_ZN5Catch8endsWithERKNSt7__cxx1112basic_stringIcSt11char_traitsIcESaIcEEEc
FN:13822,13824,_ZN5Catch8containsERKNSt7__cxx1112basic_stringIcSt11char_traitsIcESaIcEEES7_
FN:13825,13827,_ZN5Catch14toLowerInPlaceERNSt7__cxx1112basic_stringIcSt11char_traitsIcESaIcEEE
FN:13828,13832,_ZN5Catch7toLowerERKNSt7__cxx1112basic_stringIcSt11char_traitsIcESaIcEEE
FN:13833,13839,_ZN5Catch4trimERKNSt7__cxx1112basic_stringIcSt11char_traitsIcESaIcEEE
FN:13841,13851,_ZN5Catch4trimENS_9StringRefE
FN:13842,13844,_ZZN5Catch4trimENS_9StringRefEENKUlcE_clEc
FN:13853,13865,_ZN5Catch14replaceInPlaceERNSt7__cxx1112basic_stringIcSt11char_traitsIcESaIcEEERKS5_S8_
FN:1386,1386,_ZN5Catch11isFalseTestEi
FN:13867,13880,_ZN5Catch14splitStringRefENS_9StringRefEc
FN:13882,13885,_ZN5Catch9pluraliseC2EmRKNSt7__cxx1112basic_stringIcSt11char_traitsIcESaIcEEE
FN:13887,13892,_ZN5CatchlsERSoRKNS_9pluraliseE
FN:13904,13906,_ZN5Catch9StringRefC2EPKc
FN:13908,13911,_ZNK5Catch9StringRef5c_strEv
FN:13912,13914,_ZNK5Catch9StringRef4dataEv
FN:13916,13922,_ZNK5Catch9StringRef6substrEmm
FN:13923,13926,_ZNK5Catch9StringRefeqERKS0_
FN:13928,13930,_ZN5CatchlsERSoRKNS_9StringRefE
FN:13932,13935,_ZN5CatchpLERNSt7__cxx1112basic_stringIcSt11char_traitsIcESaIcEEERKNS_9StringRefE
FN:13942,13942,_ZN5Catch8TagAliasC2ERKNSt7__cxx1112basic_stringIcSt11char_traitsIcESaIcEEENS_14SourceLineInfoE
FN:13949,13956,_ZN5Catch22RegistrarForTagAliasesC2EPKcS2_RKNS_14SourceLineInfoE
FN:13966,13966,_ZN5Catch16TagAliasRegistryD0Ev
FN:13966,13966,_ZN5Catch16TagAliasRegistryD2Ev
FN:13968,13974,_ZNK5Catch16TagAliasRegistry4findERKNSt7__cxx1112basic_stringIcSt11char_traitsIcESaIcEEE
FN:13976,13987,_ZNK5Catch16TagAliasRegistry13expandAliasesERKNSt7__cxx1112basic_stringIcSt11char_traitsIcESaIcEEE
FN:13989,13997,_ZN5Catch16TagAliasRegistry3addERKNSt7__cxx1112basic_stringIcSt11char_traitsIcESaIcEEES8_RKNS_14SourceLineInfoE
FN:13999,13999,_ZN5Catch17ITagAliasRegistryD0Ev
FN:13999,13999,_ZN5Catch17ITagAliasRegistryD2Ev
FN:14001,14003,_ZN5Catch17ITagAliasRegistry3getEv
FN:14017,14033,_ZN5Catch12_GLOBAL__N_115parseSpecialTagERKNSt7__cxx1112basic_stringIcSt11char_traitsIcESaIcEEE
FN:14034,14036,_ZN5Catch12_GLOBAL__N_113isReservedTagERKNSt7__cxx1112basic_stringIcSt11char_traitsIcESaIcEEE
FN:14037,14042,_ZN5Catch12_GLOBAL__N_121enforceNotReservedTagERKNSt7__cxx1112basic_stringIcSt11char_traitsIcESaIcEEERKNS_14SourceLineInfoE
FN:14045,14092,_ZN5Catch12makeTestCaseEPNS_12ITestInvokerERKNSt7__cxx1112basic_stringIcSt11char_traitsIcESaIcEEERKNS_11NameAndTagsERKNS_14SourceLineInfoE
FN:14094,14105,_ZN5Catch7setTagsERNS_12TestCaseInfoESt6vectorINSt7__cxx1112basic_stringIcSt11char_traitsIcESaIcEEESaIS8_EE
FN:14107,14119,_ZN5Catch12TestCaseInfoC2ERKNSt7__cxx1112basic_stringIcSt11char_traitsIcESaIcEEES8_S8_RKSt6vectorIS6_SaIS6_EERKNS_14SourceLineInfoE
FN:14121,14123,_ZNK5Catch12TestCaseInfo8isHiddenEv
FN:14124,14126,_ZNK5Catch12TestCaseInfo6throwsEv
FN:14127,14129,_ZNK5Catch12TestCaseInfo8okToFailEv
FN:14130,14132,_ZNK5Catch12TestCaseInfo14expectedToFailEv
FN:14134,14149,_ZNK5Catch12TestCaseInfo12tagsAsStringB5cxx11Ev
FN:14151,14151,_ZN5Catch8TestCaseC2EPNS_12ITestInvokerEONS_12TestCaseInfoE
FN:14153,14157,_ZNK5Catch8TestCase8withNameERKNSt7__cxx1112basic_stringIcSt11char_traitsIcESaIcEEE
FN:14159,14161,_ZNK5Catch8TestCase6invokeEv
FN:14163,14167,_ZNK5Catch8TestCaseeqERKS0_
FN:14169,14171,_ZNK5Catch8TestCaseltERKS0_
FN:14173,14176,_ZNK5Catch8TestCase15getTestCaseInfoEv
FN:14191,14192,_ZN5Catch12_GLOBAL__N_110TestHasherC2Em
FN:14194,14207,_ZNK5Catch12_GLOBAL__N_110TestHasherclERKNS_8TestCaseE
FN:14214,14257,_ZN5Catch9sortTestsERKNS_7IConfigERKSt6vectorINS_8TestCaseESaIS4_EE
FN:14239,14244,_ZZN5Catch9sortTestsERKNS_7IConfigERKSt6vectorINS_8TestCaseESaIS4_EEENKUlRKSt4pairImPKS4_ESE_E_clESE_SE_
FN:14259,14261,_ZN5Catch11isThrowSafeERKNS_8TestCaseERKNS_7IConfigE
FN:14263,14265,_ZN5Catch9matchTestERKNS_8TestCaseERKNS_8TestSpecERKNS_7IConfigE
FN:14267,14276,_ZN5Catch27enforceNoDuplicateTestCasesERKSt6vectorINS_8TestCaseESaIS1_EE
FN:14278,14288,_ZN5Catch11filterTestsERKSt6vectorINS_8TestCaseESaIS1_EERKNS_8TestSpecERKNS_7IConfigE
FN:14289,14291,_ZN5Catch21getAllTestCasesSortedERKNS_7IConfigE
FN:14293,14301,_ZN5Catch12TestRegistry12registerTestERKNS_8TestCaseE
FN:14303,14305,_ZNK5Catch12TestRegistry11getAllTestsEv
FN:14306,14315,_ZNK5Catch12TestRegistry17getAllTestsSortedERKNS_7IConfigE
FN:14318,14318,_ZN5Catch21TestInvokerAsFunctionC2EPFvvE
FN:14320,14322,_ZNK5Catch21TestInvokerAsFunction6invokeEv
FN:14324,14335,_ZN5Catch16extractClassNameB5cxx11ERKNS_9StringRefE
FN:14355,14358,_ZN5Catch16TestCaseTracking15NameAndLocationC2ERKNSt7__cxx1112basic_stringIcSt11char_traitsIcESaIcEEERKNS_14SourceLineInfoE
FN:14360,14360,_ZN5Catch16TestCaseTracking8ITrackerD0Ev
FN:14360,14360,_ZN5Catch16TestCaseTracking8ITrackerD2Ev
FN:14362,14367,_ZN5Catch16TestCaseTracking14TrackerContext8startRunEv
FN:14369,14373,_ZN5Catch16TestCaseTracking14TrackerContext6endRunEv
FN:14375,14378,_ZN5Catch16TestCaseTracking14TrackerContext10startCycleEv
FN:14379,14381,_ZN5Catch16TestCaseTracking14TrackerContext13completeCycleEv
FN:14383,14385,_ZNK5Catch16TestCaseTracking14TrackerContext14completedCycleEv
FN:14386,14388,_ZN5Catch16TestCaseTracking14TrackerContext14currentTrackerEv
FN:14389,14391,_ZN5Catch16TestCaseTracking14TrackerContext17setCurrentTrackerEPNS0_8ITrackerE
FN:14393,14397,_ZN5Catch16TestCaseTracking11TrackerBaseC2ERKNS0_15NameAndLocationERNS0_14TrackerContextEPNS0_8ITrackerE
FN:14399,14401,_ZNK5Catch16TestCaseTracking11TrackerBase10isCompleteEv
FN:14402,14404,_ZNK5Catch16TestCaseTracking11TrackerBase23isSuccessfullyCompletedEv
FN:14405,14407,_ZNK5Catch16TestCaseTracking11TrackerBase6isOpenEv
FN:14408,14410,_ZNK5Catch16TestCaseTracking11TrackerBase11hasChildrenEv
FN:14412,14414,_ZN5Catch16TestCaseTracking11TrackerBase8addChildERKSt10shared_ptrINS0_8ITrackerEE
FN:14416,14426,_ZN5Catch16TestCaseTracking11TrackerBase9findChildERKNS0_15NameAndLocationE
FN:14418,14422,_ZZN5Catch16TestCaseTracking11TrackerBase9findChildERKNS0_15NameAndLocationEENKUlRKSt10shared_ptrINS0_8ITrackerEEE_clES9_
FN:14427,14430,_ZN5Catch16TestCaseTracking11TrackerBase6parentEv
FN:14432,14438,_ZN5Catch16TestCaseTracking11TrackerBase9openChildEv
FN:14440,14440,_ZNK5Catch16TestCaseTracking11TrackerBase16isSectionTrackerEv
FN:14441,14441,_ZNK5Catch16TestCaseTracking11TrackerBase18isGeneratorTrackerEv
FN:14443,14448,_ZN5Catch16TestCaseTracking11TrackerBase4openEv
FN:14450,14478,_ZN5Catch16TestCaseTracking11TrackerBase5closeEv
FN:14464,14464,_ZZN5Catch16TestCaseTracking11TrackerBase5closeEvENKUlRKSt10shared_ptrINS0_8ITrackerEEE_clES6_
FN:14479,14485,_ZN5Catch16TestCaseTracking11TrackerBase4failEv
FN:1448,1451,_ZN5Catch20ReusableStringStreamlsIA12_cEERS0_RKT_
FN:1448,1451,_ZN5Catch20ReusableStringStreamlsIA13_cEERS0_RKT_
FN:1448,1451,_ZN5Catch20ReusableStringStreamlsIA15_cEERS0_RKT_
FN:1448,1451,_ZN5Catch20ReusableStringStreamlsIA16_cEERS0_RKT_
FN:1448,1451,_ZN5Catch20ReusableStringStreamlsIA17_cEERS0_RKT_
FN:1448,1451,_ZN5Catch20ReusableStringStreamlsIA18_cEERS0_RKT_
FN:1448,1451,_ZN5Catch20ReusableStringStreamlsIA19_cEERS0_RKT_
FN:1448,1451,_ZN5Catch20ReusableStringStreamlsIA1_cEERS0_RKT_
FN:1448,1451,_ZN5Catch20ReusableStringStreamlsIA20_cEERS0_RKT_
FN:1448,1451,_ZN5Catch20ReusableStringStreamlsIA21_cEERS0_RKT_
FN:1448,1451,_ZN5Catch20ReusableStringStreamlsIA22_cEERS0_RKT_
FN:1448,1451,_ZN5Catch20ReusableStringStreamlsIA23_cEERS0_RKT_
FN:1448,1451,_ZN5Catch20ReusableStringStreamlsIA25_cEERS0_RKT_
FN:1448,1451,_ZN5Catch20ReusableStringStreamlsIA26_cEERS0_RKT_
FN:1448,1451,_ZN5Catch20ReusableStringStreamlsIA27_cEERS0_RKT_
FN:1448,1451,_ZN5Catch20ReusableStringStreamlsIA2_cEERS0_RKT_
FN:1448,1451,_ZN5Catch20ReusableStringStreamlsIA31_cEERS0_RKT_
FN:1448,1451,_ZN5Catch20ReusableStringStreamlsIA32_cEERS0_RKT_
FN:1448,1451,_ZN5Catch20ReusableStringStreamlsIA36_cEERS0_RKT_
FN:1448,1451,_ZN5Catch20ReusableStringStreamlsIA37_cEERS0_RKT_
FN:1448,1451,_ZN5Catch20ReusableStringStreamlsIA3_cEERS0_RKT_
FN:1448,1451,_ZN5Catch20ReusableStringStreamlsIA40_cEERS0_RKT_
FN:1448,1451,_ZN5Catch20ReusableStringStreamlsIA44_cEERS0_RKT_
FN:1448,1451,_ZN5Catch20ReusableStringStreamlsIA47_cEERS0_RKT_
FN:1448,1451,_ZN5Catch20ReusableStringStreamlsIA4_cEERS0_RKT_
FN:1448,1451,_ZN5Catch20ReusableStringStreamlsIA53_cEERS0_RKT_
FN:1448,1451,_ZN5Catch20ReusableStringStreamlsIA57_cEERS0_RKT_
FN:1448,1451,_ZN5Catch20ReusableStringStreamlsIA59_cEERS0_RKT_
FN:1448,1451,_ZN5Catch20ReusableStringStreamlsIA5_cEERS0_RKT_
FN:1448,1451,_ZN5Catch20ReusableStringStreamlsIA60_cEERS0_RKT_
FN:1448,1451,_ZN5Catch20ReusableStringStreamlsIA66_cEERS0_RKT_
FN:1448,1451,_ZN5Catch20ReusableStringStreamlsIA7_cEERS0_RKT_
FN:1448,1451,_ZN5Catch20ReusableStringStreamlsIA8_cEERS0_RKT_
FN:1448,1451,_ZN5Catch20ReusableStringStreamlsIA9_cEERS0_RKT_
FN:1448,1451,_ZN5Catch20ReusableStringStreamlsIFRSt8ios_baseS3_EEERS0_RKT_
FN:1448,1451,_ZN5Catch20ReusableStringStreamlsINS_14LazyExpressionEEERS0_RKT_
FN:1448,1451,_ZN5Catch20ReusableStringStreamlsINS_14SourceLineInfoEEERS0_RKT_
FN:1448,1451,_ZN5Catch20ReusableStringStreamlsINS_16TestCaseTracking11TrackerBase10CycleStateEEERS0_RKT_
FN:1448,1451,_ZN5Catch20ReusableStringStreamlsINS_5clara8TextFlow6ColumnEEERS0_RKT_
FN:1448,1451,_ZN5Catch20ReusableStringStreamlsINS_9StringRefEEERS0_RKT_
FN:1448,1451,_ZN5Catch20ReusableStringStreamlsINSt7__cxx1112basic_stringIcSt11char_traitsIcESaIcEEEEERS0_RKT_
FN:1448,1451,_ZN5Catch20ReusableStringStreamlsIPKcEERS0_RKT_
FN:1448,1451,_ZN5Catch20ReusableStringStreamlsISt13_SetprecisionEERS0_RKT_
FN:1448,1451,_ZN5Catch20ReusableStringStreamlsISt5_SetwEERS0_RKT_
FN:1448,1451,_ZN5Catch20ReusableStringStreamlsISt8_SetfillIcEEERS0_RKT_
FN:1448,1451,_ZN5Catch20ReusableStringStreamlsIcEERS0_RKT_
FN:1448,1451,_ZN5Catch20ReusableStringStreamlsIdEERS0_RKT_
FN:1448,1451,_ZN5Catch20ReusableStringStreamlsIfEERS0_RKT_
FN:1448,1451,_ZN5Catch20ReusableStringStreamlsIjEERS0_RKT_
FN:1448,1451,_ZN5Catch20ReusableStringStreamlsImEERS0_RKT_
FN:1448,1451,_ZN5Catch20ReusableStringStreamlsIxEERS0_RKT_
FN:1448,1451,_ZN5Catch20ReusableStringStreamlsIyEERS0_RKT_
FN:14486,14488,_ZN5Catch16TestCaseTracking11TrackerBase23markAsNeedingAnotherRunEv
FN:14490,14493,_ZN5Catch16TestCaseTracking11TrackerBase12moveToParentEv
FN:14494,14496,_ZN5Catch16TestCaseTracking11TrackerBase10moveToThisEv
FN:14498,14509,_ZN5Catch16TestCaseTracking14SectionTrackerC2ERKNS0_15NameAndLocationERNS0_14TrackerContextEPNS0_8ITrackerE
FN:14511,14520,_ZNK5Catch16TestCaseTracking14SectionTracker10isCompleteEv
FN:1452,1452,_ZN5Catch20ReusableStringStream3getEv
FN:14522,14522,_ZNK5Catch16TestCaseTracking14SectionTracker16isSectionTrackerEv
FN:14524,14540,_ZN5Catch16TestCaseTracking14SectionTracker7acquireERNS0_14TrackerContextERKNS0_15NameAndLocationE
FN:14542,14545,_ZN5Catch16TestCaseTracking14SectionTracker7tryOpenEv
FN:14547,14554,_ZN5Catch16TestCaseTracking14SectionTracker17addInitialFiltersERKSt6vectorINSt7__cxx1112basic_stringIcSt11char_traitsIcESaIcEEESaIS8_EE
FN:14555,14558,_ZN5Catch16TestCaseTracking14SectionTracker14addNextFiltersERKSt6vectorINSt7__cxx1112basic_stringIcSt11char_traitsIcESaIcEEESaIS8_EE
FN:14560,14562,_ZNK5Catch16TestCaseTracking14SectionTracker10getFiltersB5cxx11Ev
FN:14564,14566,_ZNK5Catch16TestCaseTracking14SectionTracker11trimmedNameB5cxx11Ev
FN:14584,14586,_ZN5Catch15makeTestInvokerEPFvvE
FN:14588,14588,_ZN5Catch11NameAndTagsC2ERKNS_9StringRefES3_
FN:14590,14603,_ZN5Catch7AutoRegC2EPNS_12ITestInvokerERKNS_14SourceLineInfoERKNS_9StringRefERKNS_11NameAndTagsE
FN:14605,14605,_ZN5Catch7AutoRegD0Ev
FN:14605,14605,_ZN5Catch7AutoRegD2Ev
FN:14617,14619,_ZN5Catch8TestSpec7PatternC2ERKNSt7__cxx1112basic_stringIcSt11char_traitsIcESaIcEEE
FN:14621,14621,_ZN5Catch8TestSpec7PatternD0Ev
FN:14621,14621,_ZN5Catch8TestSpec7PatternD2Ev
FN:14623,14625,_ZNK5Catch8TestSpec7Pattern4nameB5cxx11Ev
FN:14627,14630,_ZN5Catch8TestSpec11NamePatternC2ERKNSt7__cxx1112basic_stringIcSt11char_traitsIcESaIcEEES9_
FN:14632,14634,_ZNK5Catch8TestSpec11NamePattern7matchesERKNS_12TestCaseInfoE
FN:14636,14639,_ZN5Catch8TestSpec10TagPatternC2ERKNSt7__cxx1112basic_stringIcSt11char_traitsIcESaIcEEES9_
FN:14641,14645,_ZNK5Catch8TestSpec10TagPattern7matchesERKNS_12TestCaseInfoE
FN:14647,14650,_ZN5Catch8TestSpec15ExcludedPatternC2ERKSt10shared_ptrINS0_7PatternEE
FN:14652,14654,_ZNK5Catch8TestSpec15ExcludedPattern7matchesERKNS_12TestCaseInfoE
FN:14656,14658,_ZNK5Catch8TestSpec6Filter7matchesERKNS_12TestCaseInfoE
FN:14657,14657,_ZZNK5Catch8TestSpec6Filter7matchesERKNS_12TestCaseInfoEENKUlRKSt10shared_ptrINS0_7PatternEEE_clES9_
FN:14660,14665,_ZNK5Catch8TestSpec6Filter4nameB5cxx11Ev
FN:14667,14669,_ZNK5Catch8TestSpec10hasFiltersEv
FN:14671,14673,_ZNK5Catch8TestSpec7matchesERKNS_12TestCaseInfoE
FN:14672,14672,_ZZNK5Catch8TestSpec7matchesERKNS_12TestCaseInfoEENKUlRKNS0_6FilterEE_clES6_
FN:14675,14686,_ZNK5Catch8TestSpec15matchesByFilterERKSt6vectorINS_8TestCaseESaIS2_EERKNS_7IConfigE
FN:14678,14684,_ZZNK5Catch8TestSpec15matchesByFilterERKSt6vectorINS_8TestCaseESaIS2_EERKNS_7IConfigEENKUlRKNS0_6FilterEE_clESC_
FN:14688,14690,_ZNK5Catch8TestSpec14getInvalidArgsB5cxx11Ev
FN:14698,14698,_ZN5Catch14TestSpecParserC2ERKNS_17ITagAliasRegistryE
FN:14700,14717,_ZN5Catch14TestSpecParser5parseERKNSt7__cxx1112basic_stringIcSt11char_traitsIcESaIcEEE
FN:14718,14721,_ZN5Catch14TestSpecParser8testSpecEv
FN:14722,14757,_ZN5Catch14TestSpecParser9visitCharEc
FN:14760,14777,_ZN5Catch14TestSpecParser15processNoneCharEc
FN:14778,14786,_ZN5Catch14TestSpecParser15processNameCharEc
FN:14787,14793,_ZN5Catch14TestSpecParser16processOtherCharEc
FN:14794,14796,_ZN5Catch14TestSpecParser12startNewModeENS0_4ModeE
FN:14797,14811,_ZN5Catch14TestSpecParser7endModeEv
FN:14812,14816,_ZN5Catch14TestSpecParser6escapeEv
FN:14817,14832,_ZNK5Catch14TestSpecParser13isControlCharEc
FN:14834,14839,_ZN5Catch14TestSpecParser9addFilterEv
FN:14841,14843,_ZN5Catch14TestSpecParser12saveLastModeEv
FN:14845,14847,_ZN5Catch14TestSpecParser20revertBackToLastModeEv
FN:14849,14862,_ZN5Catch14TestSpecParser8separateEv
FN:14864,14878,_ZN5Catch14TestSpecParser17preprocessPatternB5cxx11Ev
FN:14880,14892,_ZN5Catch14TestSpecParser14addNamePatternEv
FN:14894,14919,_ZN5Catch14TestSpecParser13addTagPatternEv
FN:14921,14923,_ZN5Catch13parseTestSpecERKNSt7__cxx1112basic_stringIcSt11char_traitsIcESaIcEEE
FN:14935,14937,_ZN5Catch31getCurrentNanosecondsSinceEpochEv
FN:14940,14968,_ZN5Catch12_GLOBAL__N_123estimateClockResolutionEv
FN:14970,14973,_ZN5Catch27getEstimatedClockResolutionEv
FN:14975,14977,_ZN5Catch5Timer5startEv
FN:14978,14980,_ZNK5Catch5Timer21getElapsedNanosecondsEv
FN:14981,14983,_ZNK5Catch5Timer22getElapsedMicrosecondsEv
FN:14984,14986,_ZNK5Catch5Timer22getElapsedMillisecondsEv
FN:14987,14989,_ZNK5Catch5Timer17getElapsedSecondsEv
FN:15021,15027,_ZN5Catch6Detail12_GLOBAL__N_110Endianness5whichEv
FN:15031,15045,_ZN5Catch6Detail17rawMemoryToStringB5cxx11EPKvm
FN:15049,15066,_ZN5Catch10fpToStringIdEENSt7__cxx1112basic_stringIcSt11char_traitsIcESaIcEEET_i
FN:15049,15066,_ZN5Catch10fpToStringIfEENSt7__cxx1112basic_stringIcSt11char_traitsIcESaIcEEET_i
FN:15074,15095,_ZN5Catch11StringMakerINSt7__cxx1112basic_stringIcSt11char_traitsIcESaIcEEEvE7convertERKS6_
FN:15103,15109,_ZN5Catch11StringMakerIPKcvE7convertB5cxx11ES2_
FN:15110,15116,_ZN5Catch11StringMakerIPcvE7convertB5cxx11ES1_
FN:15119,15126,_ZN5Catch11StringMakerINSt7__cxx1112basic_stringIwSt11char_traitsIwESaIwEEEvE7convertERKS6_
FN:15134,15140,_ZN5Catch11StringMakerIPKwvE7convertB5cxx11ES2_
FN:15141,15147,_ZN5Catch11StringMakerIPwvE7convertB5cxx11ES1_
FN:15157,15159,_ZN5Catch11StringMakerIivE7convertB5cxx11Ei
FN:15160,15162,_ZN5Catch11StringMakerIlvE7convertB5cxx11El
FN:15163,15170,_ZN5Catch11StringMakerIxvE7convertB5cxx11Ex
FN:15172,15174,_ZN5Catch11StringMakerIjvE7convertB5cxx11Ej
FN:15175,15177,_ZN5Catch11StringMakerImvE7convertB5cxx11Em
FN:15178,15185,_ZN5Catch11StringMakerIyvE7convertB5cxx11Ey
FN:15187,15189,_ZN5Catch11StringMakerIbvE7convertB5cxx11Eb
FN:15191,15207,_ZN5Catch11StringMakerIavE7convertB5cxx11Ea
FN:15208,15210,_ZN5Catch11StringMakerIcvE7convertB5cxx11Ec
FN:15211,15213,_ZN5Catch11StringMakerIhvE7convertB5cxx11Eh
FN:15215,15217,_ZN5Catch11StringMakerIDnvE7convertB5cxx11EDn
FN:15221,15223,_ZN5Catch11StringMakerIfvE7convertB5cxx11Ef
FN:15227,15229,_ZN5Catch11StringMakerIdvE7convertB5cxx11Ed
FN:15231,15231,_ZN5Catch12ratio_stringISt5ratioILl1ELl1000000000000000000EEE6symbolB5cxx11Ev
FN:15232,15232,_ZN5Catch12ratio_stringISt5ratioILl1ELl1000000000000000EEE6symbolB5cxx11Ev
FN:15233,15233,_ZN5Catch12ratio_stringISt5ratioILl1ELl1000000000000EEE6symbolB5cxx11Ev
FN:15234,15234,_ZN5Catch12ratio_stringISt5ratioILl1ELl1000000000EEE6symbolB5cxx11Ev
FN:15235,15235,_ZN5Catch12ratio_stringISt5ratioILl1ELl1000000EEE6symbolB5cxx11Ev
FN:15236,15236,_ZN5Catch12ratio_stringISt5ratioILl1ELl1000EEE6symbolB5cxx11Ev
FN:15249,15255,_ZNK5Catch6CountsmiERKS0_
FN:15257,15262,_ZN5Catch6CountspLERKS0_
FN:15264,15266,_ZNK5Catch6Counts5totalEv
FN:15267,15269,_ZNK5Catch6Counts9allPassedEv
FN:15270,15272,_ZNK5Catch6Counts5allOkEv
FN:15274,15279,_ZNK5Catch6TotalsmiERKS0_
FN:15281,15285,_ZN5Catch6TotalspLERKS0_
FN:15287,15296,_ZNK5Catch6Totals5deltaERKS0_
FN:15340,15348,_ZN5Catch19uncaught_exceptionsEv
FN:15357,15368,_ZN5Catch7VersionC2EjjjPKcj
FN:15370,15380,_ZN5CatchlsERSoRKNS_7VersionE
FN:15382,15385,_ZN5Catch14libraryVersionEv
FN:15393,15406,_ZN5Catch15WildcardPatternC2ERKNSt7__cxx1112basic_stringIcSt11char_traitsIcESaIcEEENS_13CaseSensitive6ChoiceE
FN:15408,15421,_ZNK5Catch15WildcardPattern7matchesERKNSt7__cxx1112basic_stringIcSt11char_traitsIcESaIcEEE
FN:15423,15425,_ZNK5Catch15WildcardPattern15normaliseStringERKNSt7__cxx1112basic_stringIcSt11char_traitsIcESaIcEEE
FN:15437,15448,_ZN5Catch12_GLOBAL__N_113trailingBytesEh
FN:15450,15461,_ZN5Catch12_GLOBAL__N_111headerValueEh
FN:15463,15469,_ZN5Catch12_GLOBAL__N_113hexEscapeCharERSoh
FN:15471,15473,_ZN5Catch12_GLOBAL__N_113shouldNewlineENS_13XmlFormattingE
FN:15475,15477,_ZN5Catch12_GLOBAL__N_112shouldIndentENS_13XmlFormattingE
FN:15481,15486,_ZN5CatchorENS_13XmlFormattingES0_
FN:15488,15493,_ZN5CatchanENS_13XmlFormattingES0_
FN:15495,15498,_ZN5Catch9XmlEncodeC2ERKNSt7__cxx1112basic_stringIcSt11char_traitsIcESaIcEEENS0_7ForWhatE
FN:15500,15592,_ZNK5Catch9XmlEncode8encodeToERSo
FN:15594,15597,_ZN5CatchlsERSoRKNS_9XmlEncodeE
FN:15599,15602,_ZN5Catch9XmlWriter13ScopedElementC2EPS0_NS_13XmlFormattingE
FN:15604,15610,_ZN5Catch9XmlWriter13ScopedElementC2EOS1_
FN:15611,15620,_ZN5Catch9XmlWriter13ScopedElementaSEOS1_
FN:15622,15626,_ZN5Catch9XmlWriter13ScopedElementD2Ev
FN:15628,15631,_ZN5Catch9XmlWriter13ScopedElement9writeTextERKNSt7__cxx1112basic_stringIcSt11char_traitsIcESaIcEEENS_13XmlFormattingE
FN:15633,15636,_ZN5Catch9XmlWriterC2ERSo
FN:15638,15643,_ZN5Catch9XmlWriterD2Ev
FN:15645,15657,_ZN5Catch9XmlWriter12startElementERKNSt7__cxx1112basic_stringIcSt11char_traitsIcESaIcEEENS_13XmlFormattingE
FN:15659,15663,_ZN5Catch9XmlWriter13scopedElementERKNSt7__cxx1112basic_stringIcSt11char_traitsIcESaIcEEENS_13XmlFormattingE
FN:15665,15682,_ZN5Catch9XmlWriter10endElementENS_13XmlFormattingE
FN:15684,15688,_ZN5Catch9XmlWriter14writeAttributeERKNSt7__cxx1112basic_stringIcSt11char_traitsIcESaIcEEES8_
FN:15690,15693,_ZN5Catch9XmlWriter14writeAttributeERKNSt7__cxx1112basic_stringIcSt11char_traitsIcESaIcEEEb
FN:15695,15706,_ZN5Catch9XmlWriter9writeTextERKNSt7__cxx1112basic_stringIcSt11char_traitsIcESaIcEEENS_13XmlFormattingE
FN:15708,15716,_ZN5Catch9XmlWriter12writeCommentERKNSt7__cxx1112basic_stringIcSt11char_traitsIcESaIcEEENS_13XmlFormattingE
FN:15718,15720,_ZN5Catch9XmlWriter18writeStylesheetRefERKNSt7__cxx1112basic_stringIcSt11char_traitsIcESaIcEEE
FN:15722,15726,_ZN5Catch9XmlWriter14writeBlankLineEv
FN:15728,15734,_ZN5Catch9XmlWriter15ensureTagClosedEv
FN:15736,15738,_ZN5Catch9XmlWriter15applyFormattingENS_13XmlFormattingE
FN:15740,15742,_ZN5Catch9XmlWriter16writeDeclarationEv
FN:15744,15749,_ZN5Catch9XmlWriter18newlineIfNecessaryEv
FN:15761,15763,_ZN5Catch25prepareExpandedExpressionERNS_15AssertionResultE
FN:15767,15783,_ZN5Catch20getFormattedDurationB5cxx11Ed
FN:15785,15794,_ZN5Catch18shouldShowDurationERKNS_7IConfigEd
FN:15796,15809,_ZN5Catch16serializeFiltersERKSt6vectorINSt7__cxx1112basic_stringIcSt11char_traitsIcESaIcEEESaIS6_EE
FN:1580,1582,_ZN5Catch6Detail19convertUnstreamableI4dateEENSt9enable_ifIXaantsrSt7is_enumIT_E5valuentsrSt10is_base_ofISt9exceptionS5_E5valueENSt7__cxx1112basic_stringIcSt11char_traitsIcESaIcEEEE4typeERKS5_
FN:15811,15812,_ZN5Catch21TestEventListenerBaseC2ERKNS_14ReporterConfigE
FN:15814,15816,_ZN5Catch21TestEventListenerBase23getSupportedVerbositiesEv
FN:15818,15818,_ZN5Catch21TestEventListenerBase17assertionStartingERKNS_13AssertionInfoE
FN:15820,15822,_ZN5Catch21TestEventListenerBase14assertionEndedERKNS_14AssertionStatsE
FN:15834,15834,_ZN12_GLOBAL__N_112failedStringEv
FN:15835,15835,_ZN12_GLOBAL__N_112passedStringEv
FN:15839,15839,_ZN12_GLOBAL__N_19dimColourEv
FN:15841,15844,_ZN12_GLOBAL__N_19bothOrAllEm
FN:15856,15886,_ZN5Catch12_GLOBAL__N_111printTotalsERSoRKNS_6TotalsE
FN:15893,15898,_ZN5Catch12_GLOBAL__N_116AssertionPrinterC2ERSoRKNS_14AssertionStatsEb
FN:15900,15966,_ZN5Catch12_GLOBAL__N_116AssertionPrinter5printEv
FN:15969,15972,_ZNK5Catch12_GLOBAL__N_116AssertionPrinter15printSourceInfoEv
FN:15974,15982,_ZNK5Catch12_GLOBAL__N_116AssertionPrinter15printResultTypeENS_6Colour4CodeERKNSt7__cxx1112basic_stringIcSt11char_traitsIcESaIcEEE
FN:15984,15986,_ZNK5Catch12_GLOBAL__N_116AssertionPrinter10printIssueERKNSt7__cxx1112basic_stringIcSt11char_traitsIcESaIcEEE
FN:15988,15997,_ZN5Catch12_GLOBAL__N_116AssertionPrinter18printExpressionWasEv
FN:15999,16003,_ZNK5Catch12_GLOBAL__N_116AssertionPrinter23printOriginalExpressionEv
FN:16005,16013,_ZNK5Catch12_GLOBAL__N_116AssertionPrinter28printReconstructedExpressionEv
FN:16015,16020,_ZN5Catch12_GLOBAL__N_116AssertionPrinter12printMessageEv
FN:16022,16046,_ZN5Catch12_GLOBAL__N_116AssertionPrinter22printRemainingMessagesENS_6Colour4CodeE
FN:16058,16060,_ZN5Catch15CompactReporter14getDescriptionB5cxx11Ev
FN:16062,16064,_ZN5Catch15CompactReporter19noMatchingTestCasesERKNSt7__cxx1112basic_stringIcSt11char_traitsIcESaIcEEE
FN:16066,16066,_ZN5Catch15CompactReporter17assertionStartingERKNS_13AssertionInfoE
FN:16068,16085,_ZN5Catch15CompactReporter14assertionEndedERKNS_14AssertionStatsE
FN:16087,16092,_ZN5Catch15CompactReporter12sectionEndedERKNS_12SectionStatsE
FN:16094,16098,_ZN5Catch15CompactReporter12testRunEndedERKNS_12TestRunStatsE
FN:16100,16100,_ZN5Catch15CompactReporterD0Ev
FN:16100,16100,_ZN5Catch15CompactReporterD2Ev
FN:16132,16204,_ZN5Catch12_GLOBAL__N_123ConsoleAssertionPrinterC2ERSoRKNS_14AssertionStatsEb
FN:1617,1623,_ZN5Catch11StringMakerINS_14SourceLineInfoEvE7convertIS1_EENSt9enable_ifIXsrNS_6Detail18IsStreamInsertableIT_EE5valueENSt7__cxx1112basic_stringIcSt11char_traitsIcESaIcEEEE4typeERKS7_
FN:16206,16216,_ZNK5Catch12_GLOBAL__N_123ConsoleAssertionPrinter5printEv
FN:16219,16224,_ZNK5Catch12_GLOBAL__N_123ConsoleAssertionPrinter15printResultTypeEv
FN:16225,16232,_ZNK5Catch12_GLOBAL__N_123ConsoleAssertionPrinter23printOriginalExpressionEv
FN:16233,16239,_ZNK5Catch12_GLOBAL__N_123ConsoleAssertionPrinter28printReconstructedExpressionEv
FN:16240,16248,_ZNK5Catch12_GLOBAL__N_123ConsoleAssertionPrinter12printMessageEv
FN:16249,16252,_ZNK5Catch12_GLOBAL__N_123ConsoleAssertionPrinter15printSourceInfoEv
FN:16265,16268,_ZN5Catch12_GLOBAL__N_19makeRatioEmm
FN:16270,16277,_ZN5Catch12_GLOBAL__N_17findMaxERmS1_S1_
FN:1628,1634,_ZN5Catch11StringMakerI4datevE7convertIS1_EENSt9enable_ifIXntsrNS_6Detail18IsStreamInsertableIT_EE5valueENSt7__cxx1112basic_stringIcSt11char_traitsIcESaIcEEEE4typeERKS7_
FN:16369,16371,_ZN5Catch12TablePrinterC2ERSoSt6vectorINS_12_GLOBAL__N_110ColumnInfoESaIS4_EE
FN:16393,16399,_ZN5Catch12TablePrinter5closeEv
FN:1642,1644,_ZN5Catch6Detail9stringifyI4dateEENSt7__cxx1112basic_stringIcSt11char_traitsIcESaIcEEERKT_
FN:1642,1644,_ZN5Catch6Detail9stringifyIA10_cEENSt7__cxx1112basic_stringIcSt11char_traitsIcESaIcEEERKT_
FN:1642,1644,_ZN5Catch6Detail9stringifyIA11_cEENSt7__cxx1112basic_stringIcSt11char_traitsIcESaIcEEERKT_
FN:1642,1644,_ZN5Catch6Detail9stringifyIA14_cEENSt7__cxx1112basic_stringIcSt11char_traitsIcESaIcEEERKT_
FN:1642,1644,_ZN5Catch6Detail9stringifyIA15_cEENSt7__cxx1112basic_stringIcSt11char_traitsIcESaIcEEERKT_
FN:1642,1644,_ZN5Catch6Detail9stringifyIA2_cEENSt7__cxx1112basic_stringIcSt11char_traitsIcESaIcEEERKT_
FN:1642,1644,_ZN5Catch6Detail9stringifyIA5_cEENSt7__cxx1112basic_stringIcSt11char_traitsIcESaIcEEERKT_
FN:1642,1644,_ZN5Catch6Detail9stringifyINS_14SourceLineInfoEEENSt7__cxx1112basic_stringIcSt11char_traitsIcESaIcEEERKT_
FN:1642,1644,_ZN5Catch6Detail9stringifyINSt7__cxx1112basic_stringIcSt11char_traitsIcESaIcEEEEES7_RKT_
FN:1642,1644,_ZN5Catch6Detail9stringifyINSt7__cxx1112basic_stringIwSt11char_traitsIwESaIwEEEEENS3_IcS4_IcESaIcEEERKT_
FN:1642,1644,_ZN5Catch6Detail9stringifyIPcEENSt7__cxx1112basic_stringIcSt11char_traitsIcESaIcEEERKT_
FN:1642,1644,_ZN5Catch6Detail9stringifyIaEENSt7__cxx1112basic_stringIcSt11char_traitsIcESaIcEEERKT_
FN:1642,1644,_ZN5Catch6Detail9stringifyIbEENSt7__cxx1112basic_stringIcSt11char_traitsIcESaIcEEERKT_
FN:1642,1644,_ZN5Catch6Detail9stringifyIcEENSt7__cxx1112basic_stringIcSt11char_traitsIcESaIcEEERKT_
FN:1642,1644,_ZN5Catch6Detail9stringifyIdEENSt7__cxx1112basic_stringIcSt11char_traitsIcESaIcEEERKT_
FN:1642,1644,_ZN5Catch6Detail9stringifyIiEENSt7__cxx1112basic_stringIcSt11char_traitsIcESaIcEEERKT_
FN:1642,1644,_ZN5Catch6Detail9stringifyIjEENSt7__cxx1112basic_stringIcSt11char_traitsIcESaIcEEERKT_
FN:1642,1644,_ZN5Catch6Detail9stringifyImEENSt7__cxx1112basic_stringIcSt11char_traitsIcESaIcEEERKT_
FN:1642,1644,_ZN5Catch6Detail9stringifyIxEENSt7__cxx1112basic_stringIcSt11char_traitsIcESaIcEEERKT_
FN:1642,1644,_ZN5Catch6Detail9stringifyIyEENSt7__cxx1112basic_stringIcSt11char_traitsIcESaIcEEERKT_
FN:16429,16435,_ZN5CatchlsERNS_12TablePrinterENS_12_GLOBAL__N_18RowBreakE
FN:16438,16460,_ZN5Catch15ConsoleReporterC2ERKNS_14ReporterConfigE
FN:16441,16460,_ZZN5Catch15ConsoleReporterC4ERKNS_14ReporterConfigEENKUlvE_clEv
FN:16461,16461,_ZN5Catch15ConsoleReporterD0Ev
FN:16461,16461,_ZN5Catch15ConsoleReporterD2Ev
FN:16463,16465,_ZN5Catch15ConsoleReporter14getDescriptionB5cxx11Ev
FN:16467,16469,_ZN5Catch15ConsoleReporter19noMatchingTestCasesERKNSt7__cxx1112basic_stringIcSt11char_traitsIcESaIcEEE
FN:16471,16473,_ZN5Catch15ConsoleReporter22reportInvalidArgumentsERKNSt7__cxx1112basic_stringIcSt11char_traitsIcESaIcEEE
FN:16475,16475,_ZN5Catch15ConsoleReporter17assertionStartingERKNS_13AssertionInfoE
FN:16477,16492,_ZN5Catch15ConsoleReporter14assertionEndedERKNS_14AssertionStatsE
FN:16494,16498,_ZN5Catch15ConsoleReporter15sectionStartingERKNS_11SectionInfoE
FN:16499,16518,_ZN5Catch15ConsoleReporter12sectionEndedERKNS_12SectionStatsE
FN:16568,16572,_ZN5Catch15ConsoleReporter13testCaseEndedERKNS_13TestCaseStatsE
FN:16573,16581,_ZN5Catch15ConsoleReporter14testGroupEndedERKNS_14TestGroupStatsE
FN:16582,16587,_ZN5Catch15ConsoleReporter12testRunEndedERKNS_12TestRunStatsE
FN:16588,16591,_ZN5Catch15ConsoleReporter15testRunStartingERKNS_11TestRunInfoE
FN:16593,16597,_ZN5Catch15ConsoleReporter9lazyPrintEv
FN:16599,16610,_ZN5Catch15ConsoleReporter37lazyPrintWithoutClosingBenchmarkTableEv
FN:16611,16622,_ZN5Catch15ConsoleReporter16lazyPrintRunInfoEv
FN:16623,16628,_ZN5Catch15ConsoleReporter18lazyPrintGroupInfoEv
FN:16629,16649,_ZN5Catch15ConsoleReporter29printTestCaseAndSectionHeaderEv
FN:16651,16654,_ZN5Catch15ConsoleReporter17printClosedHeaderERKNSt7__cxx1112basic_stringIcSt11char_traitsIcESaIcEEE
FN:16655,16661,_ZN5Catch15ConsoleReporter15printOpenHeaderERKNSt7__cxx1112basic_stringIcSt11char_traitsIcESaIcEEE
FN:16665,16672,_ZN5Catch15ConsoleReporter17printHeaderStringERKNSt7__cxx1112basic_stringIcSt11char_traitsIcESaIcEEEm
FN:16676,16678,_ZN5Catch13SummaryColumnC2ENSt7__cxx1112basic_stringIcSt11char_traitsIcESaIcEEENS_6Colour4CodeE
FN:16679,16691,_ZN5Catch13SummaryColumn6addRowEm
FN:16699,16727,_ZN5Catch15ConsoleReporter11printTotalsERKNS_6TotalsE
FN:16728,16744,_ZN5Catch15ConsoleReporter15printSummaryRowERKNSt7__cxx1112basic_stringIcSt11char_traitsIcESaIcEEERKSt6vectorINS_13SummaryColumnESaISA_EEm
FN:16746,16766,_ZN5Catch15ConsoleReporter18printTotalsDividerERKNS_6TotalsE
FN:16767,16769,_ZN5Catch15ConsoleReporter19printSummaryDividerEv
FN:16771,16776,_ZN5Catch15ConsoleReporter16printTestFiltersEv
FN:16801,16825,_ZN5Catch12_GLOBAL__N_119getCurrentTimestampEv
FN:16827,16834,_ZN5Catch12_GLOBAL__N_111fileNameTagERKSt6vectorINSt7__cxx1112basic_stringIcSt11char_traitsIcESaIcEEESaIS7_EE
FN:16830,16830,_ZZN5Catch12_GLOBAL__N_111fileNameTagERKSt6vectorINSt7__cxx1112basic_stringIcSt11char_traitsIcESaIcEEESaIS7_EEENKUlRKS7_E_clESD_
FN:16840,16844,_ZN5Catch12_GLOBAL__N_114formatDurationEd
FN:16848,16854,_ZN5Catch13JunitReporterC2ERKNS_14ReporterConfigE
FN:16856,16856,_ZN5Catch13JunitReporterD0Ev
FN:16856,16856,_ZN5Catch13JunitReporterD2Ev
FN:16858,16860,_ZN5Catch13JunitReporter14getDescriptionB5cxx11Ev
FN:16862,16862,_ZN5Catch13JunitReporter19noMatchingTestCasesERKNSt7__cxx1112basic_stringIcSt11char_traitsIcESaIcEEE
FN:16864,16867,_ZN5Catch13JunitReporter15testRunStartingERKNS_11TestRunInfoE
FN:16869,16875,_ZN5Catch13JunitReporter17testGroupStartingERKNS_9GroupInfoE
FN:16877,16879,_ZN5Catch13JunitReporter16testCaseStartingERKNS_12TestCaseInfoE
FN:16881,16885,_ZN5Catch13JunitReporter14assertionEndedERKNS_14AssertionStatsE
FN:16887,16891,_ZN5Catch13JunitReporter13testCaseEndedERKNS_13TestCaseStatsE
FN:16893,16897,_ZN5Catch13JunitReporter14testGroupEndedERKNS_14TestGroupStatsE
FN:16899,16901,_ZN5Catch13JunitReporter22testRunEndedCumulativeEv
FN:16903,16939,_ZN5Catch13JunitReporter10writeGroupERKNS_22CumulativeReporterBaseIS0_E4NodeINS_14TestGroupStatsENS3_INS_13TestCaseStatsENS2_11SectionNodeEEEEEd
FN:16941,16961,_ZN5Catch13JunitReporter13writeTestCaseERKNS_22CumulativeReporterBaseIS0_E4NodeINS_13TestCaseStatsENS2_11SectionNodeEEE
FN:16963,17007,_ZN5Catch13JunitReporter12writeSectionERKNSt7__cxx1112basic_stringIcSt11char_traitsIcESaIcEEES8_RKNS_22CumulativeReporterBaseIS0_E11SectionNodeEb
FN:17009,17012,_ZN5Catch13JunitReporter15writeAssertionsERKNS_22CumulativeReporterBaseIS0_E11SectionNodeE
FN:17014,17070,_ZN5Catch13JunitReporter14writeAssertionERKNS_14AssertionStatsE
FN:17082,17085,_ZN5Catch17ListeningReporterC2Ev
FN:17087,17089,_ZN5Catch17ListeningReporter11addListenerEOSt10unique_ptrINS_18IStreamingReporterESt14default_deleteIS2_EE
FN:17091,17095,_ZN5Catch17ListeningReporter11addReporterEOSt10unique_ptrINS_18IStreamingReporterESt14default_deleteIS2_EE
FN:17097,17099,_ZNK5Catch17ListeningReporter14getPreferencesEv
FN:1710,1712,_ZN5Catch11StringMakerIA10_cvE7convertB5cxx11EPKc
FN:1710,1712,_ZN5Catch11StringMakerIA11_cvE7convertB5cxx11EPKc
FN:1710,1712,_ZN5Catch11StringMakerIA14_cvE7convertB5cxx11EPKc
FN:1710,1712,_ZN5Catch11StringMakerIA15_cvE7convertB5cxx11EPKc
FN:1710,1712,_ZN5Catch11StringMakerIA2_cvE7convertB5cxx11EPKc
FN:1710,1712,_ZN5Catch11StringMakerIA5_cvE7convertB5cxx11EPKc
FN:17101,17103,_ZN5Catch17ListeningReporter23getSupportedVerbositiesEv
FN:17105,17110,_ZN5Catch17ListeningReporter19noMatchingTestCasesERKNSt7__cxx1112basic_stringIcSt11char_traitsIcESaIcEEE
FN:17112,17117,_ZN5Catch17ListeningReporter22reportInvalidArgumentsERKNSt7__cxx1112basic_stringIcSt11char_traitsIcESaIcEEE
FN:17147,17152,_ZN5Catch17ListeningReporter15testRunStartingERKNS_11TestRunInfoE
FN:17154,17159,_ZN5Catch17ListeningReporter17testGroupStartingERKNS_9GroupInfoE
FN:17161,17166,_ZN5Catch17ListeningReporter16testCaseStartingERKNS_12TestCaseInfoE
FN:17168,17173,_ZN5Catch17ListeningReporter15sectionStartingERKNS_11SectionInfoE
FN:17175,17180,_ZN5Catch17ListeningReporter17assertionStartingERKNS_13AssertionInfoE
FN:17183,17188,_ZN5Catch17ListeningReporter14assertionEndedERKNS_14AssertionStatsE
FN:17190,17195,_ZN5Catch17ListeningReporter12sectionEndedERKNS_12SectionStatsE
FN:17197,17202,_ZN5Catch17ListeningReporter13testCaseEndedERKNS_13TestCaseStatsE
FN:17204,17209,_ZN5Catch17ListeningReporter14testGroupEndedERKNS_14TestGroupStatsE
FN:17211,17216,_ZN5Catch17ListeningReporter12testRunEndedERKNS_12TestRunStatsE
FN:17218,17223,_ZN5Catch17ListeningReporter8skipTestERKNS_12TestCaseInfoE
FN:17225,17227,_ZNK5Catch17ListeningReporter7isMultiEv
FN:17241,17247,_ZN5Catch11XmlReporterC2ERKNS_14ReporterConfigE
FN:17249,17249,_ZN5Catch11XmlReporterD0Ev
FN:17249,17249,_ZN5Catch11XmlReporterD2Ev
FN:17251,17253,_ZN5Catch11XmlReporter14getDescriptionB5cxx11Ev
FN:17255,17257,_ZNK5Catch11XmlReporter16getStylesheetRefB5cxx11Ev
FN:17259,17263,_ZN5Catch11XmlReporter15writeSourceInfoERKNS_14SourceLineInfoE
FN:17265,17267,_ZN5Catch11XmlReporter19noMatchingTestCasesERKNSt7__cxx1112basic_stringIcSt11char_traitsIcESaIcEEE
FN:17269,17282,_ZN5Catch11XmlReporter15testRunStartingERKNS_11TestRunInfoE
FN:17284,17288,_ZN5Catch11XmlReporter17testGroupStartingERKNS_9GroupInfoE
FN:17290,17302,_ZN5Catch11XmlReporter16testCaseStartingERKNS_12TestCaseInfoE
FN:17304,17312,_ZN5Catch11XmlReporter15sectionStartingERKNS_11SectionInfoE
FN:17314,17314,_ZN5Catch11XmlReporter17assertionStartingERKNS_13AssertionInfoE
FN:17316,17388,_ZN5Catch11XmlReporter14assertionEndedERKNS_14AssertionStatsE
FN:17390,17403,_ZN5Catch11XmlReporter12sectionEndedERKNS_12SectionStatsE
FN:17405,17419,_ZN5Catch11XmlReporter13testCaseEndedERKNS_13TestCaseStatsE
FN:17421,17433,_ZN5Catch11XmlReporter14testGroupEndedERKNS_14TestGroupStatsE
FN:17435,17446,_ZN5Catch11XmlReporter12testRunEndedERKNS_12TestRunStatsE
FN:17523,17527,main
FN:2201,2201,_ZNK5Catch20ITransientExpression18isBinaryExpressionEv
FN:2202,2202,_ZNK5Catch20ITransientExpression9getResultEv
FN:2205,2208,_ZN5Catch20ITransientExpressionC2Ebb
FN:2227,2230,_ZNK5Catch10BinaryExprIRK4dateS3_E29streamReconstructedExpressionERSo
FN:2227,2230,_ZNK5Catch10BinaryExprIRKNSt7__cxx1112basic_stringIcSt11char_traitsIcESaIcEEERA10_KcE29streamReconstructedExpressionERSo
FN:2227,2230,_ZNK5Catch10BinaryExprIRKNSt7__cxx1112basic_stringIcSt11char_traitsIcESaIcEEERA11_KcE29streamReconstructedExpressionERSo
FN:2227,2230,_ZNK5Catch10BinaryExprIRKNSt7__cxx1112basic_stringIcSt11char_traitsIcESaIcEEERA14_KcE29streamReconstructedExpressionERSo
FN:2227,2230,_ZNK5Catch10BinaryExprIRKNSt7__cxx1112basic_stringIcSt11char_traitsIcESaIcEEERA15_KcE29streamReconstructedExpressionERSo
FN:2227,2230,_ZNK5Catch10BinaryExprIRKNSt7__cxx1112basic_stringIcSt11char_traitsIcESaIcEEERA2_KcE29streamReconstructedExpressionERSo
FN:2227,2230,_ZNK5Catch10BinaryExprIRKNSt7__cxx1112basic_stringIcSt11char_traitsIcESaIcEEERA5_KcE29streamReconstructedExpressionERSo
FN:2227,2230,_ZNK5Catch10BinaryExprIRKNSt7__cxx1112basic_stringIcSt11char_traitsIcESaIcEEES8_E29streamReconstructedExpressionERSo
FN:2227,2230,_ZNK5Catch10BinaryExprIRKPcRKNSt7__cxx1112basic_stringIcSt11char_traitsIcESaIcEEEE29streamReconstructedExpressionERSo
FN:2227,2230,_ZNK5Catch10BinaryExprIRKiS2_E29streamReconstructedExpressionERSo
FN:2227,2230,_ZNK5Catch10BinaryExprIRKmS2_E29streamReconstructedExpressionERSo
FN:2227,2230,_ZNK5Catch10BinaryExprIbbE29streamReconstructedExpressionERSo
FN:2233,2238,_ZN5Catch10BinaryExprIRK4dateS3_EC2EbS3_NS_9StringRefES3_
FN:2233,2238,_ZN5Catch10BinaryExprIRKNSt7__cxx1112basic_stringIcSt11char_traitsIcESaIcEEERA10_KcEC2EbS8_NS_9StringRefESB_
FN:2233,2238,_ZN5Catch10BinaryExprIRKNSt7__cxx1112basic_stringIcSt11char_traitsIcESaIcEEERA11_KcEC2EbS8_NS_9StringRefESB_
FN:2233,2238,_ZN5Catch10BinaryExprIRKNSt7__cxx1112basic_stringIcSt11char_traitsIcESaIcEEERA14_KcEC2EbS8_NS_9StringRefESB_
FN:2233,2238,_ZN5Catch10BinaryExprIRKNSt7__cxx1112basic_stringIcSt11char_traitsIcESaIcEEERA15_KcEC2EbS8_NS_9StringRefESB_
FN:2233,2238,_ZN5Catch10BinaryExprIRKNSt7__cxx1112basic_stringIcSt11char_traitsIcESaIcEEERA2_KcEC2EbS8_NS_9StringRefESB_
FN:2233,2238,_ZN5Catch10BinaryExprIRKNSt7__cxx1112basic_stringIcSt11char_traitsIcESaIcEEERA5_KcEC2EbS8_NS_9StringRefESB_
FN:2233,2238,_ZN5Catch10BinaryExprIRKNSt7__cxx1112basic_stringIcSt11char_traitsIcESaIcEEES8_EC2EbS8_NS_9StringRefES8_
FN:2233,2238,_ZN5Catch10BinaryExprIRKPcRKNSt7__cxx1112basic_stringIcSt11char_traitsIcESaIcEEEEC2EbS3_NS_9StringRefESB_
FN:2233,2238,_ZN5Catch10BinaryExprIRKiS2_EC2EbS2_NS_9StringRefES2_
FN:2233,2238,_ZN5Catch10BinaryExprIRKmS2_EC2EbS2_NS_9StringRefES2_
FN:2233,2238,_ZN5Catch10BinaryExprIbbEC2EbbNS_9StringRefEb
FN:2301,2303,_ZNK5Catch9UnaryExprIbE29streamReconstructedExpressionERSo
FN:2306,2309,_ZN5Catch9UnaryExprIbEC2Eb
FN:2314,2314,_ZN5Catch12compareEqualI4dateS1_EEbRKT_RKT0_
FN:2314,2314,_ZN5Catch12compareEqualINSt7__cxx1112basic_stringIcSt11char_traitsIcESaIcEEEA10_cEEbRKT_RKT0_
FN:2314,2314,_ZN5Catch12compareEqualINSt7__cxx1112basic_stringIcSt11char_traitsIcESaIcEEEA11_cEEbRKT_RKT0_
FN:2314,2314,_ZN5Catch12compareEqualINSt7__cxx1112basic_stringIcSt11char_traitsIcESaIcEEEA14_cEEbRKT_RKT0_
FN:2314,2314,_ZN5Catch12compareEqualINSt7__cxx1112basic_stringIcSt11char_traitsIcESaIcEEEA15_cEEbRKT_RKT0_
FN:2314,2314,_ZN5Catch12compareEqualINSt7__cxx1112basic_stringIcSt11char_traitsIcESaIcEEEA2_cEEbRKT_RKT0_
FN:2314,2314,_ZN5Catch12compareEqualINSt7__cxx1112basic_stringIcSt11char_traitsIcESaIcEEEA5_cEEbRKT_RKT0_
FN:2314,2314,_ZN5Catch12compareEqualINSt7__cxx1112basic_stringIcSt11char_traitsIcESaIcEEES6_EEbRKT_RKT0_
FN:2314,2314,_ZN5Catch12compareEqualIPcNSt7__cxx1112basic_stringIcSt11char_traitsIcESaIcEEEEEbRKT_RKT0_
FN:2314,2314,_ZN5Catch12compareEqualIiiEEbRKT_RKT0_
FN:2325,2325,_ZN5Catch15compareNotEqualI4dateRKS1_EEbRKT_OT0_
FN:2325,2325,_ZN5Catch15compareNotEqualImRKmEEbRKT_OT0_
FN:2339,2339,_ZN5Catch7ExprLhsIRK4dateEC2ES3_
FN:2339,2339,_ZN5Catch7ExprLhsIRKNSt7__cxx1112basic_stringIcSt11char_traitsIcESaIcEEEEC2ES8_
FN:2339,2339,_ZN5Catch7ExprLhsIRKPcEC2ES3_
FN:2339,2339,_ZN5Catch7ExprLhsIRKiEC2ES2_
FN:2339,2339,_ZN5Catch7ExprLhsIRKmEC2ES2_
FN:2339,2339,_ZN5Catch7ExprLhsIbEC2Eb
FN:2342,2344,_ZN5Catch7ExprLhsIRK4dateEeqIS1_EEKNS_10BinaryExprIS3_RKT_EES9_
FN:2342,2344,_ZN5Catch7ExprLhsIRKNSt7__cxx1112basic_stringIcSt11char_traitsIcESaIcEEEEeqIA10_cEEKNS_10BinaryExprIS8_RKT_EESF_
FN:2342,2344,_ZN5Catch7ExprLhsIRKNSt7__cxx1112basic_stringIcSt11char_traitsIcESaIcEEEEeqIA11_cEEKNS_10BinaryExprIS8_RKT_EESF_
FN:2342,2344,_ZN5Catch7ExprLhsIRKNSt7__cxx1112basic_stringIcSt11char_traitsIcESaIcEEEEeqIA14_cEEKNS_10BinaryExprIS8_RKT_EESF_
FN:2342,2344,_ZN5Catch7ExprLhsIRKNSt7__cxx1112basic_stringIcSt11char_traitsIcESaIcEEEEeqIA15_cEEKNS_10BinaryExprIS8_RKT_EESF_
FN:2342,2344,_ZN5Catch7ExprLhsIRKNSt7__cxx1112basic_stringIcSt11char_traitsIcESaIcEEEEeqIA2_cEEKNS_10BinaryExprIS8_RKT_EESF_
FN:2342,2344,_ZN5Catch7ExprLhsIRKNSt7__cxx1112basic_stringIcSt11char_traitsIcESaIcEEEEeqIA5_cEEKNS_10BinaryExprIS8_RKT_EESF_
FN:2342,2344,_ZN5Catch7ExprLhsIRKNSt7__cxx1112basic_stringIcSt11char_traitsIcESaIcEEEEeqIS6_EEKNS_10BinaryExprIS8_RKT_EESE_
FN:2342,2344,_ZN5Catch7ExprLhsIRKPcEeqINSt7__cxx1112basic_stringIcSt11char_traitsIcESaIcEEEEEKNS_10BinaryExprIS3_RKT_EESF_
FN:2342,2344,_ZN5Catch7ExprLhsIRKiEeqIiEEKNS_10BinaryExprIS2_RKT_EES8_
FN:2345,2347,_ZN5Catch7ExprLhsIbEeqEb
FN:2350,2352,_ZN5Catch7ExprLhsIRK4dateEneIS1_EEKNS_10BinaryExprIS3_RKT_EES9_
FN:2350,2352,_ZN5Catch7ExprLhsIRKmEneImEEKNS_10BinaryExprIS2_RKT_EES8_
FN:2358,2360,_ZN5Catch7ExprLhsIRK4dateEgtIS1_EEKNS_10BinaryExprIS3_RKT_EES9_
FN:2358,2360,_ZN5Catch7ExprLhsIRKiEgtIiEEKNS_10BinaryExprIS2_RKT_EES8_
FN:2362,2364,_ZN5Catch7ExprLhsIRK4dateEltIS1_EEKNS_10BinaryExprIS3_RKT_EES9_
FN:2366,2368,_ZN5Catch7ExprLhsIRKiEgeIiEEKNS_10BinaryExprIS2_RKT_EES8_
FN:2370,2372,_ZN5Catch7ExprLhsIRKiEleIiEEKNS_10BinaryExprIS2_RKT_EES8_
FN:2400,2402,_ZNK5Catch7ExprLhsIbE13makeUnaryExprEv
FN:2414,2416,_ZN5Catch10DecomposerleI4dateEENS_7ExprLhsIRKT_EES6_
FN:2414,2416,_ZN5Catch10DecomposerleINSt7__cxx1112basic_stringIcSt11char_traitsIcESaIcEEEEENS_7ExprLhsIRKT_EESB_
FN:2414,2416,_ZN5Catch10DecomposerleIPcEENS_7ExprLhsIRKT_EES6_
FN:2414,2416,_ZN5Catch10DecomposerleIiEENS_7ExprLhsIRKT_EES5_
FN:2414,2416,_ZN5Catch10DecomposerleImEENS_7ExprLhsIRKT_EES5_
FN:2418,2420,_ZN5Catch10DecomposerleEb
FN:2558,2562,_ZN5Catch16AssertionHandlerD2Ev
FN:2565,2567,_ZN5Catch16AssertionHandler10handleExprIbEEvRKNS_7ExprLhsIT_EE
FN:2631,2634,_ZN5Catch14MessageBuilderlsINSt7__cxx1112basic_stringIcSt11char_traitsIcESaIcEEEEERS0_RKT_
FN:3103,3104,_ZN5Catch6Detail6ApproxC2IevEERKT_
FN:3103,3104,_ZN5Catch6Detail6ApproxC2IivEERKT_
FN:3103,3104,_ZN5Catch6Detail6ApproxC2IyvEERKT_
FN:3243,3243,_ZN5Catch8Matchers4Impl18MatcherUntypedBaseC2Ev
FN:3401,3403,_ZN5Catch8Matchers9Exception23ExceptionMessageMatcherC2ERKNSt7__cxx1112basic_stringIcSt11char_traitsIcESaIcEEE
FN:3773,3778,_ZN5Catch9MatchExprINSt7__cxx1112basic_stringIcSt11char_traitsIcESaIcEEERKNS_8Matchers4Impl11MatcherBaseIS6_EEEC2ERKS6_SC_RKNS_9StringRefE
FN:3780,3787,_ZNK5Catch9MatchExprINSt7__cxx1112basic_stringIcSt11char_traitsIcESaIcEEERKNS_8Matchers4Impl11MatcherBaseIS6_EEE29streamReconstructedExpressionERSo
FN:3875,3877,_ZN5Catch15throw_exceptionISt11logic_errorEEvRKT_
FN:3875,3877,_ZN5Catch15throw_exceptionISt12domain_errorEEvRKT_
FN:3875,3877,_ZN5Catch15throw_exceptionISt13runtime_errorEEvRKT_
FN:4374,4380,_ZN5Catch24getCurrentMutableContextEv
FN:4382,4385,_ZN5Catch17getCurrentContextEv
FN:4404,4404,_ZN5Catch6OptionINS_11TestRunInfoEEC2Ev
FN:4404,4404,_ZN5Catch6OptionINS_12TestCaseInfoEEC2Ev
FN:4404,4404,_ZN5Catch6OptionINS_15AssertionResultEEC2Ev
FN:4404,4404,_ZN5Catch6OptionINS_9GroupInfoEEC2Ev
FN:4404,4404,_ZN5Catch6OptionImEC2Ev
FN:4412,4414,_ZN5Catch6OptionINS_11TestRunInfoEED2Ev
FN:4412,4414,_ZN5Catch6OptionINS_12TestCaseInfoEED2Ev
FN:4412,4414,_ZN5Catch6OptionINS_15AssertionResultEED2Ev
FN:4412,4414,_ZN5Catch6OptionINS_9GroupInfoEED2Ev
FN:4412,4414,_ZN5Catch6OptionImED2Ev
FN:4424,4428,_ZN5Catch6OptionINS_11TestRunInfoEEaSERKS1_
FN:4424,4428,_ZN5Catch6OptionINS_12TestCaseInfoEEaSERKS1_
FN:4424,4428,_ZN5Catch6OptionINS_15AssertionResultEEaSERKS1_
FN:4424,4428,_ZN5Catch6OptionINS_9GroupInfoEEaSERKS1_
FN:4424,4428,_ZN5Catch6OptionImEaSERKm
FN:4430,4434,_ZN5Catch6OptionINS_11TestRunInfoEE5resetEv
FN:4430,4434,_ZN5Catch6OptionINS_12TestCaseInfoEE5resetEv
FN:4430,4434,_ZN5Catch6OptionINS_15AssertionResultEE5resetEv
FN:4430,4434,_ZN5Catch6OptionINS_9GroupInfoEE5resetEv
FN:4430,4434,_ZN5Catch6OptionImE5resetEv
FN:4436,4436,_ZN5Catch6OptionImEdeEv
FN:4437,4437,_ZNK5Catch6OptionINS_15AssertionResultEEdeEv
FN:4438,4438,_ZN5Catch6OptionINS_11TestRunInfoEEptEv
FN:4438,4438,_ZN5Catch6OptionINS_12TestCaseInfoEEptEv
FN:4438,4438,_ZN5Catch6OptionINS_9GroupInfoEEptEv
FN:4441,4443,_ZNK5Catch6OptionImE7valueOrERKm
FN:4445,4445,_ZNK5Catch6OptionImE4someEv
FN:4449,4451,_ZNK5Catch6OptionImEcvbEv
FN:4563,4563,_ZN5Catch11SimplePcg32C2Ev
FN:503,506,_ZN5Catch14SourceLineInfoC2EPKcm
FN:5084,5084,_ZN5Catch15WildcardPatternD0Ev
FN:5084,5084,_ZN5Catch15WildcardPatternD2Ev
FN:5236,5240,_ZN5Catch14TestSpecParser16addCharToPatternEc
FN:5315,5315,_ZN5Catch6ConfigD0Ev
FN:5315,5315,_ZN5Catch6ConfigD2Ev
FN:5494,5498,_ZN5Catch8LazyStatINS_11TestRunInfoEEaSERKS1_
FN:5494,5498,_ZN5Catch8LazyStatINS_12TestCaseInfoEEaSERKS1_
FN:5494,5498,_ZN5Catch8LazyStatINS_9GroupInfoEEaSERKS1_
FN:5499,5502,_ZN5Catch8LazyStatINS_11TestRunInfoEE5resetEv
FN:5499,5502,_ZN5Catch8LazyStatINS_12TestCaseInfoEE5resetEv
FN:5499,5502,_ZN5Catch8LazyStatINS_9GroupInfoEE5resetEv
FN:5525,5525,_ZN5Catch14AssertionStatsC2ERKS0_
FN:5541,5541,_ZN5Catch12SectionStatsC2ERKS0_
FN:5543,5543,_ZN5Catch12SectionStatsaSERKS0_
FN:5560,5560,_ZN5Catch13TestCaseStatsC2ERKS0_
FN:5579,5579,_ZN5Catch14TestGroupStatsC2ERKS0_
FN:5595,5595,_ZN5Catch12TestRunStatsC2ERKS0_
FN:5645,5645,_ZN5Catch18IStreamingReporterD0Ev
FN:5645,5645,_ZN5Catch18IStreamingReporterD2Ev
FN:5655,5655,_ZN5Catch18IStreamingReporter22reportInvalidArgumentsERKNSt7__cxx1112basic_stringIcSt11char_traitsIcESaIcEEE
FN:5731,5738,_ZN5Catch21StreamingReporterBaseINS_11XmlReporterEEC2ERKNS_14ReporterConfigE
FN:5731,5738,_ZN5Catch21StreamingReporterBaseINS_15CompactReporterEEC2ERKNS_14ReporterConfigE
FN:5731,5738,_ZN5Catch21StreamingReporterBaseINS_15ConsoleReporterEEC2ERKNS_14ReporterConfigE
FN:5731,5738,_ZN5Catch21StreamingReporterBaseINS_21TestEventListenerBaseEEC2ERKNS_14ReporterConfigE
FN:5740,5742,_ZNK5Catch21StreamingReporterBaseINS_11XmlReporterEE14getPreferencesEv
FN:5740,5742,_ZNK5Catch21StreamingReporterBaseINS_15CompactReporterEE14getPreferencesEv
FN:5740,5742,_ZNK5Catch21StreamingReporterBaseINS_15ConsoleReporterEE14getPreferencesEv
FN:5740,5742,_ZNK5Catch21StreamingReporterBaseINS_21TestEventListenerBaseEE14getPreferencesEv
FN:5744,5746,_ZN5Catch21StreamingReporterBaseINS_11XmlReporterEE23getSupportedVerbositiesEv
FN:5744,5746,_ZN5Catch21StreamingReporterBaseINS_15CompactReporterEE23getSupportedVerbositiesEv
FN:5744,5746,_ZN5Catch21StreamingReporterBaseINS_15ConsoleReporterEE23getSupportedVerbositiesEv
FN:5748,5748,_ZN5Catch21StreamingReporterBaseINS_11XmlReporterEED0Ev
FN:5748,5748,_ZN5Catch21StreamingReporterBaseINS_11XmlReporterEED2Ev
FN:5748,5748,_ZN5Catch21StreamingReporterBaseINS_15CompactReporterEED0Ev
FN:5748,5748,_ZN5Catch21StreamingReporterBaseINS_15CompactReporterEED2Ev
FN:5748,5748,_ZN5Catch21StreamingReporterBaseINS_15ConsoleReporterEED0Ev
FN:5748,5748,_ZN5Catch21StreamingReporterBaseINS_15ConsoleReporterEED2Ev
FN:5748,5748,_ZN5Catch21StreamingReporterBaseINS_21TestEventListenerBaseEED0Ev
FN:5748,5748,_ZN5Catch21StreamingReporterBaseINS_21TestEventListenerBaseEED2Ev
FN:5750,5750,_ZN5Catch21StreamingReporterBaseINS_11XmlReporterEE19noMatchingTestCasesERKNSt7__cxx1112basic_stringIcSt11char_traitsIcESaIcEEE
FN:5750,5750,_ZN5Catch21StreamingReporterBaseINS_15CompactReporterEE19noMatchingTestCasesERKNSt7__cxx1112basic_stringIcSt11char_traitsIcESaIcEEE
FN:5750,5750,_ZN5Catch21StreamingReporterBaseINS_15ConsoleReporterEE19noMatchingTestCasesERKNSt7__cxx1112basic_stringIcSt11char_traitsIcESaIcEEE
FN:5750,5750,_ZN5Catch21StreamingReporterBaseINS_21TestEventListenerBaseEE19noMatchingTestCasesERKNSt7__cxx1112basic_stringIcSt11char_traitsIcESaIcEEE
FN:5752,5752,_ZN5Catch21StreamingReporterBaseINS_11XmlReporterEE22reportInvalidArgumentsERKNSt7__cxx1112basic_stringIcSt11char_traitsIcESaIcEEE
FN:5752,5752,_ZN5Catch21StreamingReporterBaseINS_15CompactReporterEE22reportInvalidArgumentsERKNSt7__cxx1112basic_stringIcSt11char_traitsIcESaIcEEE
FN:5752,5752,_ZN5Catch21StreamingReporterBaseINS_15ConsoleReporterEE22reportInvalidArgumentsERKNSt7__cxx1112basic_stringIcSt11char_traitsIcESaIcEEE
FN:5752,5752,_ZN5Catch21StreamingReporterBaseINS_21TestEventListenerBaseEE22reportInvalidArgumentsERKNSt7__cxx1112basic_stringIcSt11char_traitsIcESaIcEEE
FN:5754,5756,_ZN5Catch21StreamingReporterBaseINS_11XmlReporterEE15testRunStartingERKNS_11TestRunInfoE
FN:5754,5756,_ZN5Catch21StreamingReporterBaseINS_15CompactReporterEE15testRunStartingERKNS_11TestRunInfoE
FN:5754,5756,_ZN5Catch21StreamingReporterBaseINS_15ConsoleReporterEE15testRunStartingERKNS_11TestRunInfoE
FN:5754,5756,_ZN5Catch21StreamingReporterBaseINS_21TestEventListenerBaseEE15testRunStartingERKNS_11TestRunInfoE
FN:5758,5760,_ZN5Catch21StreamingReporterBaseINS_11XmlReporterEE17testGroupStartingERKNS_9GroupInfoE
FN:5758,5760,_ZN5Catch21StreamingReporterBaseINS_15CompactReporterEE17testGroupStartingERKNS_9GroupInfoE
FN:5758,5760,_ZN5Catch21StreamingReporterBaseINS_15ConsoleReporterEE17testGroupStartingERKNS_9GroupInfoE
FN:5758,5760,_ZN5Catch21StreamingReporterBaseINS_21TestEventListenerBaseEE17testGroupStartingERKNS_9GroupInfoE
FN:5762,5764,_ZN5Catch21StreamingReporterBaseINS_11XmlReporterEE16testCaseStartingERKNS_12TestCaseInfoE
FN:5762,5764,_ZN5Catch21StreamingReporterBaseINS_15CompactReporterEE16testCaseStartingERKNS_12TestCaseInfoE
FN:5762,5764,_ZN5Catch21StreamingReporterBaseINS_15ConsoleReporterEE16testCaseStartingERKNS_12TestCaseInfoE
FN:5762,5764,_ZN5Catch21StreamingReporterBaseINS_21TestEventListenerBaseEE16testCaseStartingERKNS_12TestCaseInfoE
FN:5765,5767,_ZN5Catch21StreamingReporterBaseINS_11XmlReporterEE15sectionStartingERKNS_11SectionInfoE
FN:5765,5767,_ZN5Catch21StreamingReporterBaseINS_15CompactReporterEE15sectionStartingERKNS_11SectionInfoE
FN:5765,5767,_ZN5Catch21StreamingReporterBaseINS_15ConsoleReporterEE15sectionStartingERKNS_11SectionInfoE
FN:5765,5767,_ZN5Catch21StreamingReporterBaseINS_21TestEventListenerBaseEE15sectionStartingERKNS_11SectionInfoE
FN:5769,5771,_ZN5Catch21StreamingReporterBaseINS_11XmlReporterEE12sectionEndedERKNS_12SectionStatsE
FN:5769,5771,_ZN5Catch21StreamingReporterBaseINS_15CompactReporterEE12sectionEndedERKNS_12SectionStatsE
FN:5769,5771,_ZN5Catch21StreamingReporterBaseINS_15ConsoleReporterEE12sectionEndedERKNS_12SectionStatsE
FN:5769,5771,_ZN5Catch21StreamingReporterBaseINS_21TestEventListenerBaseEE12sectionEndedERKNS_12SectionStatsE
FN:5772,5774,_ZN5Catch21StreamingReporterBaseINS_11XmlReporterEE13testCaseEndedERKNS_13TestCaseStatsE
FN:5772,5774,_ZN5Catch21StreamingReporterBaseINS_15CompactReporterEE13testCaseEndedERKNS_13TestCaseStatsE
FN:5772,5774,_ZN5Catch21StreamingReporterBaseINS_15ConsoleReporterEE13testCaseEndedERKNS_13TestCaseStatsE
FN:5772,5774,_ZN5Catch21StreamingReporterBaseINS_21TestEventListenerBaseEE13testCaseEndedERKNS_13TestCaseStatsE
FN:5775,5777,_ZN5Catch21StreamingReporterBaseINS_11XmlReporterEE14testGroupEndedERKNS_14TestGroupStatsE
FN:5775,5777,_ZN5Catch21StreamingReporterBaseINS_15CompactReporterEE14testGroupEndedERKNS_14TestGroupStatsE
FN:5775,5777,_ZN5Catch21StreamingReporterBaseINS_15ConsoleReporterEE14testGroupEndedERKNS_14TestGroupStatsE
FN:5775,5777,_ZN5Catch21StreamingReporterBaseINS_21TestEventListenerBaseEE14testGroupEndedERKNS_14TestGroupStatsE
FN:5778,5782,_ZN5Catch21StreamingReporterBaseINS_11XmlReporterEE12testRunEndedERKNS_12TestRunStatsE
FN:5778,5782,_ZN5Catch21StreamingReporterBaseINS_15CompactReporterEE12testRunEndedERKNS_12TestRunStatsE
FN:5778,5782,_ZN5Catch21StreamingReporterBaseINS_15ConsoleReporterEE12testRunEndedERKNS_12TestRunStatsE
FN:5778,5782,_ZN5Catch21StreamingReporterBaseINS_21TestEventListenerBaseEE12testRunEndedERKNS_12TestRunStatsE
FN:5784,5787,_ZN5Catch21StreamingReporterBaseINS_11XmlReporterEE8skipTestERKNS_12TestCaseInfoE
FN:5784,5787,_ZN5Catch21StreamingReporterBaseINS_15CompactReporterEE8skipTestERKNS_12TestCaseInfoE
FN:5784,5787,_ZN5Catch21StreamingReporterBaseINS_15ConsoleReporterEE8skipTestERKNS_12TestCaseInfoE
FN:5784,5787,_ZN5Catch21StreamingReporterBaseINS_21TestEventListenerBaseEE8skipTestERKNS_12TestCaseInfoE
FN:5804,5804,_ZN5Catch22CumulativeReporterBaseINS_13JunitReporterEE4NodeINS_12TestRunStatsENS3_INS_14TestGroupStatsENS3_INS_13TestCaseStatsENS2_11SectionNodeEEEEEEC2ERKS4_
FN:5804,5804,_ZN5Catch22CumulativeReporterBaseINS_13JunitReporterEE4NodeINS_13TestCaseStatsENS2_11SectionNodeEEC2ERKS4_
FN:5804,5804,_ZN5Catch22CumulativeReporterBaseINS_13JunitReporterEE4NodeINS_14TestGroupStatsENS3_INS_13TestCaseStatsENS2_11SectionNodeEEEEC2ERKS4_
FN:5805,5805,_ZN5Catch22CumulativeReporterBaseINS_13JunitReporterEE4NodeINS_12TestRunStatsENS3_INS_14TestGroupStatsENS3_INS_13TestCaseStatsENS2_11SectionNodeEEEEEED0Ev
FN:5805,5805,_ZN5Catch22CumulativeReporterBaseINS_13JunitReporterEE4NodeINS_12TestRunStatsENS3_INS_14TestGroupStatsENS3_INS_13TestCaseStatsENS2_11SectionNodeEEEEEED2Ev
FN:5805,5805,_ZN5Catch22CumulativeReporterBaseINS_13JunitReporterEE4NodeINS_13TestCaseStatsENS2_11SectionNodeEED0Ev
FN:5805,5805,_ZN5Catch22CumulativeReporterBaseINS_13JunitReporterEE4NodeINS_13TestCaseStatsENS2_11SectionNodeEED2Ev
FN:5805,5805,_ZN5Catch22CumulativeReporterBaseINS_13JunitReporterEE4NodeINS_14TestGroupStatsENS3_INS_13TestCaseStatsENS2_11SectionNodeEEEED0Ev
FN:5805,5805,_ZN5Catch22CumulativeReporterBaseINS_13JunitReporterEE4NodeINS_14TestGroupStatsENS3_INS_13TestCaseStatsENS2_11SectionNodeEEEED2Ev
FN:5812,5812,_ZN5Catch22CumulativeReporterBaseINS_13JunitReporterEE11SectionNodeC2ERKNS_12SectionStatsE
FN:5813,5813,_ZN5Catch22CumulativeReporterBaseINS_13JunitReporterEE11SectionNodeD0Ev
FN:5813,5813,_ZN5Catch22CumulativeReporterBaseINS_13JunitReporterEE11SectionNodeD2Ev
FN:5832,5832,_ZN5Catch22CumulativeReporterBaseINS_13JunitReporterEE13BySectionInfoC2ERKNS_11SectionInfoE
FN:5833,5833,_ZN5Catch22CumulativeReporterBaseINS_13JunitReporterEE13BySectionInfoC2ERKS3_
FN:5834,5837,_ZNK5Catch22CumulativeReporterBaseINS_13JunitReporterEE13BySectionInfoclERKSt10shared_ptrINS2_11SectionNodeEE
FN:5848,5855,_ZN5Catch22CumulativeReporterBaseINS_13JunitReporterEEC2ERKNS_14ReporterConfigE
FN:5856,5856,_ZN5Catch22CumulativeReporterBaseINS_13JunitReporterEED0Ev
FN:5856,5856,_ZN5Catch22CumulativeReporterBaseINS_13JunitReporterEED2Ev
FN:5858,5860,_ZNK5Catch22CumulativeReporterBaseINS_13JunitReporterEE14getPreferencesEv
FN:5862,5864,_ZN5Catch22CumulativeReporterBaseINS_13JunitReporterEE23getSupportedVerbositiesEv
FN:5866,5866,_ZN5Catch22CumulativeReporterBaseINS_13JunitReporterEE15testRunStartingERKNS_11TestRunInfoE
FN:5867,5867,_ZN5Catch22CumulativeReporterBaseINS_13JunitReporterEE17testGroupStartingERKNS_9GroupInfoE
FN:5869,5869,_ZN5Catch22CumulativeReporterBaseINS_13JunitReporterEE16testCaseStartingERKNS_12TestCaseInfoE
FN:5871,5894,_ZN5Catch22CumulativeReporterBaseINS_13JunitReporterEE15sectionStartingERKNS_11SectionInfoE
FN:5896,5896,_ZN5Catch22CumulativeReporterBaseINS_13JunitReporterEE17assertionStartingERKNS_13AssertionInfoE
FN:5898,5909,_ZN5Catch22CumulativeReporterBaseINS_13JunitReporterEE14assertionEndedERKNS_14AssertionStatsE
FN:5910,5915,_ZN5Catch22CumulativeReporterBaseINS_13JunitReporterEE12sectionEndedERKNS_12SectionStatsE
FN:5916,5926,_ZN5Catch22CumulativeReporterBaseINS_13JunitReporterEE13testCaseEndedERKNS_13TestCaseStatsE
FN:5927,5931,_ZN5Catch22CumulativeReporterBaseINS_13JunitReporterEE14testGroupEndedERKNS_14TestGroupStatsE
FN:5932,5937,_ZN5Catch22CumulativeReporterBaseINS_13JunitReporterEE12testRunEndedERKNS_12TestRunStatsE
FN:5940,5940,_ZN5Catch22CumulativeReporterBaseINS_13JunitReporterEE8skipTestERKNS_12TestCaseInfoE
FN:5958,5965,_ZN5Catch14getLineOfCharsILc126EEEPKcv
FN:5958,5965,_ZN5Catch14getLineOfCharsILc45EEEPKcv
FN:5958,5965,_ZN5Catch14getLineOfCharsILc46EEEPKcv
FN:6048,6050,_ZNK5Catch17ReporterRegistrarINS_11XmlReporterEE15ReporterFactory6createERKNS_14ReporterConfigE
FN:6048,6050,_ZNK5Catch17ReporterRegistrarINS_13JunitReporterEE15ReporterFactory6createERKNS_14ReporterConfigE
FN:6048,6050,_ZNK5Catch17ReporterRegistrarINS_15CompactReporterEE15ReporterFactory6createERKNS_14ReporterConfigE
FN:6048,6050,_ZNK5Catch17ReporterRegistrarINS_15ConsoleReporterEE15ReporterFactory6createERKNS_14ReporterConfigE
FN:6052,6054,_ZNK5Catch17ReporterRegistrarINS_11XmlReporterEE15ReporterFactory14getDescriptionB5cxx11Ev
FN:6052,6054,_ZNK5Catch17ReporterRegistrarINS_13JunitReporterEE15ReporterFactory14getDescriptionB5cxx11Ev
FN:6052,6054,_ZNK5Catch17ReporterRegistrarINS_15CompactReporterEE15ReporterFactory14getDescriptionB5cxx11Ev
FN:6052,6054,_ZNK5Catch17ReporterRegistrarINS_15ConsoleReporterEE15ReporterFactory14getDescriptionB5cxx11Ev
FN:6059,6061,_ZN5Catch17ReporterRegistrarINS_11XmlReporterEEC2ERKNSt7__cxx1112basic_stringIcSt11char_traitsIcESaIcEEE
FN:6059,6061,_ZN5Catch17ReporterRegistrarINS_13JunitReporterEEC2ERKNSt7__cxx1112basic_stringIcSt11char_traitsIcESaIcEEE
FN:6059,6061,_ZN5Catch17ReporterRegistrarINS_15CompactReporterEEC2ERKNSt7__cxx1112basic_stringIcSt11char_traitsIcESaIcEEE
FN:6059,6061,_ZN5Catch17ReporterRegistrarINS_15ConsoleReporterEEC2ERKNSt7__cxx1112basic_stringIcSt11char_traitsIcESaIcEEE
FN:616,616,_ZN5Catch9StringRefC2Ev
FN:620,623,_ZN5Catch9StringRefC2EPKcm
FN:625,628,_ZN5Catch9StringRefC2ERKNSt7__cxx1112basic_stringIcSt11char_traitsIcESaIcEEE
FN:6257,6260,_ZN5Catch9XmlWriter13ScopedElement14writeAttributeIA12_cEERS1_RKNSt7__cxx1112basic_stringIcSt11char_traitsIcESaIcEEERKT_
FN:6257,6260,_ZN5Catch9XmlWriter13ScopedElement14writeAttributeIA31_cEERS1_RKNSt7__cxx1112basic_stringIcSt11char_traitsIcESaIcEEERKT_
FN:6257,6260,_ZN5Catch9XmlWriter13ScopedElement14writeAttributeIA8_cEERS1_RKNSt7__cxx1112basic_stringIcSt11char_traitsIcESaIcEEERKT_
FN:6257,6260,_ZN5Catch9XmlWriter13ScopedElement14writeAttributeINSt7__cxx1112basic_stringIcSt11char_traitsIcESaIcEEEEERS1_RKS8_RKT_
FN:6257,6260,_ZN5Catch9XmlWriter13ScopedElement14writeAttributeIbEERS1_RKNSt7__cxx1112basic_stringIcSt11char_traitsIcESaIcEEERKT_
FN:6257,6260,_ZN5Catch9XmlWriter13ScopedElement14writeAttributeIdEERS1_RKNSt7__cxx1112basic_stringIcSt11char_traitsIcESaIcEEERKT_
FN:6257,6260,_ZN5Catch9XmlWriter13ScopedElement14writeAttributeIjEERS1_RKNSt7__cxx1112basic_stringIcSt11char_traitsIcESaIcEEERKT_
FN:6257,6260,_ZN5Catch9XmlWriter13ScopedElement14writeAttributeImEERS1_RKNSt7__cxx1112basic_stringIcSt11char_traitsIcESaIcEEERKT_
FN:6284,6288,_ZN5Catch9XmlWriter14writeAttributeIA12_cEERS0_RKNSt7__cxx1112basic_stringIcSt11char_traitsIcESaIcEEERKT_
FN:6284,6288,_ZN5Catch9XmlWriter14writeAttributeIA1_cEERS0_RKNSt7__cxx1112basic_stringIcSt11char_traitsIcESaIcEEERKT_
FN:6284,6288,_ZN5Catch9XmlWriter14writeAttributeIA31_cEERS0_RKNSt7__cxx1112basic_stringIcSt11char_traitsIcESaIcEEERKT_
FN:6284,6288,_ZN5Catch9XmlWriter14writeAttributeIA4_cEERS0_RKNSt7__cxx1112basic_stringIcSt11char_traitsIcESaIcEEERKT_
FN:6284,6288,_ZN5Catch9XmlWriter14writeAttributeIA5_cEERS0_RKNSt7__cxx1112basic_stringIcSt11char_traitsIcESaIcEEERKT_
FN:6284,6288,_ZN5Catch9XmlWriter14writeAttributeIA8_cEERS0_RKNSt7__cxx1112basic_stringIcSt11char_traitsIcESaIcEEERKT_
FN:6284,6288,_ZN5Catch9XmlWriter14writeAttributeINS_9StringRefEEERS0_RKNSt7__cxx1112basic_stringIcSt11char_traitsIcESaIcEEERKT_
FN:6284,6288,_ZN5Catch9XmlWriter14writeAttributeIPKcEERS0_RKNSt7__cxx1112basic_stringIcSt11char_traitsIcESaIcEEERKT_
FN:6284,6288,_ZN5Catch9XmlWriter14writeAttributeIdEERS0_RKNSt7__cxx1112basic_stringIcSt11char_traitsIcESaIcEEERKT_
FN:6284,6288,_ZN5Catch9XmlWriter14writeAttributeIjEERS0_RKNSt7__cxx1112basic_stringIcSt11char_traitsIcESaIcEEERKT_
FN:6284,6288,_ZN5Catch9XmlWriter14writeAttributeImEERS0_RKNSt7__cxx1112basic_stringIcSt11char_traitsIcESaIcEEERKT_
FN:630,632,_ZNK5Catch9StringRefcvNSt7__cxx1112basic_stringIcSt11char_traitsIcESaIcEEEEv
FN:640,643,_ZNK5Catch9StringRefixEm
FN:646,648,_ZNK5Catch9StringRef5emptyEv
FN:649,651,_ZNK5Catch9StringRef4sizeEv
FN:666,668,_ZNK5Catch9StringRef16isNullTerminatedEv
FN:671,671,_ZNK5Catch9StringRef5beginEv
FN:672,672,_ZNK5Catch9StringRef3endEv
FN:678,680,_ZN5Catchli3_srEPKcm
FN:683,685,_Zli9_catch_srPKcm
FN:7476,7479,_ZN5Catch16TestCaseTrackingeqERKNS0_15NameAndLocationES3_
FN:7490,7492,_ZN5Catch16TestCaseTracking8ITrackerC2ERKNS0_15NameAndLocationE
FN:7495,7497,_ZNK5Catch16TestCaseTracking8ITracker15nameAndLocationEv
FN:7573,7575,_ZNK5Catch16TestCaseTracking11TrackerBase10hasStartedEv
FN:7862,7864,_ZN12_GLOBAL__N_116marginComparisonEddd
FN:7871,7876,_ZN5Catch6Detail6ApproxC2Ed
FN:7878,7880,_ZN5Catch6Detail6Approx6customEv
FN:7882,7886,_ZNK5Catch6Detail6ApproxngEv
FN:7888,7892,_ZNK5Catch6Detail6Approx8toStringB5cxx11Ev
FN:7894,7899,_ZNK5Catch6Detail6Approx22equalityComparisonImplEd
FN:7901,7906,_ZN5Catch6Detail6Approx9setMarginEd
FN:7908,7913,_ZN5Catch6Detail6Approx10setEpsilonEd
FN:7918,7920,_ZN5Catch8literalsli2_aEe
FN:7921,7923,_ZN5Catch8literalsli2_aEy
FN:7926,7928,_ZN5Catch11StringMakerINS_6Detail6ApproxEvE7convertB5cxx11ERKS2_
FN:8017,8021,_ZN5Catch21FatalConditionHandler6engageEv
FN:8023,8027,_ZN5Catch21FatalConditionHandler9disengageEv
FN:8034,8037,_ZN5Catch26FatalConditionHandlerGuardC2EPNS_21FatalConditionHandlerE
FN:8038,8040,_ZN5Catch26FatalConditionHandlerGuardD2Ev
FN:8183,8186,_ZN5Catch12_GLOBAL__N_1lsERSoRKNS_20ITransientExpressionE
FN:8189,8191,_ZN5Catch14LazyExpressionC2Eb
FN:8193,8193,_ZN5Catch14LazyExpressionC2ERKS0_
FN:8195,8197,_ZNK5Catch14LazyExpressioncvbEv
FN:8199,8213,_ZN5CatchlsERSoRKNS_14LazyExpressionE
FN:8215,8222,_ZN5Catch16AssertionHandlerC2ERKNS_9StringRefERKNS_14SourceLineInfoES1_NS_17ResultDisposition5FlagsE
FN:8224,8226,_ZN5Catch16AssertionHandler10handleExprERKNS_20ITransientExpressionE
FN:8227,8229,_ZN5Catch16AssertionHandler13handleMessageENS_9ResultWas6OfTypeERKNS_9StringRefE
FN:8231,8233,_ZNK5Catch16AssertionHandler11allowThrowsEv
FN:8235,8252,_ZN5Catch16AssertionHandler8completeEv
FN:8243,8243,_ZZN5Catch16AssertionHandler8completeEvENKUlvE_clEv
FN:8253,8255,_ZN5Catch16AssertionHandler12setCompletedEv
FN:8257,8259,_ZN5Catch16AssertionHandler33handleUnexpectedInflightExceptionEv
FN:8261,8263,_ZN5Catch16AssertionHandler31handleExceptionThrownAsExpectedEv
FN:8264,8266,_ZN5Catch16AssertionHandler34handleExceptionNotThrownAsExpectedEv
FN:8268,8270,_ZN5Catch16AssertionHandler34handleUnexpectedExceptionNotThrownEv
FN:8272,8274,_ZN5Catch16AssertionHandler25handleThrowingCallSkippedEv
FN:8278,8280,_ZN5Catch24handleExceptionMatchExprERNS_16AssertionHandlerERKNSt7__cxx1112basic_stringIcSt11char_traitsIcESaIcEEERKNS_9StringRefE
FN:8287,8289,_ZN5Catch19AssertionResultDataC2ENS_9ResultWas6OfTypeERKNS_14LazyExpressionE
FN:8291,8301,_ZNK5Catch19AssertionResultData21reconstructExpressionB5cxx11Ev
FN:8303,8306,_ZN5Catch15AssertionResultC2ERKNS_13AssertionInfoERKNS_19AssertionResultDataE
FN:8309,8311,_ZNK5Catch15AssertionResult9succeededEv
FN:8314,8316,_ZNK5Catch15AssertionResult4isOkEv
FN:8318,8320,_ZNK5Catch15AssertionResult13getResultTypeEv
FN:8322,8324,_ZNK5Catch15AssertionResult13hasExpressionEv
FN:8326,8328,_ZNK5Catch15AssertionResult10hasMessageEv
FN:8330,8341,_ZNK5Catch15AssertionResult13getExpressionB5cxx11Ev
FN:8343,8355,_ZNK5Catch15AssertionResult20getExpressionInMacroB5cxx11Ev
FN:8357,8359,_ZNK5Catch15AssertionResult21hasExpandedExpressionEv
FN:8361,8366,_ZNK5Catch15AssertionResult21getExpandedExpressionB5cxx11Ev
FN:8368,8370,_ZNK5Catch15AssertionResult10getMessageB5cxx11Ev
FN:8371,8373,_ZNK5Catch15AssertionResult13getSourceInfoEv
FN:8375,8377,_ZNK5Catch15AssertionResult16getTestMacroNameEv
FN:8390,8394,_ZN5Catch24handleExceptionMatchExprERNS_16AssertionHandlerERKNS_8Matchers4Impl11MatcherBaseINSt7__cxx1112basic_stringIcSt11char_traitsIcESaIcEEEEERKNS_9StringRefE
FN:8471,8474,_ZN5Catch5clara8TextFlow12isWhitespaceEc
FN:8475,8478,_ZN5Catch5clara8TextFlow17isBreakableBeforeEc
FN:8479,8482,_ZN5Catch5clara8TextFlow16isBreakableAfterEc
FN:8504,8506,_ZN5Catch5clara8TextFlow6Column8iteratorC2ERKS2_m
FN:8508,8508,_ZNK5Catch5clara8TextFlow6Column8iterator4lineB5cxx11Ev
FN:8510,8518,_ZNK5Catch5clara8TextFlow6Column8iterator10isBoundaryEm
FN:8520,8548,_ZN5Catch5clara8TextFlow6Column8iterator10calcLengthEv
FN:8550,8553,_ZNK5Catch5clara8TextFlow6Column8iterator6indentEv
FN:8555,8557,_ZNK5Catch5clara8TextFlow6Column8iterator18addIndentAndSuffixERKNSt7__cxx1112basic_stringIcSt11char_traitsIcESaIcEEE
FN:8566,8572,_ZN5Catch5clara8TextFlow6Column8iteratorC2ERKS2_
FN:8574,8578,_ZNK5Catch5clara8TextFlow6Column8iteratordeB5cxx11Ev
FN:8580,8595,_ZN5Catch5clara8TextFlow6Column8iteratorppEv
FN:8602,8607,_ZNK5Catch5clara8TextFlow6Column8iteratoreqERKS3_
FN:8608,8610,_ZNK5Catch5clara8TextFlow6Column8iteratorneERKS3_
FN:8614,8614,_ZN5Catch5clara8TextFlow6ColumnC2ERKNSt7__cxx1112basic_stringIcSt11char_traitsIcESaIcEEE
FN:8616,8620,_ZN5Catch5clara8TextFlow6Column5widthEm
FN:8621,8624,_ZN5Catch5clara8TextFlow6Column6indentEm
FN:8625,8628,_ZN5Catch5clara8TextFlow6Column13initialIndentEm
FN:8630,8630,_ZNK5Catch5clara8TextFlow6Column5widthEv
FN:8631,8631,_ZNK5Catch5clara8TextFlow6Column5beginEv
FN:8632,8632,_ZNK5Catch5clara8TextFlow6Column3endEv
FN:8634,8644,_ZN5Catch5clara8TextFlowlsERSoRKNS1_6ColumnE
FN:8658,8660,_ZN5Catch5clara8TextFlow6SpacerC2Em
FN:8676,8683,_ZN5Catch5clara8TextFlow7Columns8iteratorC2ERKS2_NS3_6EndTagE
FN:8692,8699,_ZN5Catch5clara8TextFlow7Columns8iteratorC2ERKS2_
FN:8704,8706,_ZNK5Catch5clara8TextFlow7Columns8iteratorneERKS3_
FN:8707,8724,_ZNK5Catch5clara8TextFlow7Columns8iteratordeB5cxx11Ev
FN:8725,8731,_ZN5Catch5clara8TextFlow7Columns8iteratorppEv
FN:8740,8740,_ZNK5Catch5clara8TextFlow7Columns5beginEv
FN:8741,8741,_ZNK5Catch5clara8TextFlow7Columns3endEv
FN:8743,8746,_ZN5Catch5clara8TextFlow7ColumnspLERKNS1_6ColumnE
FN:8747,8751,_ZN5Catch5clara8TextFlow7ColumnsplERKNS1_6ColumnE
FN:8753,8764,_ZN5Catch5clara8TextFlowlsERSoRKNS1_7ColumnsE
FN:8773,8778,_ZN5Catch5clara8TextFlow6ColumnplERKS2_
FN:8825,8827,_ZN5Catch5clara6detail4ArgsC2EiPKPKc
FN:8834,8836,_ZNK5Catch5clara6detail4Args7exeNameB5cxx11Ev
FN:8849,8855,_ZN5Catch5clara6detail11isOptPrefixEc
FN:8864,8893,_ZN5Catch5clara6detail11TokenStream10loadBufferEv
FN:8896,8896,_ZN5Catch5clara6detail11TokenStreamC2ERKNS1_4ArgsE
FN:8898,8900,_ZN5Catch5clara6detail11TokenStreamC2EN9__gnu_cxx17__normal_iteratorIPKNSt7__cxx1112basic_stringIcSt11char_traitsIcESaIcEEESt6vectorISA_SaISA_EEEESG_
FN:8902,8904,_ZNK5Catch5clara6detail11TokenStreamcvbEv
FN:8908,8911,_ZNK5Catch5clara6detail11TokenStreamdeEv
FN:8913,8916,_ZNK5Catch5clara6detail11TokenStreamptEv
FN:8918,8927,_ZN5Catch5clara6detail11TokenStreamppEv
FN:8937,8937,_ZN5Catch5clara6detail10ResultBaseC2ENS2_4TypeE
FN:8938,8938,_ZN5Catch5clara6detail10ResultBaseD0Ev
FN:8938,8938,_ZN5Catch5clara6detail10ResultBaseD2Ev
FN:8948,8951,_ZNK5Catch5clara6detail15ResultValueBaseINS1_10ParseStateEE5valueEv
FN:8948,8951,_ZNK5Catch5clara6detail15ResultValueBaseINS1_15ParseResultTypeEE5valueEv
FN:8954,8954,_ZN5Catch5clara6detail15ResultValueBaseINS1_10ParseStateEEC2ENS1_10ResultBase4TypeE
FN:8954,8954,_ZN5Catch5clara6detail15ResultValueBaseINS1_15ParseResultTypeEEC2ENS1_10ResultBase4TypeE
FN:8956,8959,_ZN5Catch5clara6detail15ResultValueBaseINS1_10ParseStateEEC2ERKS4_
FN:8956,8959,_ZN5Catch5clara6detail15ResultValueBaseINS1_15ParseResultTypeEEC2ERKS4_
FN:8961,8963,_ZN5Catch5clara6detail15ResultValueBaseINS1_10ParseStateEEC2ENS1_10ResultBase4TypeERKS3_
FN:8961,8963,_ZN5Catch5clara6detail15ResultValueBaseINS1_15ParseResultTypeEEC2ENS1_10ResultBase4TypeERKS3_
FN:8965,8972,_ZN5Catch5clara6detail15ResultValueBaseINS1_10ParseStateEEaSERKS4_
FN:8974,8977,_ZN5Catch5clara6detail15ResultValueBaseINS1_10ParseStateEED0Ev
FN:8974,8977,_ZN5Catch5clara6detail15ResultValueBaseINS1_10ParseStateEED2Ev
FN:8974,8977,_ZN5Catch5clara6detail15ResultValueBaseINS1_15ParseResultTypeEED0Ev
FN:8974,8977,_ZN5Catch5clara6detail15ResultValueBaseINS1_15ParseResultTypeEED2Ev
FN:8994,8999,_ZN5Catch5clara6detail11BasicResultINS1_10ParseStateEEC2INS1_15ParseResultTypeEEERKNS2_IT_EE
FN:8994,8999,_ZN5Catch5clara6detail11BasicResultINS1_10ParseStateEEC2IvEERKNS2_IT_EE
FN:9002,9002,_ZN5Catch5clara6detail11BasicResultINS1_10ParseStateEE2okIS3_EES4_RKT_
FN:9002,9002,_ZN5Catch5clara6detail11BasicResultINS1_15ParseResultTypeEE2okIS3_EES4_RKT_
FN:9003,9003,_ZN5Catch5clara6detail11BasicResultIvE2okEv
FN:9004,9004,_ZN5Catch5clara6detail11BasicResultIvE10logicErrorERKNSt7__cxx1112basic_stringIcSt11char_traitsIcESaIcEEE
FN:9005,9005,_ZN5Catch5clara6detail11BasicResultINS1_10ParseStateEE12runtimeErrorERKNSt7__cxx1112basic_stringIcSt11char_traitsIcESaIcEEE
FN:9005,9005,_ZN5Catch5clara6detail11BasicResultINS1_15ParseResultTypeEE12runtimeErrorERKNSt7__cxx1112basic_stringIcSt11char_traitsIcESaIcEEE
FN:9007,9007,_ZNK5Catch5clara6detail11BasicResultINS1_10ParseStateEEcvbEv
FN:9007,9007,_ZNK5Catch5clara6detail11BasicResultINS1_15ParseResultTypeEEcvbEv
FN:9007,9007,_ZNK5Catch5clara6detail11BasicResultIvEcvbEv
FN:9008,9008,_ZNK5Catch5clara6detail11BasicResultINS1_10ParseStateEE4typeEv
FN:9008,9008,_ZNK5Catch5clara6detail11BasicResultINS1_15ParseResultTypeEE4typeEv
FN:9008,9008,_ZNK5Catch5clara6detail11BasicResultIvE4typeEv
FN:9009,9009,_ZNK5Catch5clara6detail11BasicResultINS1_10ParseStateEE12errorMessageB5cxx11Ev
FN:9009,9009,_ZNK5Catch5clara6detail11BasicResultINS1_15ParseResultTypeEE12errorMessageB5cxx11Ev
FN:9009,9009,_ZNK5Catch5clara6detail11BasicResultIvE12errorMessageB5cxx11Ev
FN:9012,9020,_ZNK5Catch5clara6detail11BasicResultINS1_10ParseStateEE9enforceOkEv
FN:9012,9020,_ZNK5Catch5clara6detail11BasicResultINS1_15ParseResultTypeEE9enforceOkEv
FN:9012,9020,_ZNK5Catch5clara6detail11BasicResultIvE9enforceOkEv
FN:9024,9029,_ZN5Catch5clara6detail11BasicResultINS1_10ParseStateEEC2ENS1_10ResultBase4TypeERKNSt7__cxx1112basic_stringIcSt11char_traitsIcESaIcEEE
FN:9024,9029,_ZN5Catch5clara6detail11BasicResultINS1_15ParseResultTypeEEC2ENS1_10ResultBase4TypeERKNSt7__cxx1112basic_stringIcSt11char_traitsIcESaIcEEE
FN:9024,9029,_ZN5Catch5clara6detail11BasicResultIvEC2ENS1_10ResultBase4TypeERKNSt7__cxx1112basic_stringIcSt11char_traitsIcESaIcEEE
FN:9042,9045,_ZN5Catch5clara6detail10ParseStateC2ENS1_15ParseResultTypeERKNS1_11TokenStreamE
FN:9047,9047,_ZNK5Catch5clara6detail10ParseState4typeEv
FN:9048,9048,_ZNK5Catch5clara6detail10ParseState15remainingTokensEv
FN:9065,9073,_ZN5Catch5clara6detail11convertIntoIdEENS1_11BasicResultINS1_15ParseResultTypeEEERKNSt7__cxx1112basic_stringIcSt11char_traitsIcESaIcEEERT_
FN:9065,9073,_ZN5Catch5clara6detail11convertIntoIiEENS1_11BasicResultINS1_15ParseResultTypeEEERKNSt7__cxx1112basic_stringIcSt11char_traitsIcESaIcEEERT_
FN:9065,9073,_ZN5Catch5clara6detail11convertIntoIjEENS1_11BasicResultINS1_15ParseResultTypeEEERKNSt7__cxx1112basic_stringIcSt11char_traitsIcESaIcEEERT_
FN:9065,9073,_ZN5Catch5clara6detail11convertIntoIlEENS1_11BasicResultINS1_15ParseResultTypeEEERKNSt7__cxx1112basic_stringIcSt11char_traitsIcESaIcEEERT_
FN:9074,9077,_ZN5Catch5clara6detail11convertIntoERKNSt7__cxx1112basic_stringIcSt11char_traitsIcESaIcEEERS7_
FN:9078,9088,_ZN5Catch5clara6detail11convertIntoERKNSt7__cxx1112basic_stringIcSt11char_traitsIcESaIcEEERb
FN:9080,9080,_ZZN5Catch5clara6detail11convertIntoERKNSt7__cxx1112basic_stringIcSt11char_traitsIcESaIcEEERbENKUlhE_clEh
FN:9109,9109,_ZN5Catch5clara6detail8BoundRefD0Ev
FN:9109,9109,_ZN5Catch5clara6detail8BoundRefD2Ev
FN:9110,9110,_ZNK5Catch5clara6detail8BoundRef11isContainerEv
FN:9111,9111,_ZNK5Catch5clara6detail8BoundRef6isFlagEv
FN:9118,9118,_ZNK5Catch5clara6detail16BoundFlagRefBase6isFlagEv
FN:9125,9125,_ZN5Catch5clara6detail13BoundValueRefINSt7__cxx1112basic_stringIcSt11char_traitsIcESaIcEEEEC2ERS8_
FN:9125,9125,_ZN5Catch5clara6detail13BoundValueRefIdEC2ERd
FN:9125,9125,_ZN5Catch5clara6detail13BoundValueRefIjEC2ERj
FN:9125,9125,_ZN5Catch5clara6detail13BoundValueRefIlEC2ERl
FN:9127,9129,_ZN5Catch5clara6detail13BoundValueRefINSt7__cxx1112basic_stringIcSt11char_traitsIcESaIcEEEE8setValueERKS8_
FN:9127,9129,_ZN5Catch5clara6detail13BoundValueRefIdE8setValueERKNSt7__cxx1112basic_stringIcSt11char_traitsIcESaIcEEE
FN:9127,9129,_ZN5Catch5clara6detail13BoundValueRefIjE8setValueERKNSt7__cxx1112basic_stringIcSt11char_traitsIcESaIcEEE
FN:9127,9129,_ZN5Catch5clara6detail13BoundValueRefIlE8setValueERKNSt7__cxx1112basic_stringIcSt11char_traitsIcESaIcEEE
FN:9136,9136,_ZN5Catch5clara6detail13BoundValueRefISt6vectorINSt7__cxx1112basic_stringIcSt11char_traitsIcESaIcEEESaIS9_EEEC2ERSB_
FN:9138,9138,_ZNK5Catch5clara6detail13BoundValueRefISt6vectorINSt7__cxx1112basic_stringIcSt11char_traitsIcESaIcEEESaIS9_EEE11isContainerEv
FN:9140,9146,_ZN5Catch5clara6detail13BoundValueRefISt6vectorINSt7__cxx1112basic_stringIcSt11char_traitsIcESaIcEEESaIS9_EEE8setValueERKS9_
FN:9152,9152,_ZN5Catch5clara6detail12BoundFlagRefC2ERb
FN:9154,9157,_ZN5Catch5clara6detail12BoundFlagRef7setFlagEb
FN:9165,9167,_ZN5Catch5clara6detail13LambdaInvokerINS1_11BasicResultINS1_15ParseResultTypeEEEE6invokeIZNS1_4HelpC4ERbEUlbE_bEES5_RKT_RKT0_
FN:9165,9167,_ZN5Catch5clara6detail13LambdaInvokerINS1_11BasicResultINS1_15ParseResultTypeEEEE6invokeIZNS_21makeCommandLineParserERNS_10ConfigDataEEUlRKNSt7__cxx1112basic_stringIcSt11char_traitsIcESaIcEEEE0_SF_EES5_RKT_RKT0_
FN:9165,9167,_ZN5Catch5clara6detail13LambdaInvokerINS1_11BasicResultINS1_15ParseResultTypeEEEE6invokeIZNS_21makeCommandLineParserERNS_10ConfigDataEEUlRKNSt7__cxx1112basic_stringIcSt11char_traitsIcESaIcEEEE1_SF_EES5_RKT_RKT0_
FN:9165,9167,_ZN5Catch5clara6detail13LambdaInvokerINS1_11BasicResultINS1_15ParseResultTypeEEEE6invokeIZNS_21makeCommandLineParserERNS_10ConfigDataEEUlRKNSt7__cxx1112basic_stringIcSt11char_traitsIcESaIcEEEE2_SF_EES5_RKT_RKT0_
FN:9165,9167,_ZN5Catch5clara6detail13LambdaInvokerINS1_11BasicResultINS1_15ParseResultTypeEEEE6invokeIZNS_21makeCommandLineParserERNS_10ConfigDataEEUlRKNSt7__cxx1112basic_stringIcSt11char_traitsIcESaIcEEEE3_SF_EES5_RKT_RKT0_
FN:9165,9167,_ZN5Catch5clara6detail13LambdaInvokerINS1_11BasicResultINS1_15ParseResultTypeEEEE6invokeIZNS_21makeCommandLineParserERNS_10ConfigDataEEUlRKNSt7__cxx1112basic_stringIcSt11char_traitsIcESaIcEEEE4_SF_EES5_RKT_RKT0_
FN:9165,9167,_ZN5Catch5clara6detail13LambdaInvokerINS1_11BasicResultINS1_15ParseResultTypeEEEE6invokeIZNS_21makeCommandLineParserERNS_10ConfigDataEEUlRKNSt7__cxx1112basic_stringIcSt11char_traitsIcESaIcEEEE5_SF_EES5_RKT_RKT0_
FN:9165,9167,_ZN5Catch5clara6detail13LambdaInvokerINS1_11BasicResultINS1_15ParseResultTypeEEEE6invokeIZNS_21makeCommandLineParserERNS_10ConfigDataEEUlRKNSt7__cxx1112basic_stringIcSt11char_traitsIcESaIcEEEE6_SF_EES5_RKT_RKT0_
FN:9165,9167,_ZN5Catch5clara6detail13LambdaInvokerINS1_11BasicResultINS1_15ParseResultTypeEEEE6invokeIZNS_21makeCommandLineParserERNS_10ConfigDataEEUlRKNSt7__cxx1112basic_stringIcSt11char_traitsIcESaIcEEEE_SF_EES5_RKT_RKT0_
FN:9173,9176,_ZN5Catch5clara6detail13LambdaInvokerIvE6invokeIZNS_21makeCommandLineParserERNS_10ConfigDataEEUlbE0_bEENS1_11BasicResultINS1_15ParseResultTypeEEERKT_RKT0_
FN:9173,9176,_ZN5Catch5clara6detail13LambdaInvokerIvE6invokeIZNS_21makeCommandLineParserERNS_10ConfigDataEEUlbE_bEENS1_11BasicResultINS1_15ParseResultTypeEEERKT_RKT0_
FN:9173,9176,_ZN5Catch5clara6detail13LambdaInvokerIvE6invokeIZNS_21makeCommandLineParserERNS_10ConfigDataEEUliE_iEENS1_11BasicResultINS1_15ParseResultTypeEEERKT_RKT0_
FN:9180,9186,_ZN5Catch5clara6detail12invokeLambdaINSt7__cxx1112basic_stringIcSt11char_traitsIcESaIcEEEZNS_21makeCommandLineParserERNS_10ConfigDataEEUlRKS8_E0_EENS1_11BasicResultINS1_15ParseResultTypeEEERKT0_SC_
FN:9180,9186,_ZN5Catch5clara6detail12invokeLambdaINSt7__cxx1112basic_stringIcSt11char_traitsIcESaIcEEEZNS_21makeCommandLineParserERNS_10ConfigDataEEUlRKS8_E1_EENS1_11BasicResultINS1_15ParseResultTypeEEERKT0_SC_
FN:9180,9186,_ZN5Catch5clara6detail12invokeLambdaINSt7__cxx1112basic_stringIcSt11char_traitsIcESaIcEEEZNS_21makeCommandLineParserERNS_10ConfigDataEEUlRKS8_E2_EENS1_11BasicResultINS1_15ParseResultTypeEEERKT0_SC_
FN:9180,9186,_ZN5Catch5clara6detail12invokeLambdaINSt7__cxx1112basic_stringIcSt11char_traitsIcESaIcEEEZNS_21makeCommandLineParserERNS_10ConfigDataEEUlRKS8_E3_EENS1_11BasicResultINS1_15ParseResultTypeEEERKT0_SC_
FN:9180,9186,_ZN5Catch5clara6detail12invokeLambdaINSt7__cxx1112basic_stringIcSt11char_traitsIcESaIcEEEZNS_21makeCommandLineParserERNS_10ConfigDataEEUlRKS8_E4_EENS1_11BasicResultINS1_15ParseResultTypeEEERKT0_SC_
FN:9180,9186,_ZN5Catch5clara6detail12invokeLambdaINSt7__cxx1112basic_stringIcSt11char_traitsIcESaIcEEEZNS_21makeCommandLineParserERNS_10ConfigDataEEUlRKS8_E5_EENS1_11BasicResultINS1_15ParseResultTypeEEERKT0_SC_
FN:9180,9186,_ZN5Catch5clara6detail12invokeLambdaINSt7__cxx1112basic_stringIcSt11char_traitsIcESaIcEEEZNS_21makeCommandLineParserERNS_10ConfigDataEEUlRKS8_E6_EENS1_11BasicResultINS1_15ParseResultTypeEEERKT0_SC_
FN:9180,9186,_ZN5Catch5clara6detail12invokeLambdaINSt7__cxx1112basic_stringIcSt11char_traitsIcESaIcEEEZNS_21makeCommandLineParserERNS_10ConfigDataEEUlRKS8_E_EENS1_11BasicResultINS1_15ParseResultTypeEEERKT0_SC_
FN:9180,9186,_ZN5Catch5clara6detail12invokeLambdaIbZNS_21makeCommandLineParserERNS_10ConfigDataEEUlbE0_EENS1_11BasicResultINS1_15ParseResultTypeEEERKT0_RKNSt7__cxx1112basic_stringIcSt11char_traitsIcESaIcEEE
FN:9180,9186,_ZN5Catch5clara6detail12invokeLambdaIiZNS_21makeCommandLineParserERNS_10ConfigDataEEUliE_EENS1_11BasicResultINS1_15ParseResultTypeEEERKT0_RKNSt7__cxx1112basic_stringIcSt11char_traitsIcESaIcEEE
FN:9193,9193,_ZN5Catch5clara6detail11BoundLambdaIZNS_21makeCommandLineParserERNS_10ConfigDataEEUlRKNSt7__cxx1112basic_stringIcSt11char_traitsIcESaIcEEEE0_EC2ERKSD_
FN:9193,9193,_ZN5Catch5clara6detail11BoundLambdaIZNS_21makeCommandLineParserERNS_10ConfigDataEEUlRKNSt7__cxx1112basic_stringIcSt11char_traitsIcESaIcEEEE1_EC2ERKSD_
FN:9193,9193,_ZN5Catch5clara6detail11BoundLambdaIZNS_21makeCommandLineParserERNS_10ConfigDataEEUlRKNSt7__cxx1112basic_stringIcSt11char_traitsIcESaIcEEEE2_EC2ERKSD_
FN:9193,9193,_ZN5Catch5clara6detail11BoundLambdaIZNS_21makeCommandLineParserERNS_10ConfigDataEEUlRKNSt7__cxx1112basic_stringIcSt11char_traitsIcESaIcEEEE3_EC2ERKSD_
FN:9193,9193,_ZN5Catch5clara6detail11BoundLambdaIZNS_21makeCommandLineParserERNS_10ConfigDataEEUlRKNSt7__cxx1112basic_stringIcSt11char_traitsIcESaIcEEEE4_EC2ERKSD_
FN:9193,9193,_ZN5Catch5clara6detail11BoundLambdaIZNS_21makeCommandLineParserERNS_10ConfigDataEEUlRKNSt7__cxx1112basic_stringIcSt11char_traitsIcESaIcEEEE5_EC2ERKSD_
FN:9193,9193,_ZN5Catch5clara6detail11BoundLambdaIZNS_21makeCommandLineParserERNS_10ConfigDataEEUlRKNSt7__cxx1112basic_stringIcSt11char_traitsIcESaIcEEEE6_EC2ERKSD_
FN:9193,9193,_ZN5Catch5clara6detail11BoundLambdaIZNS_21makeCommandLineParserERNS_10ConfigDataEEUlRKNSt7__cxx1112basic_stringIcSt11char_traitsIcESaIcEEEE_EC2ERKSD_
FN:9193,9193,_ZN5Catch5clara6detail11BoundLambdaIZNS_21makeCommandLineParserERNS_10ConfigDataEEUlbE0_EC2ERKS5_
FN:9193,9193,_ZN5Catch5clara6detail11BoundLambdaIZNS_21makeCommandLineParserERNS_10ConfigDataEEUliE_EC2ERKS5_
FN:9195,9197,_ZN5Catch5clara6detail11BoundLambdaIZNS_21makeCommandLineParserERNS_10ConfigDataEEUlRKNSt7__cxx1112basic_stringIcSt11char_traitsIcESaIcEEEE0_E8setValueESC_
FN:9195,9197,_ZN5Catch5clara6detail11BoundLambdaIZNS_21makeCommandLineParserERNS_10ConfigDataEEUlRKNSt7__cxx1112basic_stringIcSt11char_traitsIcESaIcEEEE1_E8setValueESC_
FN:9195,9197,_ZN5Catch5clara6detail11BoundLambdaIZNS_21makeCommandLineParserERNS_10ConfigDataEEUlRKNSt7__cxx1112basic_stringIcSt11char_traitsIcESaIcEEEE2_E8setValueESC_
FN:9195,9197,_ZN5Catch5clara6detail11BoundLambdaIZNS_21makeCommandLineParserERNS_10ConfigDataEEUlRKNSt7__cxx1112basic_stringIcSt11char_traitsIcESaIcEEEE3_E8setValueESC_
FN:9195,9197,_ZN5Catch5clara6detail11BoundLambdaIZNS_21makeCommandLineParserERNS_10ConfigDataEEUlRKNSt7__cxx1112basic_stringIcSt11char_traitsIcESaIcEEEE4_E8setValueESC_
FN:9195,9197,_ZN5Catch5clara6detail11BoundLambdaIZNS_21makeCommandLineParserERNS_10ConfigDataEEUlRKNSt7__cxx1112basic_stringIcSt11char_traitsIcESaIcEEEE5_E8setValueESC_
FN:9195,9197,_ZN5Catch5clara6detail11BoundLambdaIZNS_21makeCommandLineParserERNS_10ConfigDataEEUlRKNSt7__cxx1112basic_stringIcSt11char_traitsIcESaIcEEEE6_E8setValueESC_
FN:9195,9197,_ZN5Catch5clara6detail11BoundLambdaIZNS_21makeCommandLineParserERNS_10ConfigDataEEUlRKNSt7__cxx1112basic_stringIcSt11char_traitsIcESaIcEEEE_E8setValueESC_
FN:9195,9197,_ZN5Catch5clara6detail11BoundLambdaIZNS_21makeCommandLineParserERNS_10ConfigDataEEUlbE0_E8setValueERKNSt7__cxx1112basic_stringIcSt11char_traitsIcESaIcEEE
FN:9195,9197,_ZN5Catch5clara6detail11BoundLambdaIZNS_21makeCommandLineParserERNS_10ConfigDataEEUliE_E8setValueERKNSt7__cxx1112basic_stringIcSt11char_traitsIcESaIcEEE
FN:9207,9207,_ZN5Catch5clara6detail15BoundFlagLambdaIZNS1_4HelpC4ERbEUlbE_EC2ERKS5_
FN:9207,9207,_ZN5Catch5clara6detail15BoundFlagLambdaIZNS_21makeCommandLineParserERNS_10ConfigDataEEUlbE_EC2ERKS5_
FN:9209,9211,_ZN5Catch5clara6detail15BoundFlagLambdaIZNS1_4HelpC4ERbEUlbE_E7setFlagEb
FN:9209,9211,_ZN5Catch5clara6detail15BoundFlagLambdaIZNS_21makeCommandLineParserERNS_10ConfigDataEEUlbE_E7setFlagEb
FN:9220,9220,_ZN5Catch5clara6detail10ParserBaseD0Ev
FN:9220,9220,_ZN5Catch5clara6detail10ParserBaseD2Ev
FN:9221,9221,_ZNK5Catch5clara6detail10ParserBase8validateEv
FN:9223,9223,_ZNK5Catch5clara6detail10ParserBase11cardinalityEv
FN:9225,9227,_ZNK5Catch5clara6detail10ParserBase5parseERKNS1_4ArgsE
FN:9249,9249,_ZN5Catch5clara6detail13ParserRefImplINS1_3OptEEC2ERKSt10shared_ptrINS1_8BoundRefEE
FN:9253,9256,_ZN5Catch5clara6detail13ParserRefImplINS1_3ArgEEC2ISt6vectorINSt7__cxx1112basic_stringIcSt11char_traitsIcESaIcEEESaISC_EEEERT_RKSC_
FN:9253,9256,_ZN5Catch5clara6detail13ParserRefImplINS1_3OptEEC2INSt7__cxx1112basic_stringIcSt11char_traitsIcESaIcEEEEERT_RKSB_
FN:9253,9256,_ZN5Catch5clara6detail13ParserRefImplINS1_3OptEEC2ISt6vectorINSt7__cxx1112basic_stringIcSt11char_traitsIcESaIcEEESaISC_EEEERT_RKSC_
FN:9253,9256,_ZN5Catch5clara6detail13ParserRefImplINS1_3OptEEC2IdEERT_RKNSt7__cxx1112basic_stringIcSt11char_traitsIcESaIcEEE
FN:9253,9256,_ZN5Catch5clara6detail13ParserRefImplINS1_3OptEEC2IjEERT_RKNSt7__cxx1112basic_stringIcSt11char_traitsIcESaIcEEE
FN:9253,9256,_ZN5Catch5clara6detail13ParserRefImplINS1_3OptEEC2IlEERT_RKNSt7__cxx1112basic_stringIcSt11char_traitsIcESaIcEEE
FN:9259,9262,_ZN5Catch5clara6detail13ParserRefImplINS1_3OptEEC2IZNS_21makeCommandLineParserERNS_10ConfigDataEEUlRKNSt7__cxx1112basic_stringIcSt11char_traitsIcESaIcEEEE0_EERKT_SF_
FN:9259,9262,_ZN5Catch5clara6detail13ParserRefImplINS1_3OptEEC2IZNS_21makeCommandLineParserERNS_10ConfigDataEEUlRKNSt7__cxx1112basic_stringIcSt11char_traitsIcESaIcEEEE1_EERKT_SF_
FN:9259,9262,_ZN5Catch5clara6detail13ParserRefImplINS1_3OptEEC2IZNS_21makeCommandLineParserERNS_10ConfigDataEEUlRKNSt7__cxx1112basic_stringIcSt11char_traitsIcESaIcEEEE2_EERKT_SF_
FN:9259,9262,_ZN5Catch5clara6detail13ParserRefImplINS1_3OptEEC2IZNS_21makeCommandLineParserERNS_10ConfigDataEEUlRKNSt7__cxx1112basic_stringIcSt11char_traitsIcESaIcEEEE3_EERKT_SF_
FN:9259,9262,_ZN5Catch5clara6detail13ParserRefImplINS1_3OptEEC2IZNS_21makeCommandLineParserERNS_10ConfigDataEEUlRKNSt7__cxx1112basic_stringIcSt11char_traitsIcESaIcEEEE4_EERKT_SF_
FN:9259,9262,_ZN5Catch5clara6detail13ParserRefImplINS1_3OptEEC2IZNS_21makeCommandLineParserERNS_10ConfigDataEEUlRKNSt7__cxx1112basic_stringIcSt11char_traitsIcESaIcEEEE5_EERKT_SF_
FN:9259,9262,_ZN5Catch5clara6detail13ParserRefImplINS1_3OptEEC2IZNS_21makeCommandLineParserERNS_10ConfigDataEEUlRKNSt7__cxx1112basic_stringIcSt11char_traitsIcESaIcEEEE6_EERKT_SF_
FN:9259,9262,_ZN5Catch5clara6detail13ParserRefImplINS1_3OptEEC2IZNS_21makeCommandLineParserERNS_10ConfigDataEEUlRKNSt7__cxx1112basic_stringIcSt11char_traitsIcESaIcEEEE_EERKT_SF_
FN:9259,9262,_ZN5Catch5clara6detail13ParserRefImplINS1_3OptEEC2IZNS_21makeCommandLineParserERNS_10ConfigDataEEUlbE0_EERKT_RKNSt7__cxx1112basic_stringIcSt11char_traitsIcESaIcEEE
FN:9259,9262,_ZN5Catch5clara6detail13ParserRefImplINS1_3OptEEC2IZNS_21makeCommandLineParserERNS_10ConfigDataEEUliE_EERKT_RKNSt7__cxx1112basic_stringIcSt11char_traitsIcESaIcEEE
FN:9264,9267,_ZN5Catch5clara6detail13ParserRefImplINS1_3ArgEEclERKNSt7__cxx1112basic_stringIcSt11char_traitsIcESaIcEEE
FN:9264,9267,_ZN5Catch5clara6detail13ParserRefImplINS1_3OptEEclERKNSt7__cxx1112basic_stringIcSt11char_traitsIcESaIcEEE
FN:9269,9272,_ZN5Catch5clara6detail13ParserRefImplINS1_3OptEE8optionalEv
FN:9279,9281,_ZNK5Catch5clara6detail13ParserRefImplINS1_3ArgEE10isOptionalEv
FN:9283,9288,_ZNK5Catch5clara6detail13ParserRefImplINS1_3ArgEE11cardinalityEv
FN:9283,9288,_ZNK5Catch5clara6detail13ParserRefImplINS1_3OptEE11cardinalityEv
FN:9290,9290,_ZNK5Catch5clara6detail13ParserRefImplINS1_3ArgEE4hintB5cxx11Ev
FN:9303,9303,_ZN5Catch5clara6detail7ExeNameC2Ev
FN:9305,9307,_ZN5Catch5clara6detail7ExeNameC2ERNSt7__cxx1112basic_stringIcSt11char_traitsIcESaIcEEE
FN:9315,9317,_ZNK5Catch5clara6detail7ExeName5parseERKNSt7__cxx1112basic_stringIcSt11char_traitsIcESaIcEEERKNS1_11TokenStreamE
FN:9319,9319,_ZNK5Catch5clara6detail7ExeName4nameB5cxx11Ev
FN:9320,9332,_ZN5Catch5clara6detail7ExeName3setERKNSt7__cxx1112basic_stringIcSt11char_traitsIcESaIcEEE
FN:9339,9357,_ZNK5Catch5clara6detail3Arg5parseERKNSt7__cxx1112basic_stringIcSt11char_traitsIcESaIcEEERKNS1_11TokenStreamE
FN:9360,9367,_ZN5Catch5clara6detail12normaliseOptERKNSt7__cxx1112basic_stringIcSt11char_traitsIcESaIcEEE
FN:9375,9375,_ZN5Catch5clara6detail3OptC2IZNS1_4HelpC4ERbEUlbE_EERKT_
FN:9375,9375,_ZN5Catch5clara6detail3OptC2IZNS_21makeCommandLineParserERNS_10ConfigDataEEUlbE_EERKT_
FN:9377,9377,_ZN5Catch5clara6detail3OptC2ERb
FN:9380,9380,_ZN5Catch5clara6detail3OptC2IZNS_21makeCommandLineParserERNS_10ConfigDataEEUlRKNSt7__cxx1112basic_stringIcSt11char_traitsIcESaIcEEEE0_EERKT_SD_
FN:9380,9380,_ZN5Catch5clara6detail3OptC2IZNS_21makeCommandLineParserERNS_10ConfigDataEEUlRKNSt7__cxx1112basic_stringIcSt11char_traitsIcESaIcEEEE1_EERKT_SD_
FN:9380,9380,_ZN5Catch5clara6detail3OptC2IZNS_21makeCommandLineParserERNS_10ConfigDataEEUlRKNSt7__cxx1112basic_stringIcSt11char_traitsIcESaIcEEEE2_EERKT_SD_
FN:9380,9380,_ZN5Catch5clara6detail3OptC2IZNS_21makeCommandLineParserERNS_10ConfigDataEEUlRKNSt7__cxx1112basic_stringIcSt11char_traitsIcESaIcEEEE3_EERKT_SD_
FN:9380,9380,_ZN5Catch5clara6detail3OptC2IZNS_21makeCommandLineParserERNS_10ConfigDataEEUlRKNSt7__cxx1112basic_stringIcSt11char_traitsIcESaIcEEEE4_EERKT_SD_
FN:9380,9380,_ZN5Catch5clara6detail3OptC2IZNS_21makeCommandLineParserERNS_10ConfigDataEEUlRKNSt7__cxx1112basic_stringIcSt11char_traitsIcESaIcEEEE5_EERKT_SD_
FN:9380,9380,_ZN5Catch5clara6detail3OptC2IZNS_21makeCommandLineParserERNS_10ConfigDataEEUlRKNSt7__cxx1112basic_stringIcSt11char_traitsIcESaIcEEEE6_EERKT_SD_
FN:9380,9380,_ZN5Catch5clara6detail3OptC2IZNS_21makeCommandLineParserERNS_10ConfigDataEEUlRKNSt7__cxx1112basic_stringIcSt11char_traitsIcESaIcEEEE_EERKT_SD_
FN:9380,9380,_ZN5Catch5clara6detail3OptC2IZNS_21makeCommandLineParserERNS_10ConfigDataEEUlbE0_EERKT_RKNSt7__cxx1112basic_stringIcSt11char_traitsIcESaIcEEE
FN:9380,9380,_ZN5Catch5clara6detail3OptC2IZNS_21makeCommandLineParserERNS_10ConfigDataEEUliE_EERKT_RKNSt7__cxx1112basic_stringIcSt11char_traitsIcESaIcEEE
FN:9383,9383,_ZN5Catch5clara6detail3OptC2INSt7__cxx1112basic_stringIcSt11char_traitsIcESaIcEEEEERT_RKS9_
FN:9383,9383,_ZN5Catch5clara6detail3OptC2ISt6vectorINSt7__cxx1112basic_stringIcSt11char_traitsIcESaIcEEESaISA_EEEERT_RKSA_
FN:9383,9383,_ZN5Catch5clara6detail3OptC2IdEERT_RKNSt7__cxx1112basic_stringIcSt11char_traitsIcESaIcEEE
FN:9383,9383,_ZN5Catch5clara6detail3OptC2IjEERT_RKNSt7__cxx1112basic_stringIcSt11char_traitsIcESaIcEEE
FN:9383,9383,_ZN5Catch5clara6detail3OptC2IlEERT_RKNSt7__cxx1112basic_stringIcSt11char_traitsIcESaIcEEE
FN:9385,9388,_ZN5Catch5clara6detail3OptixERKNSt7__cxx1112basic_stringIcSt11char_traitsIcESaIcEEE
FN:9390,9403,_ZNK5Catch5clara6detail3Opt14getHelpColumnsEv
FN:9405,9412,_ZNK5Catch5clara6detail3Opt7isMatchERKNSt7__cxx1112basic_stringIcSt11char_traitsIcESaIcEEE
FN:9416,9450,_ZNK5Catch5clara6detail3Opt5parseERKNSt7__cxx1112basic_stringIcSt11char_traitsIcESaIcEEERKNS1_11TokenStreamE
FN:9452,9467,_ZNK5Catch5clara6detail3Opt8validateEv
FN:9471,9481,_ZN5Catch5clara6detail4HelpC2ERb
FN:9472,9475,_ZZN5Catch5clara6detail4HelpC4ERbENKUlbE_clEb
FN:9490,9493,_ZN5Catch5clara6detail6ParseroRERKNS1_7ExeNameE
FN:9495,9498,_ZN5Catch5clara6detail6ParseroRERKNS1_3ArgE
FN:9500,9503,_ZN5Catch5clara6detail6ParseroRERKNS1_3OptE
FN:9512,9514,_ZNK5Catch5clara6detail6ParserorINS1_3ArgEEES2_RKT_
FN:9512,9514,_ZNK5Catch5clara6detail6ParserorINS1_3OptEEES2_RKT_
FN:9512,9514,_ZNK5Catch5clara6detail6ParserorINS1_4HelpEEES2_RKT_
FN:9512,9514,_ZNK5Catch5clara6detail6ParserorINS1_7ExeNameEEES2_RKT_
FN:9522,9529,_ZNK5Catch5clara6detail6Parser14getHelpColumnsEv
FN:9531,9570,_ZNK5Catch5clara6detail6Parser13writeToStreamERSo
FN:9572,9575,_ZN5Catch5clara6detaillsERSoRKNS1_6ParserE
FN:9577,9589,_ZNK5Catch5clara6detail6Parser8validateEv
FN:9593,9637,_ZNK5Catch5clara6detail6Parser5parseERKNSt7__cxx1112basic_stringIcSt11char_traitsIcESaIcEEERKNS1_11TokenStreamE
FN:963,963,_ZN5Catch19TestInvokerAsMethodIN12_GLOBAL__N_129____C_A_T_C_H____T_E_S_T____0EEC2EMS2_FvvE
FN:963,963,_ZN5Catch19TestInvokerAsMethodIN12_GLOBAL__N_129____C_A_T_C_H____T_E_S_T____2EEC2EMS2_FvvE
FN:963,963,_ZN5Catch19TestInvokerAsMethodIN12_GLOBAL__N_129____C_A_T_C_H____T_E_S_T____4EEC2EMS2_FvvE
FN:963,963,_ZN5Catch19TestInvokerAsMethodIN12_GLOBAL__N_129____C_A_T_C_H____T_E_S_T____6EEC2EMS2_FvvE
FN:963,963,_ZN5Catch19TestInvokerAsMethodIN12_GLOBAL__N_129____C_A_T_C_H____T_E_S_T____8EEC2EMS2_FvvE
FN:963,963,_ZN5Catch19TestInvokerAsMethodIN12_GLOBAL__N_130____C_A_T_C_H____T_E_S_T____34EEC2EMS2_FvvE
FN:963,963,_ZN5Catch19TestInvokerAsMethodIN12_GLOBAL__N_130____C_A_T_C_H____T_E_S_T____36EEC2EMS2_FvvE
FN:963,963,_ZN5Catch19TestInvokerAsMethodIN12_GLOBAL__N_130____C_A_T_C_H____T_E_S_T____38EEC2EMS2_FvvE
FN:963,963,_ZN5Catch19TestInvokerAsMethodIN12_GLOBAL__N_130____C_A_T_C_H____T_E_S_T____40EEC2EMS2_FvvE
FN:963,963,_ZN5Catch19TestInvokerAsMethodIN12_GLOBAL__N_130____C_A_T_C_H____T_E_S_T____42EEC2EMS2_FvvE
FN:963,963,_ZN5Catch19TestInvokerAsMethodIN12_GLOBAL__N_130____C_A_T_C_H____T_E_S_T____44EEC2EMS2_FvvE
FN:963,963,_ZN5Catch19TestInvokerAsMethodIN12_GLOBAL__N_130____C_A_T_C_H____T_E_S_T____46EEC2EMS2_FvvE
FN:963,963,_ZN5Catch19TestInvokerAsMethodIN12_GLOBAL__N_130____C_A_T_C_H____T_E_S_T____48EEC2EMS2_FvvE
FN:963,963,_ZN5Catch19TestInvokerAsMethodIN12_GLOBAL__N_130____C_A_T_C_H____T_E_S_T____50EEC2EMS2_FvvE
FN:963,963,_ZN5Catch19TestInvokerAsMethodIN12_GLOBAL__N_130____C_A_T_C_H____T_E_S_T____52EEC2EMS2_FvvE
FN:963,963,_ZN5Catch19TestInvokerAsMethodIN12_GLOBAL__N_130____C_A_T_C_H____T_E_S_T____54EEC2EMS2_FvvE
FN:963,963,_ZN5Catch19TestInvokerAsMethodIN12_GLOBAL__N_130____C_A_T_C_H____T_E_S_T____56EEC2EMS2_FvvE
FN:963,963,_ZN5Catch19TestInvokerAsMethodIN12_GLOBAL__N_130____C_A_T_C_H____T_E_S_T____58EEC2EMS2_FvvE
FN:963,963,_ZN5Catch19TestInvokerAsMethodIN12_GLOBAL__N_130____C_A_T_C_H____T_E_S_T____60EEC2EMS2_FvvE
FN:963,963,_ZN5Catch19TestInvokerAsMethodIN12_GLOBAL__N_130____C_A_T_C_H____T_E_S_T____62EEC2EMS2_FvvE
FN:963,963,_ZN5Catch19TestInvokerAsMethodIN12_GLOBAL__N_130____C_A_T_C_H____T_E_S_T____64EEC2EMS2_FvvE
FN:963,963,_ZN5Catch19TestInvokerAsMethodIN12_GLOBAL__N_130____C_A_T_C_H____T_E_S_T____66EEC2EMS2_FvvE
FN:963,963,_ZN5Catch19TestInvokerAsMethodIN12_GLOBAL__N_130____C_A_T_C_H____T_E_S_T____68EEC2EMS2_FvvE
FN:963,963,_ZN5Catch19TestInvokerAsMethodIN12_GLOBAL__N_130____C_A_T_C_H____T_E_S_T____70EEC2EMS2_FvvE
FN:963,963,_ZN5Catch19TestInvokerAsMethodIN12_GLOBAL__N_130____C_A_T_C_H____T_E_S_T____72EEC2EMS2_FvvE
FN:963,963,_ZN5Catch19TestInvokerAsMethodIN12_GLOBAL__N_130____C_A_T_C_H____T_E_S_T____74EEC2EMS2_FvvE
FN:963,963,_ZN5Catch19TestInvokerAsMethodIN12_GLOBAL__N_130____C_A_T_C_H____T_E_S_T____76EEC2EMS2_FvvE
FN:963,963,_ZN5Catch19TestInvokerAsMethodIN12_GLOBAL__N_130____C_A_T_C_H____T_E_S_T____78EEC2EMS2_FvvE
FN:963,963,_ZN5Catch19TestInvokerAsMethodIN12_GLOBAL__N_130____C_A_T_C_H____T_E_S_T____80EEC2EMS2_FvvE
FN:963,963,_ZN5Catch19TestInvokerAsMethodIN12_GLOBAL__N_130____C_A_T_C_H____T_E_S_T____82EEC2EMS2_FvvE
FN:963,963,_ZN5Catch19TestInvokerAsMethodIN12_GLOBAL__N_130____C_A_T_C_H____T_E_S_T____84EEC2EMS2_FvvE
FN:963,963,_ZN5Catch19TestInvokerAsMethodIN12_GLOBAL__N_130____C_A_T_C_H____T_E_S_T____86EEC2EMS2_FvvE
FN:963,963,_ZN5Catch19TestInvokerAsMethodIN12_GLOBAL__N_130____C_A_T_C_H____T_E_S_T____88EEC2EMS2_FvvE
FN:963,963,_ZN5Catch19TestInvokerAsMethodIN12_GLOBAL__N_130____C_A_T_C_H____T_E_S_T____90EEC2EMS2_FvvE
FN:963,963,_ZN5Catch19TestInvokerAsMethodIN12_GLOBAL__N_130____C_A_T_C_H____T_E_S_T____92EEC2EMS2_FvvE
FN:963,963,_ZN5Catch19TestInvokerAsMethodIN12_GLOBAL__N_130____C_A_T_C_H____T_E_S_T____94EEC2EMS2_FvvE
FN:963,963,_ZN5Catch19TestInvokerAsMethodIN12_GLOBAL__N_130____C_A_T_C_H____T_E_S_T____96EEC2EMS2_FvvE
FN:963,963,_ZN5Catch19TestInvokerAsMethodIN12_GLOBAL__N_130____C_A_T_C_H____T_E_S_T____98EEC2EMS2_FvvE
FN:963,963,_ZN5Catch19TestInvokerAsMethodIN12_GLOBAL__N_131____C_A_T_C_H____T_E_S_T____100EEC2EMS2_FvvE
FN:963,963,_ZN5Catch19TestInvokerAsMethodIN12_GLOBAL__N_131____C_A_T_C_H____T_E_S_T____102EEC2EMS2_FvvE
FN:963,963,_ZN5Catch19TestInvokerAsMethodIN12_GLOBAL__N_131____C_A_T_C_H____T_E_S_T____104EEC2EMS2_FvvE
FN:963,963,_ZN5Catch19TestInvokerAsMethodIN12_GLOBAL__N_131____C_A_T_C_H____T_E_S_T____106EEC2EMS2_FvvE
FN:963,963,_ZN5Catch19TestInvokerAsMethodIN12_GLOBAL__N_131____C_A_T_C_H____T_E_S_T____108EEC2EMS2_FvvE
FN:963,963,_ZN5Catch19TestInvokerAsMethodIN12_GLOBAL__N_131____C_A_T_C_H____T_E_S_T____110EEC2EMS2_FvvE
FN:963,963,_ZN5Catch19TestInvokerAsMethodIN12_GLOBAL__N_131____C_A_T_C_H____T_E_S_T____112EEC2EMS2_FvvE
FN:963,963,_ZN5Catch19TestInvokerAsMethodIN12_GLOBAL__N_131____C_A_T_C_H____T_E_S_T____114EEC2EMS2_FvvE
FN:963,963,_ZN5Catch19TestInvokerAsMethodIN12_GLOBAL__N_131____C_A_T_C_H____T_E_S_T____116EEC2EMS2_FvvE
FN:9642,9644,_ZNK5Catch5clara6detail20ComposableParserImplINS1_7ExeNameEEorINS1_4HelpEEENS1_6ParserERKT_
FN:965,968,_ZNK5Catch19TestInvokerAsMethodIN12_GLOBAL__N_129____C_A_T_C_H____T_E_S_T____0EE6invokeEv
FN:965,968,_ZNK5Catch19TestInvokerAsMethodIN12_GLOBAL__N_129____C_A_T_C_H____T_E_S_T____2EE6invokeEv
FN:965,968,_ZNK5Catch19TestInvokerAsMethodIN12_GLOBAL__N_129____C_A_T_C_H____T_E_S_T____4EE6invokeEv
FN:965,968,_ZNK5Catch19TestInvokerAsMethodIN12_GLOBAL__N_129____C_A_T_C_H____T_E_S_T____6EE6invokeEv
FN:965,968,_ZNK5Catch19TestInvokerAsMethodIN12_GLOBAL__N_129____C_A_T_C_H____T_E_S_T____8EE6invokeEv
FN:965,968,_ZNK5Catch19TestInvokerAsMethodIN12_GLOBAL__N_130____C_A_T_C_H____T_E_S_T____34EE6invokeEv
FN:965,968,_ZNK5Catch19TestInvokerAsMethodIN12_GLOBAL__N_130____C_A_T_C_H____T_E_S_T____36EE6invokeEv
FN:965,968,_ZNK5Catch19TestInvokerAsMethodIN12_GLOBAL__N_130____C_A_T_C_H____T_E_S_T____38EE6invokeEv
FN:965,968,_ZNK5Catch19TestInvokerAsMethodIN12_GLOBAL__N_130____C_A_T_C_H____T_E_S_T____40EE6invokeEv
FN:965,968,_ZNK5Catch19TestInvokerAsMethodIN12_GLOBAL__N_130____C_A_T_C_H____T_E_S_T____42EE6invokeEv
FN:965,968,_ZNK5Catch19TestInvokerAsMethodIN12_GLOBAL__N_130____C_A_T_C_H____T_E_S_T____44EE6invokeEv
FN:965,968,_ZNK5Catch19TestInvokerAsMethodIN12_GLOBAL__N_130____C_A_T_C_H____T_E_S_T____46EE6invokeEv
FN:965,968,_ZNK5Catch19TestInvokerAsMethodIN12_GLOBAL__N_130____C_A_T_C_H____T_E_S_T____48EE6invokeEv
FN:965,968,_ZNK5Catch19TestInvokerAsMethodIN12_GLOBAL__N_130____C_A_T_C_H____T_E_S_T____50EE6invokeEv
FN:965,968,_ZNK5Catch19TestInvokerAsMethodIN12_GLOBAL__N_130____C_A_T_C_H____T_E_S_T____52EE6invokeEv
FN:965,968,_ZNK5Catch19TestInvokerAsMethodIN12_GLOBAL__N_130____C_A_T_C_H____T_E_S_T____54EE6invokeEv
FN:965,968,_ZNK5Catch19TestInvokerAsMethodIN12_GLOBAL__N_130____C_A_T_C_H____T_E_S_T____56EE6invokeEv
FN:965,968,_ZNK5Catch19TestInvokerAsMethodIN12_GLOBAL__N_130____C_A_T_C_H____T_E_S_T____58EE6invokeEv
FN:965,968,_ZNK5Catch19TestInvokerAsMethodIN12_GLOBAL__N_130____C_A_T_C_H____T_E_S_T____60EE6invokeEv
FN:965,968,_ZNK5Catch19TestInvokerAsMethodIN12_GLOBAL__N_130____C_A_T_C_H____T_E_S_T____62EE6invokeEv
FN:965,968,_ZNK5Catch19TestInvokerAsMethodIN12_GLOBAL__N_130____C_A_T_C_H____T_E_S_T____64EE6invokeEv
FN:965,968,_ZNK5Catch19TestInvokerAsMethodIN12_GLOBAL__N_130____C_A_T_C_H____T_E_S_T____66EE6invokeEv
FN:965,968,_ZNK5Catch19TestInvokerAsMethodIN12_GLOBAL__N_130____C_A_T_C_H____T_E_S_T____68EE6invokeEv
FN:965,968,_ZNK5Catch19TestInvokerAsMethodIN12_GLOBAL__N_130____C_A_T_C_H____T_E_S_T____70EE6invokeEv
FN:965,968,_ZNK5Catch19TestInvokerAsMethodIN12_GLOBAL__N_130____C_A_T_C_H____T_E_S_T____72EE6invokeEv
FN:965,968,_ZNK5Catch19TestInvokerAsMethodIN12_GLOBAL__N_130____C_A_T_C_H____T_E_S_T____74EE6invokeEv
FN:965,968,_ZNK5Catch19TestInvokerAsMethodIN12_GLOBAL__N_130____C_A_T_C_H____T_E_S_T____76EE6invokeEv
FN:965,968,_ZNK5Catch19TestInvokerAsMethodIN12_GLOBAL__N_130____C_A_T_C_H____T_E_S_T____78EE6invokeEv
FN:965,968,_ZNK5Catch19TestInvokerAsMethodIN12_GLOBAL__N_130____C_A_T_C_H____T_E_S_T____80EE6invokeEv
FN:965,968,_ZNK5Catch19TestInvokerAsMethodIN12_GLOBAL__N_130____C_A_T_C_H____T_E_S_T____82EE6invokeEv
FN:965,968,_ZNK5Catch19TestInvokerAsMethodIN12_GLOBAL__N_130____C_A_T_C_H____T_E_S_T____84EE6invokeEv
FN:965,968,_ZNK5Catch19TestInvokerAsMethodIN12_GLOBAL__N_130____C_A_T_C_H____T_E_S_T____86EE6invokeEv
FN:965,968,_ZNK5Catch19TestInvokerAsMethodIN12_GLOBAL__N_130____C_A_T_C_H____T_E_S_T____88EE6invokeEv
FN:965,968,_ZNK5Catch19TestInvokerAsMethodIN12_GLOBAL__N_130____C_A_T_C_H____T_E_S_T____90EE6invokeEv
FN:965,968,_ZNK5Catch19TestInvokerAsMethodIN12_GLOBAL__N_130____C_A_T_C_H____T_E_S_T____92EE6invokeEv
FN:965,968,_ZNK5Catch19TestInvokerAsMethodIN12_GLOBAL__N_130____C_A_T_C_H____T_E_S_T____94EE6invokeEv
FN:965,968,_ZNK5Catch19TestInvokerAsMethodIN12_GLOBAL__N_130____C_A_T_C_H____T_E_S_T____96EE6invokeEv
FN:965,968,_ZNK5Catch19TestInvokerAsMethodIN12_GLOBAL__N_130____C_A_T_C_H____T_E_S_T____98EE6invokeEv
FN:965,968,_ZNK5Catch19TestInvokerAsMethodIN12_GLOBAL__N_131____C_A_T_C_H____T_E_S_T____100EE6invokeEv
FN:965,968,_ZNK5Catch19TestInvokerAsMethodIN12_GLOBAL__N_131____C_A_T_C_H____T_E_S_T____102EE6invokeEv
FN:965,968,_ZNK5Catch19TestInvokerAsMethodIN12_GLOBAL__N_131____C_A_T_C_H____T_E_S_T____104EE6invokeEv
FN:965,968,_ZNK5Catch19TestInvokerAsMethodIN12_GLOBAL__N_131____C_A_T_C_H____T_E_S_T____106EE6invokeEv
FN:965,968,_ZNK5Catch19TestInvokerAsMethodIN12_GLOBAL__N_131____C_A_T_C_H____T_E_S_T____108EE6invokeEv
FN:965,968,_ZNK5Catch19TestInvokerAsMethodIN12_GLOBAL__N_131____C_A_T_C_H____T_E_S_T____110EE6invokeEv
FN:965,968,_ZNK5Catch19TestInvokerAsMethodIN12_GLOBAL__N_131____C_A_T_C_H____T_E_S_T____112EE6invokeEv
FN:965,968,_ZNK5Catch19TestInvokerAsMethodIN12_GLOBAL__N_131____C_A_T_C_H____T_E_S_T____114EE6invokeEv
FN:965,968,_ZNK5Catch19TestInvokerAsMethodIN12_GLOBAL__N_131____C_A_T_C_H____T_E_S_T____116EE6invokeEv
FN:9697,9904,_ZN5Catch21makeCommandLineParserERNS_10ConfigDataE
FN:9701,9716,_ZZN5Catch21makeCommandLineParserERNS_10ConfigDataEENKUlRKNSt7__cxx1112basic_stringIcSt11char_traitsIcESaIcEEEE_clES9_
FN:9702,9710,_ZZZN5Catch21makeCommandLineParserERNS_10ConfigDataEENKUlRKNSt7__cxx1112basic_stringIcSt11char_traitsIcESaIcEEEE_clES9_ENKUlvE_clEv
FN:9717,9737,_ZZN5Catch21makeCommandLineParserERNS_10ConfigDataEENKUlRKNSt7__cxx1112basic_stringIcSt11char_traitsIcESaIcEEEE0_clES9_
FN:9738,9748,_ZZN5Catch21makeCommandLineParserERNS_10ConfigDataEENKUlRKNSt7__cxx1112basic_stringIcSt11char_traitsIcESaIcEEEE1_clES9_
FN:974,976,_ZN5Catch15makeTestInvokerIN12_GLOBAL__N_129____C_A_T_C_H____T_E_S_T____0EEEPNS_12ITestInvokerEMT_FvvE
FN:974,976,_ZN5Catch15makeTestInvokerIN12_GLOBAL__N_129____C_A_T_C_H____T_E_S_T____2EEEPNS_12ITestInvokerEMT_FvvE
FN:974,976,_ZN5Catch15makeTestInvokerIN12_GLOBAL__N_129____C_A_T_C_H____T_E_S_T____4EEEPNS_12ITestInvokerEMT_FvvE
FN:974,976,_ZN5Catch15makeTestInvokerIN12_GLOBAL__N_129____C_A_T_C_H____T_E_S_T____6EEEPNS_12ITestInvokerEMT_FvvE
FN:974,976,_ZN5Catch15makeTestInvokerIN12_GLOBAL__N_129____C_A_T_C_H____T_E_S_T____8EEEPNS_12ITestInvokerEMT_FvvE
FN:974,976,_ZN5Catch15makeTestInvokerIN12_GLOBAL__N_130____C_A_T_C_H____T_E_S_T____34EEEPNS_12ITestInvokerEMT_FvvE
FN:974,976,_ZN5Catch15makeTestInvokerIN12_GLOBAL__N_130____C_A_T_C_H____T_E_S_T____36EEEPNS_12ITestInvokerEMT_FvvE
FN:974,976,_ZN5Catch15makeTestInvokerIN12_GLOBAL__N_130____C_A_T_C_H____T_E_S_T____38EEEPNS_12ITestInvokerEMT_FvvE
FN:974,976,_ZN5Catch15makeTestInvokerIN12_GLOBAL__N_130____C_A_T_C_H____T_E_S_T____40EEEPNS_12ITestInvokerEMT_FvvE
FN:974,976,_ZN5Catch15makeTestInvokerIN12_GLOBAL__N_130____C_A_T_C_H____T_E_S_T____42EEEPNS_12ITestInvokerEMT_FvvE
FN:974,976,_ZN5Catch15makeTestInvokerIN12_GLOBAL__N_130____C_A_T_C_H____T_E_S_T____44EEEPNS_12ITestInvokerEMT_FvvE
FN:974,976,_ZN5Catch15makeTestInvokerIN12_GLOBAL__N_130____C_A_T_C_H____T_E_S_T____46EEEPNS_12ITestInvokerEMT_FvvE
FN:974,976,_ZN5Catch15makeTestInvokerIN12_GLOBAL__N_130____C_A_T_C_H____T_E_S_T____48EEEPNS_12ITestInvokerEMT_FvvE
FN:974,976,_ZN5Catch15makeTestInvokerIN12_GLOBAL__N_130____C_A_T_C_H____T_E_S_T____50EEEPNS_12ITestInvokerEMT_FvvE
FN:974,976,_ZN5Catch15makeTestInvokerIN12_GLOBAL__N_130____C_A_T_C_H____T_E_S_T____52EEEPNS_12ITestInvokerEMT_FvvE
FN:974,976,_ZN5Catch15makeTestInvokerIN12_GLOBAL__N_130____C_A_T_C_H____T_E_S_T____54EEEPNS_12ITestInvokerEMT_FvvE
FN:974,976,_ZN5Catch15makeTestInvokerIN12_GLOBAL__N_130____C_A_T_C_H____T_E_S_T____56EEEPNS_12ITestInvokerEMT_FvvE
FN:974,976,_ZN5Catch15makeTestInvokerIN12_GLOBAL__N_130____C_A_T_C_H____T_E_S_T____58EEEPNS_12ITestInvokerEMT_FvvE
FN:974,976,_ZN5Catch15makeTestInvokerIN12_GLOBAL__N_130____C_A_T_C_H____T_E_S_T____60EEEPNS_12ITestInvokerEMT_FvvE
FN:974,976,_ZN5Catch15makeTestInvokerIN12_GLOBAL__N_130____C_A_T_C_H____T_E_S_T____62EEEPNS_12ITestInvokerEMT_FvvE
FN:974,976,_ZN5Catch15makeTestInvokerIN12_GLOBAL__N_130____C_A_T_C_H____T_E_S_T____64EEEPNS_12ITestInvokerEMT_FvvE
FN:974,976,_ZN5Catch15makeTestInvokerIN12_GLOBAL__N_130____C_A_T_C_H____T_E_S_T____66EEEPNS_12ITestInvokerEMT_FvvE
FN:974,976,_ZN5Catch15makeTestInvokerIN12_GLOBAL__N_130____C_A_T_C_H____T_E_S_T____68EEEPNS_12ITestInvokerEMT_FvvE
FN:974,976,_ZN5Catch15makeTestInvokerIN12_GLOBAL__N_130____C_A_T_C_H____T_E_S_T____70EEEPNS_12ITestInvokerEMT_FvvE
FN:974,976,_ZN5Catch15makeTestInvokerIN12_GLOBAL__N_130____C_A_T_C_H____T_E_S_T____72EEEPNS_12ITestInvokerEMT_FvvE
FN:974,976,_ZN5Catch15makeTestInvokerIN12_GLOBAL__N_130____C_A_T_C_H____T_E_S_T____74EEEPNS_12ITestInvokerEMT_FvvE
FN:974,976,_ZN5Catch15makeTestInvokerIN12_GLOBAL__N_130____C_A_T_C_H____T_E_S_T____76EEEPNS_12ITestInvokerEMT_FvvE
FN:974,976,_ZN5Catch15makeTestInvokerIN12_GLOBAL__N_130____C_A_T_C_H____T_E_S_T____78EEEPNS_12ITestInvokerEMT_FvvE
FN:974,976,_ZN5Catch15makeTestInvokerIN12_GLOBAL__N_130____C_A_T_C_H____T_E_S_T____80EEEPNS_12ITestInvokerEMT_FvvE
FN:974,976,_ZN5Catch15makeTestInvokerIN12_GLOBAL__N_130____C_A_T_C_H____T_E_S_T____82EEEPNS_12ITestInvokerEMT_FvvE
FN:974,976,_ZN5Catch15makeTestInvokerIN12_GLOBAL__N_130____C_A_T_C_H____T_E_S_T____84EEEPNS_12ITestInvokerEMT_FvvE
FN:974,976,_ZN5Catch15makeTestInvokerIN12_GLOBAL__N_130____C_A_T_C_H____T_E_S_T____86EEEPNS_12ITestInvokerEMT_FvvE
FN:974,976,_ZN5Catch15makeTestInvokerIN12_GLOBAL__N_130____C_A_T_C_H____T_E_S_T____88EEEPNS_12ITestInvokerEMT_FvvE
FN:974,976,_ZN5Catch15makeTestInvokerIN12_GLOBAL__N_130____C_A_T_C_H____T_E_S_T____90EEEPNS_12ITestInvokerEMT_FvvE
FN:974,976,_ZN5Catch15makeTestInvokerIN12_GLOBAL__N_130____C_A_T_C_H____T_E_S_T____92EEEPNS_12ITestInvokerEMT_FvvE
FN:974,976,_ZN5Catch15makeTestInvokerIN12_GLOBAL__N_130____C_A_T_C_H____T_E_S_T____94EEEPNS_12ITestInvokerEMT_FvvE
FN:974,976,_ZN5Catch15makeTestInvokerIN12_GLOBAL__N_130____C_A_T_C_H____T_E_S_T____96EEEPNS_12ITestInvokerEMT_FvvE
FN:974,976,_ZN5Catch15makeTestInvokerIN12_GLOBAL__N_130____C_A_T_C_H____T_E_S_T____98EEEPNS_12ITestInvokerEMT_FvvE
FN:974,976,_ZN5Catch15makeTestInvokerIN12_GLOBAL__N_131____C_A_T_C_H____T_E_S_T____100EEEPNS_12ITestInvokerEMT_FvvE
FN:974,976,_ZN5Catch15makeTestInvokerIN12_GLOBAL__N_131____C_A_T_C_H____T_E_S_T____102EEEPNS_12ITestInvokerEMT_FvvE
FN:974,976,_ZN5Catch15makeTestInvokerIN12_GLOBAL__N_131____C_A_T_C_H____T_E_S_T____104EEEPNS_12ITestInvokerEMT_FvvE
FN:974,976,_ZN5Catch15makeTestInvokerIN12_GLOBAL__N_131____C_A_T_C_H____T_E_S_T____106EEEPNS_12ITestInvokerEMT_FvvE
FN:974,976,_ZN5Catch15makeTestInvokerIN12_GLOBAL__N_131____C_A_T_C_H____T_E_S_T____108EEEPNS_12ITestInvokerEMT_FvvE
FN:974,976,_ZN5Catch15makeTestInvokerIN12_GLOBAL__N_131____C_A_T_C_H____T_E_S_T____110EEEPNS_12ITestInvokerEMT_FvvE
FN:974,976,_ZN5Catch15makeTestInvokerIN12_GLOBAL__N_131____C_A_T_C_H____T_E_S_T____112EEEPNS_12ITestInvokerEMT_FvvE
FN:974,976,_ZN5Catch15makeTestInvokerIN12_GLOBAL__N_131____C_A_T_C_H____T_E_S_T____114EEEPNS_12ITestInvokerEMT_FvvE
FN:974,976,_ZN5Catch15makeTestInvokerIN12_GLOBAL__N_131____C_A_T_C_H____T_E_S_T____116EEEPNS_12ITestInvokerEMT_FvvE
FN:9749,9754,_ZZN5Catch21makeCommandLineParserERNS_10ConfigDataEENKUlRKNSt7__cxx1112basic_stringIcSt11char_traitsIcESaIcEEEE2_clES9_
FN:9755,9767,_ZZN5Catch21makeCommandLineParserERNS_10ConfigDataEENKUlRKNSt7__cxx1112basic_stringIcSt11char_traitsIcESaIcEEEE3_clES9_
FN:9768,9781,_ZZN5Catch21makeCommandLineParserERNS_10ConfigDataEENKUlRKNSt7__cxx1112basic_stringIcSt11char_traitsIcESaIcEEEE4_clES9_
FN:9782,9793,_ZZN5Catch21makeCommandLineParserERNS_10ConfigDataEENKUlRKNSt7__cxx1112basic_stringIcSt11char_traitsIcESaIcEEEE5_clES9_
FN:9794,9805,_ZZN5Catch21makeCommandLineParserERNS_10ConfigDataEENKUlRKNSt7__cxx1112basic_stringIcSt11char_traitsIcESaIcEEEE6_clES9_
FN:9837,9837,_ZZN5Catch21makeCommandLineParserERNS_10ConfigDataEENKUlbE_clEb
FN:9840,9840,_ZZN5Catch21makeCommandLineParserERNS_10ConfigDataEENKUliE_clEi
FN:9846,9846,_ZZN5Catch21makeCommandLineParserERNS_10ConfigDataEENKUlbE0_clEb
FN:9915,9917,_ZNK5Catch14SourceLineInfoeqERKS0_
FN:9918,9922,_ZNK5Catch14SourceLineInfoltERKS0_
FN:9924,9931,_ZN5CatchlsERSoRKNS_14SourceLineInfoE
FN:9933,9935,_ZNK5Catch13StreamEndStoppsB5cxx11Ev
FN:9937,9937,_ZN5Catch11NonCopyableC2Ev
FN:9938,9938,_ZN5Catch11NonCopyableD0Ev
FN:9938,9938,_ZN5Catch11NonCopyableD2Ev
FN:9946,9969,_ZN5Catch6ConfigC2ERKNS_10ConfigDataE
FN:9971,9973,_ZNK5Catch6Config11getFilenameB5cxx11Ev
FN:9975,9975,_ZNK5Catch6Config9listTestsEv
FN:9976,9976,_ZNK5Catch6Config17listTestNamesOnlyEv
FN:9977,9977,_ZNK5Catch6Config8listTagsEv
FN:9978,9978,_ZNK5Catch6Config13listReportersEv
FN:9980,9980,_ZNK5Catch6Config14getProcessNameB5cxx11Ev
FN:9981,9981,_ZNK5Catch6Config15getReporterNameB5cxx11Ev
FN:9983,9983,_ZNK5Catch6Config14getTestsOrTagsB5cxx11Ev
FN:9984,9984,_ZNK5Catch6Config16getSectionsToRunB5cxx11Ev
FN:9986,9986,_ZNK5Catch6Config8testSpecEv
FN:9987,9987,_ZNK5Catch6Config14hasTestFiltersEv
FN:9989,9989,_ZNK5Catch6Config8showHelpEv
FN:9992,9992,_ZNK5Catch6Config11allowThrowsEv
FN:9993,9993,_ZNK5Catch6Config6streamEv
FN:9994,9994,_ZNK5Catch6Config4nameB5cxx11Ev
FN:9995,9995,_ZNK5Catch6Config24includeSuccessfulResultsEv
FN:9996,9996,_ZNK5Catch6Config26warnAboutMissingAssertionsEv
FN:9997,9997,_ZNK5Catch6Config16warnAboutNoTestsEv
FN:9998,9998,_ZNK5Catch6Config13showDurationsEv
FN:9999,9999,_ZNK5Catch6Config11minDurationEv
FNDA:3,_ZNK5Catch6Config8runOrderEv
FNDA:60,_ZNK5Catch6Config7rngSeedEv
FNDA:1,_ZNK5Catch6Config9useColourEv
FNDA:0,_ZNK5Catch6Config16shouldDebugBreakEv
FNDA:120,_ZNK5Catch6Config10abortAfterEv
FNDA:0,_ZNK5Catch6Config14showInvisiblesEv
FNDA:1,_ZNK5Catch6Config9verbosityEv
FNDA:1,_ZNK5Catch6Config19benchmarkNoAnalysisEv
FNDA:0,_ZNK5Catch6Config16benchmarkSamplesEv
FNDA:0,_ZNK5Catch6Config27benchmarkConfidenceIntervalEv
FNDA:0,_ZNK5Catch6Config18benchmarkResamplesEv
FNDA:0,_ZNK5Catch6Config19benchmarkWarmupTimeEv
FNDA:1,_ZN5Catch6Config10openStreamEv
FNDA:1,_ZN5Catch12_GLOBAL__N_111IColourImplD2Ev
FNDA:0,_ZN5Catch12_GLOBAL__N_112NoColourImpl3useENS_6Colour4CodeE
FNDA:0,_ZN5Catch12_GLOBAL__N_112NoColourImpl8instanceEv
FNDA:8,_ZN5Catch12_GLOBAL__N_115PosixColourImpl3useENS_6Colour4CodeE
FNDA:1,_ZN5Catch12_GLOBAL__N_115PosixColourImpl8instanceEv
FNDA:8,_ZN5Catch12_GLOBAL__N_115PosixColourImpl9setColourEPKc
FNDA:1,_ZN5Catch12_GLOBAL__N_119useColourOnPlatformEv
FNDA:1,_ZN5Catch12_GLOBAL__N_122platformColourInstanceEv
FNDA:4,_ZN5Catch6ColourC2ENS0_4CodeE
FNDA:0,_ZN5Catch6ColourC2EOS0_
FNDA:0,_ZN5Catch6ColouraSEOS0_
FNDA:4,_ZN5Catch6ColourD2Ev
FNDA:8,_ZN5Catch6Colour3useENS0_4CodeE
FNDA:4,_ZN5CatchlsERSoRKNS_6ColourE
FNDA:122,_ZN5Catch7Context16getResultCaptureEv
FNDA:0,_ZN5Catch7Context9getRunnerEv
FNDA:10,_ZNK5Catch7Context9getConfigEv
FNDA:1,_ZN5Catch7Context16setResultCaptureEPNS_14IResultCaptureE
FNDA:1,_ZN5Catch7Context9setRunnerEPNS_7IRunnerE
FNDA:2,_ZN5Catch7Context9setConfigERKSt10shared_ptrIKNS_7IConfigEE
FNDA:1,_ZN5Catch15IMutableContext13createContextEv
FNDA:2,_ZN5Catch14cleanUpContextEv
FNDA:0,_ZN5Catch8IContextD0Ev
FNDA:1,_ZN5Catch8IContextD2Ev
FNDA:0,_ZN5Catch15IMutableContextD0Ev
FNDA:1,_ZN5Catch15IMutableContextD2Ev
FNDA:1,_ZN5Catch7ContextD0Ev
FNDA:1,_ZN5Catch7ContextD2Ev
FNDA:0,_ZN5Catch3rngEv
FNDA:0,_ZN5Catch19writeToDebugConsoleERKNSt7__cxx1112basic_stringIcSt11char_traitsIcESaIcEEE
FNDA:0,_ZN5Catch16isDebuggerActiveEv
FNDA:0,_ZN5Catch20ITransientExpressionD0Ev
FNDA:82,_ZN5Catch20ITransientExpressionD2Ev
FNDA:0,_ZN5Catch29formatReconstructedExpressionERSoRKNSt7__cxx1112basic_stringIcSt11char_traitsIcESaIcEEENS_9StringRefES8_
FNDA:0,_ZN5Catch17throw_logic_errorERKNSt7__cxx1112basic_stringIcSt11char_traitsIcESaIcEEE
FNDA:0,_ZN5Catch18throw_domain_errorERKNSt7__cxx1112basic_stringIcSt11char_traitsIcESaIcEEE
FNDA:0,_ZN5Catch19throw_runtime_errorERKNSt7__cxx1112basic_stringIcSt11char_traitsIcESaIcEEE
FNDA:0,_ZN5Catch26IMutableEnumValuesRegistryD0Ev
FNDA:1,_ZN5Catch26IMutableEnumValuesRegistryD2Ev
FNDA:0,_ZN5Catch6Detail12_GLOBAL__N_119extractInstanceNameENS_9StringRefE
FNDA:0,_ZN5Catch6Detail10parseEnumsENS_9StringRefE
FNDA:0,_ZN5Catch6Detail8EnumInfoD2Ev
FNDA:0,_ZNK5Catch6Detail8EnumInfo6lookupEi
FNDA:0,_ZN5Catch6Detail12makeEnumInfoENS_9StringRefES1_RKSt6vectorIiSaIiEE
FNDA:0,_ZN5Catch6Detail18EnumValuesRegistry12registerEnumENS_9StringRefES2_RKSt6vectorIiSaIiEE
FNDA:1,_ZN5Catch10ErrnoGuardC2Ev
FNDA:1,_ZN5Catch10ErrnoGuardD2Ev
FNDA:0,_ZN5Catch27ExceptionTranslatorRegistryD0Ev
FNDA:1,_ZN5Catch27ExceptionTranslatorRegistryD2Ev
FNDA:0,_ZN5Catch27ExceptionTranslatorRegistry18registerTranslatorEPKNS_20IExceptionTranslatorE
FNDA:0,_ZNK5Catch27ExceptionTranslatorRegistry24translateActiveExceptionB5cxx11Ev
FNDA:0,_ZNK5Catch27ExceptionTranslatorRegistry14tryTranslatorsB5cxx11Ev
FNDA:0,_ZN12_GLOBAL__N_111reportFatalEPKc
FNDA:59,_ZN5CatchL29restorePreviousSignalHandlersEv
FNDA:0,_ZN5CatchL12handleSignalEi
FNDA:1,_ZN5Catch21FatalConditionHandlerC2Ev
FNDA:1,_ZN5Catch21FatalConditionHandlerD2Ev
FNDA:59,_ZN5Catch21FatalConditionHandler15engage_platformEv
FNDA:59,_ZN5Catch21FatalConditionHandler18disengage_platformEv
FNDA:0,_ZN5Catch17IGeneratorTrackerD0Ev
FNDA:0,_ZN5Catch17IGeneratorTrackerD2Ev
FNDA:0,_ZNK5Catch18GeneratorException4whatEv
FNDA:0,_ZN5Catch10Generators20GeneratorUntypedBaseD0Ev
FNDA:0,_ZN5Catch10Generators20GeneratorUntypedBaseD2Ev
FNDA:0,_ZN5Catch10Generators23acquireGeneratorTrackerENS_9StringRefERKNS_14SourceLineInfoE
FNDA:0,_ZN5Catch14IResultCaptureD0Ev
FNDA:1,_ZN5Catch14IResultCaptureD2Ev
FNDA:0,_ZN5Catch7IConfigD0Ev
FNDA:1,_ZN5Catch7IConfigD2Ev
FNDA:0,_ZN5Catch20IExceptionTranslatorD0Ev
FNDA:0,_ZN5Catch20IExceptionTranslatorD2Ev
FNDA:0,_ZN5Catch28IExceptionTranslatorRegistryD0Ev
FNDA:1,_ZN5Catch28IExceptionTranslatorRegistryD2Ev
FNDA:0,_ZN5Catch12IRegistryHubD0Ev
FNDA:1,_ZN5Catch12IRegistryHubD2Ev
FNDA:0,_ZN5Catch19IMutableRegistryHubD0Ev
FNDA:1,_ZN5Catch19IMutableRegistryHubD2Ev
FNDA:1,_ZN5Catch14ReporterConfigC2ERKSt10shared_ptrIKNS_7IConfigEE
FNDA:0,_ZN5Catch14ReporterConfigC2ERKSt10shared_ptrIKNS_7IConfigEERSo
FNDA:2,_ZNK5Catch14ReporterConfig6streamEv
FNDA:2,_ZNK5Catch14ReporterConfig10fullConfigEv
FNDA:1,_ZN5Catch11TestRunInfoC2ERKNSt7__cxx1112basic_stringIcSt11char_traitsIcESaIcEEE
FNDA:2,_ZN5Catch9GroupInfoC2ERKNSt7__cxx1112basic_stringIcSt11char_traitsIcESaIcEEEmm
FNDA:40,_ZN5Catch14AssertionStatsC2ERKNS_15AssertionResultERKSt6vectorINS_11MessageInfoESaIS5_EERKNS_6TotalsE
FNDA:0,_ZN5Catch14AssertionStatsD0Ev
FNDA:40,_ZN5Catch14AssertionStatsD2Ev
FNDA:59,_ZN5Catch12SectionStatsC2ERKNS_11SectionInfoERKNS_6CountsEdb
FNDA:0,_ZN5Catch12SectionStatsD0Ev
FNDA:59,_ZN5Catch12SectionStatsD2Ev
FNDA:59,_ZN5Catch13TestCaseStatsC2ERKNS_12TestCaseInfoERKNS_6TotalsERKNSt7__cxx1112basic_stringIcSt11char_traitsIcESaIcEEESE_b
FNDA:0,_ZN5Catch13TestCaseStatsD0Ev
FNDA:59,_ZN5Catch13TestCaseStatsD2Ev
FNDA:1,_ZN5Catch14TestGroupStatsC2ERKNS_9GroupInfoERKNS_6TotalsEb
FNDA:0,_ZN5Catch14TestGroupStatsC2ERKNS_9GroupInfoE
FNDA:0,_ZN5Catch14TestGroupStatsD0Ev
FNDA:1,_ZN5Catch14TestGroupStatsD2Ev
FNDA:1,_ZN5Catch12TestRunStatsC2ERKNS_11TestRunInfoERKNS_6TotalsEb
FNDA:0,_ZN5Catch12TestRunStatsD0Ev
FNDA:1,_ZN5Catch12TestRunStatsD2Ev
FNDA:0,_ZN5Catch18IStreamingReporter21fatalErrorEncounteredENS_9StringRefE
FNDA:0,_ZNK5Catch18IStreamingReporter7isMultiEv
FNDA:0,_ZN5Catch16IReporterFactoryD0Ev
FNDA:4,_ZN5Catch16IReporterFactoryD2Ev
FNDA:0,_ZN5Catch17IReporterRegistryD0Ev
FNDA:1,_ZN5Catch17IReporterRegistryD2Ev
FNDA:0,_ZN5Catch7IRunnerD0Ev
FNDA:1,_ZN5Catch7IRunnerD2Ev
FNDA:0,_ZN5Catch12ITestInvokerD0Ev
FNDA:59,_ZN5Catch12ITestInvokerD2Ev
FNDA:0,_ZN5Catch17ITestCaseRegistryD0Ev
FNDA:1,_ZN5Catch17ITestCaseRegistryD2Ev
FNDA:1,_ZN5Catch12LeakDetectorC2Ev
FNDA:1,_ZN5Catch12LeakDetectorD2Ev
FNDA:0,_ZN5Catch9listTestsERKNS_6ConfigE
FNDA:0,_ZN5Catch18listTestsNamesOnlyERKNS_6ConfigE
FNDA:0,_ZN5Catch7TagInfo3addERKNSt7__cxx1112basic_stringIcSt11char_traitsIcESaIcEEE
FNDA:0,_ZNK5Catch7TagInfo3allB5cxx11Ev
FNDA:0,_ZN5Catch8listTagsERKNS_6ConfigE
FNDA:0,_ZN5Catch13listReportersEv
FNDA:1,_ZN5Catch4listERKSt10shared_ptrINS_6ConfigEE
FNDA:0,_ZNK5Catch8Matchers4Impl18MatcherUntypedBase8toStringB5cxx11Ev
FNDA:0,_ZN5Catch8Matchers4Impl18MatcherUntypedBaseD0Ev
FNDA:0,_ZN5Catch8Matchers4Impl18MatcherUntypedBaseD2Ev
FNDA:0,_ZNK5Catch8Matchers9Exception23ExceptionMessageMatcher5matchERKSt9exception
FNDA:0,_ZNK5Catch8Matchers9Exception23ExceptionMessageMatcher8describeB5cxx11Ev
FNDA:0,_ZN5Catch8Matchers7MessageERKNSt7__cxx1112basic_stringIcSt11char_traitsIcESaIcEEE
FNDA:0,_ZN5Catch12_GLOBAL__N_17convertEf
FNDA:0,_ZN5Catch12_GLOBAL__N_17convertEd
FNDA:0,_ZN5Catch12_GLOBAL__N_115almostEqualUlpsIdEEbT_S2_m
FNDA:0,_ZN5Catch12_GLOBAL__N_115almostEqualUlpsIfEEbT_S2_m
FNDA:0,_ZN5Catch12_GLOBAL__N_19nextafterEff
FNDA:0,_ZN5Catch12_GLOBAL__N_19nextafterEdd
FNDA:0,_ZN5Catch12_GLOBAL__N_14stepIdEET_S2_S2_m
FNDA:0,_ZN5Catch12_GLOBAL__N_14stepIfEET_S2_S2_m
FNDA:0,_ZN5Catch12_GLOBAL__N_116marginComparisonEddd
FNDA:0,_ZN5Catch12_GLOBAL__N_15writeIdEEvRSoT_
FNDA:0,_ZN5Catch12_GLOBAL__N_15writeIfEEvRSoT_
FNDA:0,_ZN5Catch8Matchers8Floating16WithinAbsMatcherC2Edd
FNDA:0,_ZNK5Catch8Matchers8Floating16WithinAbsMatcher5matchERKd
FNDA:0,_ZNK5Catch8Matchers8Floating16WithinAbsMatcher8describeB5cxx11Ev
FNDA:0,_ZN5Catch8Matchers8Floating17WithinUlpsMatcherC2EdmNS1_17FloatingPointKindE
FNDA:0,_ZNK5Catch8Matchers8Floating17WithinUlpsMatcher5matchERKd
FNDA:0,_ZNK5Catch8Matchers8Floating17WithinUlpsMatcher8describeB5cxx11Ev
FNDA:0,_ZN5Catch8Matchers8Floating16WithinRelMatcherC2Edd
FNDA:0,_ZNK5Catch8Matchers8Floating16WithinRelMatcher5matchERKd
FNDA:0,_ZNK5Catch8Matchers8Floating16WithinRelMatcher8describeB5cxx11Ev
FNDA:0,_ZN5Catch8Matchers9WithinULPEdm
FNDA:0,_ZN5Catch8Matchers9WithinULPEfm
FNDA:0,_ZN5Catch8Matchers9WithinAbsEdd
FNDA:0,_ZN5Catch8Matchers9WithinRelEdd
FNDA:0,_ZN5Catch8Matchers9WithinRelEd
FNDA:0,_ZN5Catch8Matchers9WithinRelEff
FNDA:0,_ZN5Catch8Matchers9WithinRelEf
FNDA:0,_ZN5Catch8Matchers7Generic6Detail19finalizeDescriptionERKNSt7__cxx1112basic_stringIcSt11char_traitsIcESaIcEEE
FNDA:0,_ZN5Catch8Matchers9StdString11CasedStringC2ERKNSt7__cxx1112basic_stringIcSt11char_traitsIcESaIcEEENS_13CaseSensitive6ChoiceE
FNDA:0,_ZNK5Catch8Matchers9StdString11CasedString12adjustStringERKNSt7__cxx1112basic_stringIcSt11char_traitsIcESaIcEEE
FNDA:0,_ZNK5Catch8Matchers9StdString11CasedString21caseSensitivitySuffixB5cxx11Ev
FNDA:0,_ZN5Catch8Matchers9StdString17StringMatcherBaseC2ERKNSt7__cxx1112basic_stringIcSt11char_traitsIcESaIcEEERKNS1_11CasedStringE
FNDA:0,_ZNK5Catch8Matchers9StdString17StringMatcherBase8describeB5cxx11Ev
FNDA:0,_ZN5Catch8Matchers9StdString13EqualsMatcherC2ERKNS1_11CasedStringE
FNDA:0,_ZNK5Catch8Matchers9StdString13EqualsMatcher5matchERKNSt7__cxx1112basic_stringIcSt11char_traitsIcESaIcEEE
FNDA:0,_ZN5Catch8Matchers9StdString15ContainsMatcherC2ERKNS1_11CasedStringE
FNDA:0,_ZNK5Catch8Matchers9StdString15ContainsMatcher5matchERKNSt7__cxx1112basic_stringIcSt11char_traitsIcESaIcEEE
FNDA:0,_ZN5Catch8Matchers9StdString17StartsWithMatcherC2ERKNS1_11CasedStringE
FNDA:0,_ZNK5Catch8Matchers9StdString17StartsWithMatcher5matchERKNSt7__cxx1112basic_stringIcSt11char_traitsIcESaIcEEE
FNDA:0,_ZN5Catch8Matchers9StdString15EndsWithMatcherC2ERKNS1_11CasedStringE
FNDA:0,_ZNK5Catch8Matchers9StdString15EndsWithMatcher5matchERKNSt7__cxx1112basic_stringIcSt11char_traitsIcESaIcEEE
FNDA:0,_ZN5Catch8Matchers9StdString12RegexMatcherC2ENSt7__cxx1112basic_stringIcSt11char_traitsIcESaIcEEENS_13CaseSensitive6ChoiceE
FNDA:0,_ZNK5Catch8Matchers9StdString12RegexMatcher5matchERKNSt7__cxx1112basic_stringIcSt11char_traitsIcESaIcEEE
FNDA:0,_ZNK5Catch8Matchers9StdString12RegexMatcher8describeB5cxx11Ev
FNDA:0,_ZN5Catch8Matchers6EqualsERKNSt7__cxx1112basic_stringIcSt11char_traitsIcESaIcEEENS_13CaseSensitive6ChoiceE
FNDA:0,_ZN5Catch8Matchers8ContainsERKNSt7__cxx1112basic_stringIcSt11char_traitsIcESaIcEEENS_13CaseSensitive6ChoiceE
FNDA:0,_ZN5Catch8Matchers8EndsWithERKNSt7__cxx1112basic_stringIcSt11char_traitsIcESaIcEEENS_13CaseSensitive6ChoiceE
FNDA:0,_ZN5Catch8Matchers10StartsWithERKNSt7__cxx1112basic_stringIcSt11char_traitsIcESaIcEEENS_13CaseSensitive6ChoiceE
FNDA:0,_ZN5Catch8Matchers7MatchesERKNSt7__cxx1112basic_stringIcSt11char_traitsIcESaIcEEENS_13CaseSensitive6ChoiceE
FNDA:0,_ZN5Catch11MessageInfoC2ERKNS_9StringRefERKNS_14SourceLineInfoENS_9ResultWas6OfTypeE
FNDA:0,_ZNK5Catch11MessageInfoeqERKS0_
FNDA:0,_ZNK5Catch11MessageInfoltERKS0_
FNDA:0,_ZN5Catch14MessageBuilderC2ERKNS_9StringRefERKNS_14SourceLineInfoENS_9ResultWas6OfTypeE
FNDA:0,_ZN5Catch13ScopedMessageC2ERKNS_14MessageBuilderE
FNDA:0,_ZN5Catch13ScopedMessageC2EOS0_
FNDA:0,_ZN5Catch13ScopedMessageD2Ev
FNDA:0,_ZN5Catch8CapturerC2ENS_9StringRefERKNS_14SourceLineInfoENS_9ResultWas6OfTypeES1_
FNDA:0,_ZZN5Catch8CapturerC4ENS_9StringRefERKNS_14SourceLineInfoENS_9ResultWas6OfTypeES1_ENKUlmmE_clEmm
FNDA:0,_ZZN5Catch8CapturerC4ENS_9StringRefERKNS_14SourceLineInfoENS_9ResultWas6OfTypeES1_ENKUlmcE_clEmc
FNDA:0,_ZN5Catch8CapturerD2Ev
FNDA:0,_ZN5Catch8Capturer12captureValueEmRKNSt7__cxx1112basic_stringIcSt11char_traitsIcESaIcEEE
FNDA:0,_ZN5Catch16RedirectedStreamC2ERSoS1_
FNDA:0,_ZN5Catch16RedirectedStreamD2Ev
FNDA:0,_ZN5Catch16RedirectedStdOutC2Ev
FNDA:0,_ZNK5Catch16RedirectedStdOut3strB5cxx11Ev
FNDA:0,_ZN5Catch16RedirectedStdErrC2Ev
FNDA:0,_ZNK5Catch16RedirectedStdErr3strB5cxx11Ev
FNDA:0,_ZN5Catch17RedirectedStreamsC2ERNSt7__cxx1112basic_stringIcSt11char_traitsIcESaIcEEES7_
FNDA:0,_ZN5Catch17RedirectedStreamsD2Ev
FNDA:0,_ZN5Catch5isnanEf
FNDA:0,_ZN5Catch5isnanEd
FNDA:0,_ZN5Catch12_GLOBAL__N_112rotate_rightEjj
FNDA:0,_ZN5Catch11SimplePcg32C2Ej
FNDA:0,_ZN5Catch11SimplePcg324seedEj
FNDA:0,_ZN5Catch11SimplePcg327discardEm
FNDA:0,_ZN5Catch11SimplePcg32clEv
FNDA:0,_ZN5CatcheqERKNS_11SimplePcg32ES2_
FNDA:0,_ZN5CatchneERKNS_11SimplePcg32ES2_
FNDA:0,_ZN5Catch12TestRegistryD0Ev
FNDA:1,_ZN5Catch12TestRegistryD2Ev
FNDA:68,_ZN5Catch9SingletonINS_12_GLOBAL__N_111RegistryHubENS_12IRegistryHubENS_19IMutableRegistryHubEE11getInternalEv
FNDA:0,_ZN5Catch9SingletonINS_13StringStreamsES1_S1_E11getInternalEv
FNDA:5,_ZN5Catch9SingletonINS_12_GLOBAL__N_111RegistryHubENS_12IRegistryHubENS_19IMutableRegistryHubEE3getEv
FNDA:63,_ZN5Catch9SingletonINS_12_GLOBAL__N_111RegistryHubENS_12IRegistryHubENS_19IMutableRegistryHubEE10getMutableEv
FNDA:0,_ZN5Catch9SingletonINS_13StringStreamsES1_S1_E10getMutableEv
FNDA:1,_ZN5Catch12_GLOBAL__N_111RegistryHubC2Ev
FNDA:2,_ZNK5Catch12_GLOBAL__N_111RegistryHub19getReporterRegistryEv
FNDA:1,_ZNK5Catch12_GLOBAL__N_111RegistryHub19getTestCaseRegistryEv
FNDA:0,_ZNK5Catch12_GLOBAL__N_111RegistryHub30getExceptionTranslatorRegistryEv
FNDA:1,_ZNK5Catch12_GLOBAL__N_111RegistryHub19getTagAliasRegistryEv
FNDA:1,_ZNK5Catch12_GLOBAL__N_111RegistryHub27getStartupExceptionRegistryEv
FNDA:4,_ZN5Catch12_GLOBAL__N_111RegistryHub16registerReporterERKNSt7__cxx1112basic_stringIcSt11char_traitsIcESaIcEEERKSt10shared_ptrINS_16IReporterFactoryEE
FNDA:0,_ZN5Catch12_GLOBAL__N_111RegistryHub16registerListenerERKSt10shared_ptrINS_16IReporterFactoryEE
FNDA:59,_ZN5Catch12_GLOBAL__N_111RegistryHub12registerTestERKNS_8TestCaseE
FNDA:0,_ZN5Catch12_GLOBAL__N_111RegistryHub18registerTranslatorEPKNS_20IExceptionTranslatorE
FNDA:0,_ZN5Catch12_GLOBAL__N_111RegistryHub16registerTagAliasERKNSt7__cxx1112basic_stringIcSt11char_traitsIcESaIcEEES9_RKNS_14SourceLineInfoE
FNDA:0,_ZN5Catch12_GLOBAL__N_111RegistryHub24registerStartupExceptionEv
FNDA:0,_ZN5Catch12_GLOBAL__N_111RegistryHub28getMutableEnumValuesRegistryEv
FNDA:5,_ZN5Catch14getRegistryHubEv
FNDA:63,_ZN5Catch21getMutableRegistryHubEv
FNDA:2,_ZN5Catch7cleanUpEv
FNDA:0,_ZN5Catch24translateActiveExceptionB5cxx11Ev
FNDA:0,_ZN5Catch16ReporterRegistryD0Ev
FNDA:1,_ZN5Catch16ReporterRegistryD2Ev
FNDA:1,_ZNK5Catch16ReporterRegistry6createERKNSt7__cxx1112basic_stringIcSt11char_traitsIcESaIcEEERKSt10shared_ptrIKNS_7IConfigEE
FNDA:4,_ZN5Catch16ReporterRegistry16registerReporterERKNSt7__cxx1112basic_stringIcSt11char_traitsIcESaIcEEERKSt10shared_ptrINS_16IReporterFactoryEE
FNDA:0,_ZN5Catch16ReporterRegistry16registerListenerERKSt10shared_ptrINS_16IReporterFactoryEE
FNDA:0,_ZNK5Catch16ReporterRegistry12getFactoriesB5cxx11Ev
FNDA:1,_ZNK5Catch16ReporterRegistry12getListenersEv
FNDA:80,_ZN5Catch4isOkENS_9ResultWas6OfTypeE
FNDA:0,_ZN5Catch10isJustInfoEi
FNDA:0,_ZN5CatchorENS_17ResultDisposition5FlagsES1_
FNDA:0,_ZN5Catch23shouldContinueOnFailureEi
FNDA:0,_ZN5Catch21shouldSuppressFailureEi
FNDA:0,_ZN5Catch10Generators16GeneratorTrackerC2ERKNS_16TestCaseTracking15NameAndLocationERNS2_14TrackerContextEPNS2_8ITrackerE
FNDA:0,_ZN5Catch10Generators16GeneratorTracker7acquireERNS_16TestCaseTracking14TrackerContextERKNS2_15NameAndLocationE
FNDA:0,_ZNK5Catch10Generators16GeneratorTracker18isGeneratorTrackerEv
FNDA:0,_ZNK5Catch10Generators16GeneratorTracker12hasGeneratorEv
FNDA:0,_ZN5Catch10Generators16GeneratorTracker5closeEv
FNDA:0,_ZZN5Catch10Generators16GeneratorTracker5closeEvENKUlvE_clEv
FNDA:0,_ZZZN5Catch10Generators16GeneratorTracker5closeEvENKUlvE_clEvENKUlSt10shared_ptrINS_16TestCaseTracking8ITrackerEEE_clES6_
FNDA:0,_ZNK5Catch10Generators16GeneratorTracker12getGeneratorEv
FNDA:0,_ZN5Catch10Generators16GeneratorTracker12setGeneratorEOSt10unique_ptrINS0_20GeneratorUntypedBaseESt14default_deleteIS3_EE
FNDA:0,_ZN5Catch10Generators16GeneratorTrackerD0Ev
FNDA:0,_ZN5Catch10Generators16GeneratorTrackerD2Ev
FNDA:1,_ZN5Catch10RunContextC2ERKSt10shared_ptrIKNS_7IConfigEEOSt10unique_ptrINS_18IStreamingReporterESt14default_deleteIS8_EE
FNDA:0,_ZN5Catch10RunContextD0Ev
FNDA:1,_ZN5Catch10RunContextD2Ev
FNDA:1,_ZN5Catch10RunContext17testGroupStartingERKNSt7__cxx1112basic_stringIcSt11char_traitsIcESaIcEEEmm
FNDA:1,_ZN5Catch10RunContext14testGroupEndedERKNSt7__cxx1112basic_stringIcSt11char_traitsIcESaIcEEERKNS_6TotalsEmm
FNDA:59,_ZN5Catch10RunContext7runTestERKNS_8TestCaseE
FNDA:0,_ZNK5Catch10RunContext6configEv
FNDA:0,_ZNK5Catch10RunContext8reporterEv
FNDA:40,_ZN5Catch10RunContext14assertionEndedERKNS_15AssertionResultE
FNDA:122,_ZN5Catch10RunContext18resetAssertionInfoEv
FNDA:0,_ZN5Catch10RunContext14sectionStartedERKNS_11SectionInfoERNS_6CountsE
FNDA:0,_ZN5Catch10RunContext23acquireGeneratorTrackerENS_9StringRefERKNS_14SourceLineInfoE
FNDA:59,_ZN5Catch10RunContext24testForMissingAssertionsERNS_6CountsE
FNDA:0,_ZN5Catch10RunContext12sectionEndedERKNS_14SectionEndInfoE
FNDA:0,_ZN5Catch10RunContext17sectionEndedEarlyERKNS_14SectionEndInfoE
FNDA:0,_ZN5Catch10RunContext17pushScopedMessageERKNS_11MessageInfoE
FNDA:0,_ZN5Catch10RunContext16popScopedMessageERKNS_11MessageInfoE
FNDA:0,_ZN5Catch10RunContext22emplaceUnscopedMessageERKNS_14MessageBuilderE
FNDA:0,_ZNK5Catch10RunContext18getCurrentTestNameB5cxx11Ev
FNDA:0,_ZNK5Catch10RunContext13getLastResultEv
FNDA:0,_ZN5Catch10RunContext22exceptionEarlyReportedEv
FNDA:0,_ZN5Catch10RunContext25handleFatalErrorConditionENS_9StringRefE
FNDA:0,_ZN5Catch10RunContext19lastAssertionPassedEv
FNDA:82,_ZN5Catch10RunContext15assertionPassedEv
FNDA:120,_ZNK5Catch10RunContext8abortingEv
FNDA:59,_ZN5Catch10RunContext14runCurrentTestERNSt7__cxx1112basic_stringIcSt11char_traitsIcESaIcEEES7_
FNDA:59,_ZN5Catch10RunContext20invokeActiveTestCaseEv
FNDA:59,_ZN5Catch10RunContext24handleUnfinishedSectionsEv
FNDA:82,_ZN5Catch10RunContext10handleExprERKNS_13AssertionInfoERKNS_20ITransientExpressionERNS_17AssertionReactionE
FNDA:0,_ZN5Catch10RunContext10reportExprERKNS_13AssertionInfoENS_9ResultWas6OfTypeEPKNS_20ITransientExpressionEb
FNDA:0,_ZN5Catch10RunContext13handleMessageERKNS_13AssertionInfoENS_9ResultWas6OfTypeERKNS_9StringRefERNS_17AssertionReactionE
FNDA:0,_ZN5Catch10RunContext34handleUnexpectedExceptionNotThrownERKNS_13AssertionInfoERNS_17AssertionReactionE
FNDA:0,_ZN5Catch10RunContext33handleUnexpectedInflightExceptionERKNS_13AssertionInfoERKNSt7__cxx1112basic_stringIcSt11char_traitsIcESaIcEEERNS_17AssertionReactionE
FNDA:0,_ZN5Catch10RunContext16populateReactionERNS_17AssertionReactionE
FNDA:0,_ZN5Catch10RunContext16handleIncompleteERKNS_13AssertionInfoE
FNDA:40,_ZN5Catch10RunContext13handleNonExprERKNS_13AssertionInfoENS_9ResultWas6OfTypeERNS_17AssertionReactionE
FNDA:122,_ZN5Catch16getResultCaptureEv
FNDA:60,_ZN5Catch7seedRngERKNS_7IConfigE
FNDA:0,_ZN5Catch7rngSeedEv
FNDA:0,_ZN5Catch7SectionC2ERKNS_11SectionInfoE
FNDA:0,_ZN5Catch7SectionD0Ev
FNDA:0,_ZN5Catch7SectionD2Ev
FNDA:0,_ZNK5Catch7SectioncvbEv
FNDA:59,_ZN5Catch11SectionInfoC2ERKNS_14SourceLineInfoERKNSt7__cxx1112basic_stringIcSt11char_traitsIcESaIcEEE
FNDA:1,_ZN5Catch7Session3runIcEEiiPKPKT_
FNDA:1,_ZN5Catch12_GLOBAL__N_114createReporterERKNSt7__cxx1112basic_stringIcSt11char_traitsIcESaIcEEERKSt10shared_ptrIKNS_7IConfigEE
FNDA:1,_ZN5Catch12_GLOBAL__N_112makeReporterERKSt10shared_ptrINS_6ConfigEE
FNDA:1,_ZN5Catch12_GLOBAL__N_19TestGroupC2ERKSt10shared_ptrINS_6ConfigEE
FNDA:1,_ZN5Catch12_GLOBAL__N_19TestGroup7executeEv
FNDA:0,_ZN5Catch12_GLOBAL__N_120applyFilenamesAsTagsERKNS_7IConfigE
FNDA:1,_ZN5Catch7SessionC2Ev
FNDA:0,_ZN5Catch7SessionD0Ev
FNDA:1,_ZN5Catch7SessionD2Ev
FNDA:0,_ZNK5Catch7Session8showHelpEv
FNDA:0,_ZN5Catch7Session11libIdentifyEv
FNDA:1,_ZN5Catch7Session16applyCommandLineEiPKPKc
FNDA:0,_ZN5Catch7Session13useConfigDataERKNS_10ConfigDataE
FNDA:1,_ZN5Catch7Session3runEv
FNDA:0,_ZNK5Catch7Session3cliEv
FNDA:0,_ZN5Catch7Session3cliERKNS_5clara6detail6ParserE
FNDA:0,_ZN5Catch7Session10configDataEv
FNDA:1,_ZN5Catch7Session6configEv
FNDA:1,_ZN5Catch7Session11runInternalEv
FNDA:3,_ZN5Catch12_GLOBAL__N_1L13getSingletonsEv
FNDA:0,_ZN5Catch10ISingletonD0Ev
FNDA:1,_ZN5Catch10ISingletonD2Ev
FNDA:1,_ZN5Catch12addSingletonEPNS_10ISingletonE
FNDA:2,_ZN5Catch17cleanupSingletonsEv
FNDA:0,_ZN5Catch24StartupExceptionRegistry3addERKNSt15__exception_ptr13exception_ptrE
FNDA:1,_ZNK5Catch24StartupExceptionRegistry13getExceptionsEv
FNDA:0,_ZN5Catch7IStreamD0Ev
FNDA:1,_ZN5Catch7IStreamD2Ev
FNDA:0,_ZN5Catch6Detail12_GLOBAL__N_113StreamBufImplINS1_17OutputDebugWriterELm256EEC2Ev
FNDA:0,_ZN5Catch6Detail12_GLOBAL__N_113StreamBufImplINS1_17OutputDebugWriterELm256EED0Ev
FNDA:0,_ZN5Catch6Detail12_GLOBAL__N_113StreamBufImplINS1_17OutputDebugWriterELm256EED2Ev
FNDA:0,_ZN5Catch6Detail12_GLOBAL__N_113StreamBufImplINS1_17OutputDebugWriterELm256EE8overflowEi
FNDA:0,_ZN5Catch6Detail12_GLOBAL__N_113StreamBufImplINS1_17OutputDebugWriterELm256EE4syncEv
FNDA:0,_ZN5Catch6Detail12_GLOBAL__N_117OutputDebugWriterclERKNSt7__cxx1112basic_stringIcSt11char_traitsIcESaIcEEE
FNDA:0,_ZN5Catch6Detail12_GLOBAL__N_110FileStreamC2ENS_9StringRefE
FNDA:0,_ZN5Catch6Detail12_GLOBAL__N_110FileStreamD0Ev
FNDA:0,_ZN5Catch6Detail12_GLOBAL__N_110FileStreamD2Ev
FNDA:0,_ZNK5Catch6Detail12_GLOBAL__N_110FileStream6streamEv
FNDA:1,_ZN5Catch6Detail12_GLOBAL__N_110CoutStreamC2Ev
FNDA:1,_ZN5Catch6Detail12_GLOBAL__N_110CoutStreamD0Ev
FNDA:1,_ZN5Catch6Detail12_GLOBAL__N_110CoutStreamD2Ev
FNDA:9,_ZNK5Catch6Detail12_GLOBAL__N_110CoutStream6streamEv
FNDA:0,_ZN5Catch6Detail12_GLOBAL__N_114DebugOutStreamC2Ev
FNDA:0,_ZN5Catch6Detail12_GLOBAL__N_114DebugOutStreamD0Ev
FNDA:0,_ZN5Catch6Detail12_GLOBAL__N_114DebugOutStreamD2Ev
FNDA:0,_ZNK5Catch6Detail12_GLOBAL__N_114DebugOutStream6streamEv
FNDA:1,_ZN5Catch10makeStreamERKNS_9StringRefE
FNDA:0,_ZN5Catch13StringStreams3addEv
FNDA:0,_ZN5Catch13StringStreams7releaseEm
FNDA:0,_ZN5Catch20ReusableStringStreamC2Ev
FNDA:0,_ZN5Catch20ReusableStringStreamD0Ev
FNDA:0,_ZN5Catch20ReusableStringStreamD2Ev
FNDA:0,_ZNK5Catch20ReusableStringStream3strB5cxx11Ev
FNDA:1,_ZN5Catch4coutEv
FNDA:0,_ZN5Catch4cerrEv
FNDA:0,_ZN5Catch4clogEv
FNDA:957,_ZN5Catch12_GLOBAL__N_19toLowerChEc
FNDA:0,_ZN5Catch10startsWithERKNSt7__cxx1112basic_stringIcSt11char_traitsIcESaIcEEES7_
FNDA:247,_ZN5Catch10startsWithERKNSt7__cxx1112basic_stringIcSt11char_traitsIcESaIcEEEc
FNDA:0,_ZN5Catch8endsWithERKNSt7__cxx1112basic_stringIcSt11char_traitsIcESaIcEEES7_
FNDA:0,_ZN5Catch8endsWithERKNSt7__cxx1112basic_stringIcSt11char_traitsIcESaIcEEEc
FNDA:0,_ZN5Catch8containsERKNSt7__cxx1112basic_stringIcSt11char_traitsIcESaIcEEES7_
FNDA:47,_ZN5Catch14toLowerInPlaceERNSt7__cxx1112basic_stringIcSt11char_traitsIcESaIcEEE
FNDA:47,_ZN5Catch7toLowerERKNSt7__cxx1112basic_stringIcSt11char_traitsIcESaIcEEE
FNDA:118,_ZN5Catch4trimERKNSt7__cxx1112basic_stringIcSt11char_traitsIcESaIcEEE
FNDA:0,_ZN5Catch4trimENS_9StringRefE
FNDA:0,_ZZN5Catch4trimENS_9StringRefEENKUlcE_clEc
FNDA:0,_ZN5Catch14replaceInPlaceERNSt7__cxx1112basic_stringIcSt11char_traitsIcESaIcEEERKS5_S8_
FNDA:82,_ZN5Catch11isFalseTestEi
FNDA:0,_ZN5Catch14splitStringRefENS_9StringRefEc
FNDA:2,_ZN5Catch9pluraliseC2EmRKNSt7__cxx1112basic_stringIcSt11char_traitsIcESaIcEEE
FNDA:2,_ZN5CatchlsERSoRKNS_9pluraliseE
FNDA:352,_ZN5Catch9StringRefC2EPKc
FNDA:0,_ZNK5Catch9StringRef5c_strEv
FNDA:0,_ZNK5Catch9StringRef4dataEv
FNDA:0,_ZNK5Catch9StringRef6substrEmm
FNDA:0,_ZNK5Catch9StringRefeqERKS0_
FNDA:0,_ZN5CatchlsERSoRKNS_9StringRefE
FNDA:0,_ZN5CatchpLERNSt7__cxx1112basic_stringIcSt11char_traitsIcESaIcEEERKNS_9StringRefE
FNDA:0,_ZN5Catch8TagAliasC2ERKNSt7__cxx1112basic_stringIcSt11char_traitsIcESaIcEEENS_14SourceLineInfoE
FNDA:0,_ZN5Catch22RegistrarForTagAliasesC2EPKcS2_RKNS_14SourceLineInfoE
FNDA:0,_ZN5Catch16TagAliasRegistryD0Ev
FNDA:1,_ZN5Catch16TagAliasRegistryD2Ev
FNDA:0,_ZNK5Catch16TagAliasRegistry4findERKNSt7__cxx1112basic_stringIcSt11char_traitsIcESaIcEEE
FNDA:0,_ZNK5Catch16TagAliasRegistry13expandAliasesERKNSt7__cxx1112basic_stringIcSt11char_traitsIcESaIcEEE
FNDA:0,_ZN5Catch16TagAliasRegistry3addERKNSt7__cxx1112basic_stringIcSt11char_traitsIcESaIcEEES8_RKNS_14SourceLineInfoE
FNDA:0,_ZN5Catch17ITagAliasRegistryD0Ev
FNDA:1,_ZN5Catch17ITagAliasRegistryD2Ev
FNDA:1,_ZN5Catch17ITagAliasRegistry3getEv
FNDA:141,_ZN5Catch12_GLOBAL__N_115parseSpecialTagERKNSt7__cxx1112basic_stringIcSt11char_traitsIcESaIcEEE
FNDA:47,_ZN5Catch12_GLOBAL__N_113isReservedTagERKNSt7__cxx1112basic_stringIcSt11char_traitsIcESaIcEEE
FNDA:47,_ZN5Catch12_GLOBAL__N_121enforceNotReservedTagERKNSt7__cxx1112basic_stringIcSt11char_traitsIcESaIcEEERKNS_14SourceLineInfoE
FNDA:59,_ZN5Catch12makeTestCaseEPNS_12ITestInvokerERKNSt7__cxx1112basic_stringIcSt11char_traitsIcESaIcEEERKNS_11NameAndTagsERKNS_14SourceLineInfoE
FNDA:59,_ZN5Catch7setTagsERNS_12TestCaseInfoESt6vectorINSt7__cxx1112basic_stringIcSt11char_traitsIcESaIcEEESaIS8_EE
FNDA:59,_ZN5Catch12TestCaseInfoC2ERKNSt7__cxx1112basic_stringIcSt11char_traitsIcESaIcEEES8_S8_RKSt6vectorIS6_SaIS6_EERKNS_14SourceLineInfoE
FNDA:59,_ZNK5Catch12TestCaseInfo8isHiddenEv
FNDA:0,_ZNK5Catch12TestCaseInfo6throwsEv
FNDA:0,_ZNK5Catch12TestCaseInfo8okToFailEv
FNDA:59,_ZNK5Catch12TestCaseInfo14expectedToFailEv
FNDA:0,_ZNK5Catch12TestCaseInfo12tagsAsStringB5cxx11Ev
FNDA:59,_ZN5Catch8TestCaseC2EPNS_12ITestInvokerEONS_12TestCaseInfoE
FNDA:0,_ZNK5Catch8TestCase8withNameERKNSt7__cxx1112basic_stringIcSt11char_traitsIcESaIcEEE
FNDA:59,_ZNK5Catch8TestCase6invokeEv
FNDA:0,_ZNK5Catch8TestCaseeqERKS0_
FNDA:403,_ZNK5Catch8TestCaseltERKS0_
FNDA:177,_ZNK5Catch8TestCase15getTestCaseInfoEv
FNDA:0,_ZN5Catch12_GLOBAL__N_110TestHasherC2Em
FNDA:0,_ZNK5Catch12_GLOBAL__N_110TestHasherclERKNS_8TestCaseE
FNDA:1,_ZN5Catch9sortTestsERKNS_7IConfigERKSt6vectorINS_8TestCaseESaIS4_EE
FNDA:0,_ZZN5Catch9sortTestsERKNS_7IConfigERKSt6vectorINS_8TestCaseESaIS4_EEENKUlRKSt4pairImPKS4_ESE_E_clESE_SE_
FNDA:0,_ZN5Catch11isThrowSafeERKNS_8TestCaseERKNS_7IConfigE
FNDA:0,_ZN5Catch9matchTestERKNS_8TestCaseERKNS_8TestSpecERKNS_7IConfigE
FNDA:1,_ZN5Catch27enforceNoDuplicateTestCasesERKSt6vectorINS_8TestCaseESaIS1_EE
FNDA:0,_ZN5Catch11filterTestsERKSt6vectorINS_8TestCaseESaIS1_EERKNS_8TestSpecERKNS_7IConfigE
FNDA:1,_ZN5Catch21getAllTestCasesSortedERKNS_7IConfigE
FNDA:59,_ZN5Catch12TestRegistry12registerTestERKNS_8TestCaseE
FNDA:0,_ZNK5Catch12TestRegistry11getAllTestsEv
FNDA:1,_ZNK5Catch12TestRegistry17getAllTestsSortedERKNS_7IConfigE
FNDA:12,_ZN5Catch21TestInvokerAsFunctionC2EPFvvE
FNDA:12,_ZNK5Catch21TestInvokerAsFunction6invokeEv
FNDA:59,_ZN5Catch16extractClassNameB5cxx11ERKNS_9StringRefE
FNDA:118,_ZN5Catch16TestCaseTracking15NameAndLocationC2ERKNSt7__cxx1112basic_stringIcSt11char_traitsIcESaIcEEERKNS_14SourceLineInfoE
FNDA:0,_ZN5Catch16TestCaseTracking8ITrackerD0Ev
FNDA:118,_ZN5Catch16TestCaseTracking8ITrackerD2Ev
FNDA:59,_ZN5Catch16TestCaseTracking14TrackerContext8startRunEv
FNDA:0,_ZN5Catch16TestCaseTracking14TrackerContext6endRunEv
FNDA:59,_ZN5Catch16TestCaseTracking14TrackerContext10startCycleEv
FNDA:59,_ZN5Catch16TestCaseTracking14TrackerContext13completeCycleEv
FNDA:59,_ZNK5Catch16TestCaseTracking14TrackerContext14completedCycleEv
FNDA:118,_ZN5Catch16TestCaseTracking14TrackerContext14currentTrackerEv
FNDA:118,_ZN5Catch16TestCaseTracking14TrackerContext17setCurrentTrackerEPNS0_8ITrackerE
FNDA:118,_ZN5Catch16TestCaseTracking11TrackerBaseC2ERKNS0_15NameAndLocationERNS0_14TrackerContextEPNS0_8ITrackerE
FNDA:59,_ZNK5Catch16TestCaseTracking11TrackerBase10isCompleteEv
FNDA:59,_ZNK5Catch16TestCaseTracking11TrackerBase23isSuccessfullyCompletedEv
FNDA:0,_ZNK5Catch16TestCaseTracking11TrackerBase6isOpenEv
FNDA:0,_ZNK5Catch16TestCaseTracking11TrackerBase11hasChildrenEv
FNDA:59,_ZN5Catch16TestCaseTracking11TrackerBase8addChildERKSt10shared_ptrINS0_8ITrackerEE
FNDA:59,_ZN5Catch16TestCaseTracking11TrackerBase9findChildERKNS0_15NameAndLocationE
FNDA:0,_ZZN5Catch16TestCaseTracking11TrackerBase9findChildERKNS0_15NameAndLocationEENKUlRKSt10shared_ptrINS0_8ITrackerEEE_clES9_
FNDA:0,_ZN5Catch16TestCaseTracking11TrackerBase6parentEv
FNDA:59,_ZN5Catch16TestCaseTracking11TrackerBase9openChildEv
FNDA:0,_ZNK5Catch16TestCaseTracking11TrackerBase16isSectionTrackerEv
FNDA:0,_ZNK5Catch16TestCaseTracking11TrackerBase18isGeneratorTrackerEv
FNDA:59,_ZN5Catch16TestCaseTracking11TrackerBase4openEv
FNDA:59,_ZN5Catch16TestCaseTracking11TrackerBase5closeEv
FNDA:0,_ZZN5Catch16TestCaseTracking11TrackerBase5closeEvENKUlRKSt10shared_ptrINS0_8ITrackerEEE_clES6_
FNDA:0,_ZN5Catch16TestCaseTracking11TrackerBase4failEv
FNDA:0,_ZN5Catch20ReusableStringStreamlsIA12_cEERS0_RKT_
FNDA:0,_ZN5Catch20ReusableStringStreamlsIA13_cEERS0_RKT_
FNDA:0,_ZN5Catch20ReusableStringStreamlsIA15_cEERS0_RKT_
FNDA:0,_ZN5Catch20ReusableStringStreamlsIA16_cEERS0_RKT_
FNDA:0,_ZN5Catch20ReusableStringStreamlsIA17_cEERS0_RKT_
FNDA:0,_ZN5Catch20ReusableStringStreamlsIA18_cEERS0_RKT_
FNDA:0,_ZN5Catch20ReusableStringStreamlsIA19_cEERS0_RKT_
FNDA:0,_ZN5Catch20ReusableStringStreamlsIA1_cEERS0_RKT_
FNDA:0,_ZN5Catch20ReusableStringStreamlsIA20_cEERS0_RKT_
FNDA:0,_ZN5Catch20ReusableStringStreamlsIA21_cEERS0_RKT_
FNDA:0,_ZN5Catch20ReusableStringStreamlsIA22_cEERS0_RKT_
FNDA:0,_ZN5Catch20ReusableStringStreamlsIA23_cEERS0_RKT_
FNDA:0,_ZN5Catch20ReusableStringStreamlsIA25_cEERS0_RKT_
FNDA:0,_ZN5Catch20ReusableStringStreamlsIA26_cEERS0_RKT_
FNDA:0,_ZN5Catch20ReusableStringStreamlsIA27_cEERS0_RKT_
FNDA:0,_ZN5Catch20ReusableStringStreamlsIA2_cEERS0_RKT_
FNDA:0,_ZN5Catch20ReusableStringStreamlsIA31_cEERS0_RKT_
FNDA:0,_ZN5Catch20ReusableStringStreamlsIA32_cEERS0_RKT_
FNDA:0,_ZN5Catch20ReusableStringStreamlsIA36_cEERS0_RKT_
FNDA:0,_ZN5Catch20ReusableStringStreamlsIA37_cEERS0_RKT_
FNDA:0,_ZN5Catch20ReusableStringStreamlsIA3_cEERS0_RKT_
FNDA:0,_ZN5Catch20ReusableStringStreamlsIA40_cEERS0_RKT_
FNDA:0,_ZN5Catch20ReusableStringStreamlsIA44_cEERS0_RKT_
FNDA:0,_ZN5Catch20ReusableStringStreamlsIA47_cEERS0_RKT_
FNDA:0,_ZN5Catch20ReusableStringStreamlsIA4_cEERS0_RKT_
FNDA:0,_ZN5Catch20ReusableStringStreamlsIA53_cEERS0_RKT_
FNDA:0,_ZN5Catch20ReusableStringStreamlsIA57_cEERS0_RKT_
FNDA:0,_ZN5Catch20ReusableStringStreamlsIA59_cEERS0_RKT_
FNDA:0,_ZN5Catch20ReusableStringStreamlsIA5_cEERS0_RKT_
FNDA:0,_ZN5Catch20ReusableStringStreamlsIA60_cEERS0_RKT_
FNDA:0,_ZN5Catch20ReusableStringStreamlsIA66_cEERS0_RKT_
FNDA:0,_ZN5Catch20ReusableStringStreamlsIA7_cEERS0_RKT_
FNDA:0,_ZN5Catch20ReusableStringStreamlsIA8_cEERS0_RKT_
FNDA:0,_ZN5Catch20ReusableStringStreamlsIA9_cEERS0_RKT_
FNDA:0,_ZN5Catch20ReusableStringStreamlsIFRSt8ios_baseS3_EEERS0_RKT_
FNDA:0,_ZN5Catch20ReusableStringStreamlsINS_14LazyExpressionEEERS0_RKT_
FNDA:0,_ZN5Catch20ReusableStringStreamlsINS_14SourceLineInfoEEERS0_RKT_
FNDA:0,_ZN5Catch20ReusableStringStreamlsINS_16TestCaseTracking11TrackerBase10CycleStateEEERS0_RKT_
FNDA:0,_ZN5Catch20ReusableStringStreamlsINS_5clara8TextFlow6ColumnEEERS0_RKT_
FNDA:0,_ZN5Catch20ReusableStringStreamlsINS_9StringRefEEERS0_RKT_
FNDA:0,_ZN5Catch20ReusableStringStreamlsINSt7__cxx1112basic_stringIcSt11char_traitsIcESaIcEEEEERS0_RKT_
FNDA:0,_ZN5Catch20ReusableStringStreamlsIPKcEERS0_RKT_
FNDA:0,_ZN5Catch20ReusableStringStreamlsISt13_SetprecisionEERS0_RKT_
FNDA:0,_ZN5Catch20ReusableStringStreamlsISt5_SetwEERS0_RKT_
FNDA:0,_ZN5Catch20ReusableStringStreamlsISt8_SetfillIcEEERS0_RKT_
FNDA:0,_ZN5Catch20ReusableStringStreamlsIcEERS0_RKT_
FNDA:0,_ZN5Catch20ReusableStringStreamlsIdEERS0_RKT_
FNDA:0,_ZN5Catch20ReusableStringStreamlsIfEERS0_RKT_
FNDA:0,_ZN5Catch20ReusableStringStreamlsIjEERS0_RKT_
FNDA:0,_ZN5Catch20ReusableStringStreamlsImEERS0_RKT_
FNDA:0,_ZN5Catch20ReusableStringStreamlsIxEERS0_RKT_
FNDA:0,_ZN5Catch20ReusableStringStreamlsIyEERS0_RKT_
FNDA:0,_ZN5Catch16TestCaseTracking11TrackerBase23markAsNeedingAnotherRunEv
FNDA:59,_ZN5Catch16TestCaseTracking11TrackerBase12moveToParentEv
FNDA:59,_ZN5Catch16TestCaseTracking11TrackerBase10moveToThisEv
FNDA:118,_ZN5Catch16TestCaseTracking14SectionTrackerC2ERKNS0_15NameAndLocationERNS0_14TrackerContextEPNS0_8ITrackerE
FNDA:59,_ZNK5Catch16TestCaseTracking14SectionTracker10isCompleteEv
FNDA:0,_ZN5Catch20ReusableStringStream3getEv
FNDA:118,_ZNK5Catch16TestCaseTracking14SectionTracker16isSectionTrackerEv
FNDA:59,_ZN5Catch16TestCaseTracking14SectionTracker7acquireERNS0_14TrackerContextERKNS0_15NameAndLocationE
FNDA:59,_ZN5Catch16TestCaseTracking14SectionTracker7tryOpenEv
FNDA:59,_ZN5Catch16TestCaseTracking14SectionTracker17addInitialFiltersERKSt6vectorINSt7__cxx1112basic_stringIcSt11char_traitsIcESaIcEEESaIS8_EE
FNDA:59,_ZN5Catch16TestCaseTracking14SectionTracker14addNextFiltersERKSt6vectorINSt7__cxx1112basic_stringIcSt11char_traitsIcESaIcEEESaIS8_EE
FNDA:0,_ZNK5Catch16TestCaseTracking14SectionTracker10getFiltersB5cxx11Ev
FNDA:0,_ZNK5Catch16TestCaseTracking14SectionTracker11trimmedNameB5cxx11Ev
FNDA:12,_ZN5Catch15makeTestInvokerEPFvvE
FNDA:59,_ZN5Catch11NameAndTagsC2ERKNS_9StringRefES3_
FNDA:59,_ZN5Catch7AutoRegC2EPNS_12ITestInvokerERKNS_14SourceLineInfoERKNS_9StringRefERKNS_11NameAndTagsE
FNDA:0,_ZN5Catch7AutoRegD0Ev
FNDA:59,_ZN5Catch7AutoRegD2Ev
FNDA:0,_ZN5Catch8TestSpec7PatternC2ERKNSt7__cxx1112basic_stringIcSt11char_traitsIcESaIcEEE
FNDA:0,_ZN5Catch8TestSpec7PatternD0Ev
FNDA:0,_ZN5Catch8TestSpec7PatternD2Ev
FNDA:0,_ZNK5Catch8TestSpec7Pattern4nameB5cxx11Ev
FNDA:0,_ZN5Catch8TestSpec11NamePatternC2ERKNSt7__cxx1112basic_stringIcSt11char_traitsIcESaIcEEES9_
FNDA:0,_ZNK5Catch8TestSpec11NamePattern7matchesERKNS_12TestCaseInfoE
FNDA:0,_ZN5Catch8TestSpec10TagPatternC2ERKNSt7__cxx1112basic_stringIcSt11char_traitsIcESaIcEEES9_
FNDA:0,_ZNK5Catch8TestSpec10TagPattern7matchesERKNS_12TestCaseInfoE
FNDA:0,_ZN5Catch8TestSpec15ExcludedPatternC2ERKSt10shared_ptrINS0_7PatternEE
FNDA:0,_ZNK5Catch8TestSpec15ExcludedPattern7matchesERKNS_12TestCaseInfoE
FNDA:0,_ZNK5Catch8TestSpec6Filter7matchesERKNS_12TestCaseInfoE
FNDA:0,_ZZNK5Catch8TestSpec6Filter7matchesERKNS_12TestCaseInfoEENKUlRKSt10shared_ptrINS0_7PatternEEE_clES9_
FNDA:0,_ZNK5Catch8TestSpec6Filter4nameB5cxx11Ev
FNDA:1,_ZNK5Catch8TestSpec10hasFiltersEv
FNDA:0,_ZNK5Catch8TestSpec7matchesERKNS_12TestCaseInfoE
FNDA:0,_ZZNK5Catch8TestSpec7matchesERKNS_12TestCaseInfoEENKUlRKNS0_6FilterEE_clES6_
FNDA:1,_ZNK5Catch8TestSpec15matchesByFilterERKSt6vectorINS_8TestCaseESaIS2_EERKNS_7IConfigE
FNDA:0,_ZZNK5Catch8TestSpec15matchesByFilterERKSt6vectorINS_8TestCaseESaIS2_EERKNS_7IConfigEENKUlRKNS0_6FilterEE_clESC_
FNDA:2,_ZNK5Catch8TestSpec14getInvalidArgsB5cxx11Ev
FNDA:1,_ZN5Catch14TestSpecParserC2ERKNS_17ITagAliasRegistryE
FNDA:0,_ZN5Catch14TestSpecParser5parseERKNSt7__cxx1112basic_stringIcSt11char_traitsIcESaIcEEE
FNDA:1,_ZN5Catch14TestSpecParser8testSpecEv
FNDA:0,_ZN5Catch14TestSpecParser9visitCharEc
FNDA:0,_ZN5Catch14TestSpecParser15processNoneCharEc
FNDA:0,_ZN5Catch14TestSpecParser15processNameCharEc
FNDA:0,_ZN5Catch14TestSpecParser16processOtherCharEc
FNDA:0,_ZN5Catch14TestSpecParser12startNewModeENS0_4ModeE
FNDA:0,_ZN5Catch14TestSpecParser7endModeEv
FNDA:0,_ZN5Catch14TestSpecParser6escapeEv
FNDA:0,_ZNK5Catch14TestSpecParser13isControlCharEc
FNDA:1,_ZN5Catch14TestSpecParser9addFilterEv
FNDA:0,_ZN5Catch14TestSpecParser12saveLastModeEv
FNDA:0,_ZN5Catch14TestSpecParser20revertBackToLastModeEv
FNDA:0,_ZN5Catch14TestSpecParser8separateEv
FNDA:0,_ZN5Catch14TestSpecParser17preprocessPatternB5cxx11Ev
FNDA:0,_ZN5Catch14TestSpecParser14addNamePatternEv
FNDA:0,_ZN5Catch14TestSpecParser13addTagPatternEv
FNDA:0,_ZN5Catch13parseTestSpecERKNSt7__cxx1112basic_stringIcSt11char_traitsIcESaIcEEE
FNDA:118,_ZN5Catch31getCurrentNanosecondsSinceEpochEv
FNDA:0,_ZN5Catch12_GLOBAL__N_123estimateClockResolutionEv
FNDA:0,_ZN5Catch27getEstimatedClockResolutionEv
FNDA:59,_ZN5Catch5Timer5startEv
FNDA:59,_ZNK5Catch5Timer21getElapsedNanosecondsEv
FNDA:59,_ZNK5Catch5Timer22getElapsedMicrosecondsEv
FNDA:0,_ZNK5Catch5Timer22getElapsedMillisecondsEv
FNDA:59,_ZNK5Catch5Timer17getElapsedSecondsEv
FNDA:0,_ZN5Catch6Detail12_GLOBAL__N_110Endianness5whichEv
FNDA:0,_ZN5Catch6Detail17rawMemoryToStringB5cxx11EPKvm
FNDA:0,_ZN5Catch10fpToStringIdEENSt7__cxx1112basic_stringIcSt11char_traitsIcESaIcEEET_i
FNDA:0,_ZN5Catch10fpToStringIfEENSt7__cxx1112basic_stringIcSt11char_traitsIcESaIcEEET_i
FNDA:0,_ZN5Catch11StringMakerINSt7__cxx1112basic_stringIcSt11char_traitsIcESaIcEEEvE7convertERKS6_
FNDA:0,_ZN5Catch11StringMakerIPKcvE7convertB5cxx11ES2_
FNDA:0,_ZN5Catch11StringMakerIPcvE7convertB5cxx11ES1_
FNDA:0,_ZN5Catch11StringMakerINSt7__cxx1112basic_stringIwSt11char_traitsIwESaIwEEEvE7convertERKS6_
FNDA:0,_ZN5Catch11StringMakerIPKwvE7convertB5cxx11ES2_
FNDA:0,_ZN5Catch11StringMakerIPwvE7convertB5cxx11ES1_
FNDA:0,_ZN5Catch11StringMakerIivE7convertB5cxx11Ei
FNDA:0,_ZN5Catch11StringMakerIlvE7convertB5cxx11El
FNDA:0,_ZN5Catch11StringMakerIxvE7convertB5cxx11Ex
FNDA:0,_ZN5Catch11StringMakerIjvE7convertB5cxx11Ej
FNDA:0,_ZN5Catch11StringMakerImvE7convertB5cxx11Em
FNDA:0,_ZN5Catch11StringMakerIyvE7convertB5cxx11Ey
FNDA:0,_ZN5Catch11StringMakerIbvE7convertB5cxx11Eb
FNDA:0,_ZN5Catch11StringMakerIavE7convertB5cxx11Ea
FNDA:0,_ZN5Catch11StringMakerIcvE7convertB5cxx11Ec
FNDA:0,_ZN5Catch11StringMakerIhvE7convertB5cxx11Eh
FNDA:0,_ZN5Catch11StringMakerIDnvE7convertB5cxx11EDn
FNDA:0,_ZN5Catch11StringMakerIfvE7convertB5cxx11Ef
FNDA:0,_ZN5Catch11StringMakerIdvE7convertB5cxx11Ed
FNDA:0,_ZN5Catch12ratio_stringISt5ratioILl1ELl1000000000000000000EEE6symbolB5cxx11Ev
FNDA:0,_ZN5Catch12ratio_stringISt5ratioILl1ELl1000000000000000EEE6symbolB5cxx11Ev
FNDA:0,_ZN5Catch12ratio_stringISt5ratioILl1ELl1000000000000EEE6symbolB5cxx11Ev
FNDA:0,_ZN5Catch12ratio_stringISt5ratioILl1ELl1000000000EEE6symbolB5cxx11Ev
FNDA:0,_ZN5Catch12ratio_stringISt5ratioILl1ELl1000000EEE6symbolB5cxx11Ev
FNDA:0,_ZN5Catch12ratio_stringISt5ratioILl1ELl1000EEE6symbolB5cxx11Ev
FNDA:177,_ZNK5Catch6CountsmiERKS0_
FNDA:177,_ZN5Catch6CountspLERKS0_
FNDA:65,_ZNK5Catch6Counts5totalEv
FNDA:2,_ZNK5Catch6Counts9allPassedEv
FNDA:0,_ZNK5Catch6Counts5allOkEv
FNDA:59,_ZNK5Catch6TotalsmiERKS0_
FNDA:59,_ZN5Catch6TotalspLERKS0_
FNDA:59,_ZNK5Catch6Totals5deltaERKS0_
FNDA:0,_ZN5Catch19uncaught_exceptionsEv
FNDA:0,_ZN5Catch7VersionC2EjjjPKcj
FNDA:0,_ZN5CatchlsERSoRKNS_7VersionE
FNDA:0,_ZN5Catch14libraryVersionEv
FNDA:0,_ZN5Catch15WildcardPatternC2ERKNSt7__cxx1112basic_stringIcSt11char_traitsIcESaIcEEENS_13CaseSensitive6ChoiceE
FNDA:0,_ZNK5Catch15WildcardPattern7matchesERKNSt7__cxx1112basic_stringIcSt11char_traitsIcESaIcEEE
FNDA:0,_ZNK5Catch15WildcardPattern15normaliseStringERKNSt7__cxx1112basic_stringIcSt11char_traitsIcESaIcEEE
FNDA:0,_ZN5Catch12_GLOBAL__N_113trailingBytesEh
FNDA:0,_ZN5Catch12_GLOBAL__N_111headerValueEh
FNDA:0,_ZN5Catch12_GLOBAL__N_113hexEscapeCharERSoh
FNDA:0,_ZN5Catch12_GLOBAL__N_113shouldNewlineENS_13XmlFormattingE
FNDA:0,_ZN5Catch12_GLOBAL__N_112shouldIndentENS_13XmlFormattingE
FNDA:0,_ZN5CatchorENS_13XmlFormattingES0_
FNDA:0,_ZN5CatchanENS_13XmlFormattingES0_
FNDA:0,_ZN5Catch9XmlEncodeC2ERKNSt7__cxx1112basic_stringIcSt11char_traitsIcESaIcEEENS0_7ForWhatE
FNDA:0,_ZNK5Catch9XmlEncode8encodeToERSo
FNDA:0,_ZN5CatchlsERSoRKNS_9XmlEncodeE
FNDA:0,_ZN5Catch9XmlWriter13ScopedElementC2EPS0_NS_13XmlFormattingE
FNDA:0,_ZN5Catch9XmlWriter13ScopedElementC2EOS1_
FNDA:0,_ZN5Catch9XmlWriter13ScopedElementaSEOS1_
FNDA:0,_ZN5Catch9XmlWriter13ScopedElementD2Ev
FNDA:0,_ZN5Catch9XmlWriter13ScopedElement9writeTextERKNSt7__cxx1112basic_stringIcSt11char_traitsIcESaIcEEENS_13XmlFormattingE
FNDA:0,_ZN5Catch9XmlWriterC2ERSo
FNDA:0,_ZN5Catch9XmlWriterD2Ev
FNDA:0,_ZN5Catch9XmlWriter12startElementERKNSt7__cxx1112basic_stringIcSt11char_traitsIcESaIcEEENS_13XmlFormattingE
FNDA:0,_ZN5Catch9XmlWriter13scopedElementERKNSt7__cxx1112basic_stringIcSt11char_traitsIcESaIcEEENS_13XmlFormattingE
FNDA:0,_ZN5Catch9XmlWriter10endElementENS_13XmlFormattingE
FNDA:0,_ZN5Catch9XmlWriter14writeAttributeERKNSt7__cxx1112basic_stringIcSt11char_traitsIcESaIcEEES8_
FNDA:0,_ZN5Catch9XmlWriter14writeAttributeERKNSt7__cxx1112basic_stringIcSt11char_traitsIcESaIcEEEb
FNDA:0,_ZN5Catch9XmlWriter9writeTextERKNSt7__cxx1112basic_stringIcSt11char_traitsIcESaIcEEENS_13XmlFormattingE
FNDA:0,_ZN5Catch9XmlWriter12writeCommentERKNSt7__cxx1112basic_stringIcSt11char_traitsIcESaIcEEENS_13XmlFormattingE
FNDA:0,_ZN5Catch9XmlWriter18writeStylesheetRefERKNSt7__cxx1112basic_stringIcSt11char_traitsIcESaIcEEE
FNDA:0,_ZN5Catch9XmlWriter14writeBlankLineEv
FNDA:0,_ZN5Catch9XmlWriter15ensureTagClosedEv
FNDA:0,_ZN5Catch9XmlWriter15applyFormattingENS_13XmlFormattingE
FNDA:0,_ZN5Catch9XmlWriter16writeDeclarationEv
FNDA:0,_ZN5Catch9XmlWriter18newlineIfNecessaryEv
FNDA:0,_ZN5Catch25prepareExpandedExpressionERNS_15AssertionResultE
FNDA:0,_ZN5Catch20getFormattedDurationB5cxx11Ed
FNDA:59,_ZN5Catch18shouldShowDurationERKNS_7IConfigEd
FNDA:0,_ZN5Catch16serializeFiltersERKSt6vectorINSt7__cxx1112basic_stringIcSt11char_traitsIcESaIcEEESaIS6_EE
FNDA:0,_ZN5Catch6Detail19convertUnstreamableI4dateEENSt9enable_ifIXaantsrSt7is_enumIT_E5valuentsrSt10is_base_ofISt9exceptionS5_E5valueENSt7__cxx1112basic_stringIcSt11char_traitsIcESaIcEEEE4typeERKS5_
FNDA:0,_ZN5Catch21TestEventListenerBaseC2ERKNS_14ReporterConfigE
FNDA:0,_ZN5Catch21TestEventListenerBase23getSupportedVerbositiesEv
FNDA:0,_ZN5Catch21TestEventListenerBase17assertionStartingERKNS_13AssertionInfoE
FNDA:0,_ZN5Catch21TestEventListenerBase14assertionEndedERKNS_14AssertionStatsE
FNDA:0,_ZN12_GLOBAL__N_112failedStringEv
FNDA:0,_ZN12_GLOBAL__N_112passedStringEv
FNDA:0,_ZN12_GLOBAL__N_19dimColourEv
FNDA:0,_ZN12_GLOBAL__N_19bothOrAllEm
FNDA:0,_ZN5Catch12_GLOBAL__N_111printTotalsERSoRKNS_6TotalsE
FNDA:0,_ZN5Catch12_GLOBAL__N_116AssertionPrinterC2ERSoRKNS_14AssertionStatsEb
FNDA:0,_ZN5Catch12_GLOBAL__N_116AssertionPrinter5printEv
FNDA:0,_ZNK5Catch12_GLOBAL__N_116AssertionPrinter15printSourceInfoEv
FNDA:0,_ZNK5Catch12_GLOBAL__N_116AssertionPrinter15printResultTypeENS_6Colour4CodeERKNSt7__cxx1112basic_stringIcSt11char_traitsIcESaIcEEE
FNDA:0,_ZNK5Catch12_GLOBAL__N_116AssertionPrinter10printIssueERKNSt7__cxx1112basic_stringIcSt11char_traitsIcESaIcEEE
FNDA:0,_ZN5Catch12_GLOBAL__N_116AssertionPrinter18printExpressionWasEv
FNDA:0,_ZNK5Catch12_GLOBAL__N_116AssertionPrinter23printOriginalExpressionEv
FNDA:0,_ZNK5Catch12_GLOBAL__N_116AssertionPrinter28printReconstructedExpressionEv
FNDA:0,_ZN5Catch12_GLOBAL__N_116AssertionPrinter12printMessageEv
FNDA:0,_ZN5Catch12_GLOBAL__N_116AssertionPrinter22printRemainingMessagesENS_6Colour4CodeE
FNDA:0,_ZN5Catch15CompactReporter14getDescriptionB5cxx11Ev
FNDA:0,_ZN5Catch15CompactReporter19noMatchingTestCasesERKNSt7__cxx1112basic_stringIcSt11char_traitsIcESaIcEEE
FNDA:0,_ZN5Catch15CompactReporter17assertionStartingERKNS_13AssertionInfoE
FNDA:0,_ZN5Catch15CompactReporter14assertionEndedERKNS_14AssertionStatsE
FNDA:0,_ZN5Catch15CompactReporter12sectionEndedERKNS_12SectionStatsE
FNDA:0,_ZN5Catch15CompactReporter12testRunEndedERKNS_12TestRunStatsE
FNDA:0,_ZN5Catch15CompactReporterD0Ev
FNDA:0,_ZN5Catch15CompactReporterD2Ev
FNDA:0,_ZN5Catch12_GLOBAL__N_123ConsoleAssertionPrinterC2ERSoRKNS_14AssertionStatsEb
FNDA:0,_ZN5Catch11StringMakerINS_14SourceLineInfoEvE7convertIS1_EENSt9enable_ifIXsrNS_6Detail18IsStreamInsertableIT_EE5valueENSt7__cxx1112basic_stringIcSt11char_traitsIcESaIcEEEE4typeERKS7_
FNDA:0,_ZNK5Catch12_GLOBAL__N_123ConsoleAssertionPrinter5printEv
FNDA:0,_ZNK5Catch12_GLOBAL__N_123ConsoleAssertionPrinter15printResultTypeEv
FNDA:0,_ZNK5Catch12_GLOBAL__N_123ConsoleAssertionPrinter23printOriginalExpressionEv
FNDA:0,_ZNK5Catch12_GLOBAL__N_123ConsoleAssertionPrinter28printReconstructedExpressionEv
FNDA:0,_ZNK5Catch12_GLOBAL__N_123ConsoleAssertionPrinter12printMessageEv
FNDA:0,_ZNK5Catch12_GLOBAL__N_123ConsoleAssertionPrinter15printSourceInfoEv
FNDA:3,_ZN5Catch12_GLOBAL__N_19makeRatioEmm
FNDA:1,_ZN5Catch12_GLOBAL__N_17findMaxERmS1_S1_
FNDA:0,_ZN5Catch11StringMakerI4datevE7convertIS1_EENSt9enable_ifIXntsrNS_6Detail18IsStreamInsertableIT_EE5valueENSt7__cxx1112basic_stringIcSt11char_traitsIcESaIcEEEE4typeERKS7_
FNDA:1,_ZN5Catch12TablePrinterC2ERSoSt6vectorINS_12_GLOBAL__N_110ColumnInfoESaIS4_EE
FNDA:177,_ZN5Catch12TablePrinter5closeEv
FNDA:0,_ZN5Catch6Detail9stringifyI4dateEENSt7__cxx1112basic_stringIcSt11char_traitsIcESaIcEEERKT_
FNDA:0,_ZN5Catch6Detail9stringifyIA10_cEENSt7__cxx1112basic_stringIcSt11char_traitsIcESaIcEEERKT_
FNDA:0,_ZN5Catch6Detail9stringifyIA11_cEENSt7__cxx1112basic_stringIcSt11char_traitsIcESaIcEEERKT_
FNDA:0,_ZN5Catch6Detail9stringifyIA14_cEENSt7__cxx1112basic_stringIcSt11char_traitsIcESaIcEEERKT_
FNDA:0,_ZN5Catch6Detail9stringifyIA15_cEENSt7__cxx1112basic_stringIcSt11char_traitsIcESaIcEEERKT_
FNDA:0,_ZN5Catch6Detail9stringifyIA2_cEENSt7__cxx1112basic_stringIcSt11char_traitsIcESaIcEEERKT_
FNDA:0,_ZN5Catch6Detail9stringifyIA5_cEENSt7__cxx1112basic_stringIcSt11char_traitsIcESaIcEEERKT_
FNDA:0,_ZN5Catch6Detail9stringifyINS_14SourceLineInfoEEENSt7__cxx1112basic_stringIcSt11char_traitsIcESaIcEEERKT_
FNDA:0,_ZN5Catch6Detail9stringifyINSt7__cxx1112basic_stringIcSt11char_traitsIcESaIcEEEEES7_RKT_
FNDA:0,_ZN5Catch6Detail9stringifyINSt7__cxx1112basic_stringIwSt11char_traitsIwESaIwEEEEENS3_IcS4_IcESaIcEEERKT_
FNDA:0,_ZN5Catch6Detail9stringifyIPcEENSt7__cxx1112basic_stringIcSt11char_traitsIcESaIcEEERKT_
FNDA:0,_ZN5Catch6Detail9stringifyIaEENSt7__cxx1112basic_stringIcSt11char_traitsIcESaIcEEERKT_
FNDA:0,_ZN5Catch6Detail9stringifyIbEENSt7__cxx1112basic_stringIcSt11char_traitsIcESaIcEEERKT_
FNDA:0,_ZN5Catch6Detail9stringifyIcEENSt7__cxx1112basic_stringIcSt11char_traitsIcESaIcEEERKT_
FNDA:0,_ZN5Catch6Detail9stringifyIdEENSt7__cxx1112basic_stringIcSt11char_traitsIcESaIcEEERKT_
FNDA:0,_ZN5Catch6Detail9stringifyIiEENSt7__cxx1112basic_stringIcSt11char_traitsIcESaIcEEERKT_
FNDA:0,_ZN5Catch6Detail9stringifyIjEENSt7__cxx1112basic_stringIcSt11char_traitsIcESaIcEEERKT_
FNDA:0,_ZN5Catch6Detail9stringifyImEENSt7__cxx1112basic_stringIcSt11char_traitsIcESaIcEEERKT_
FNDA:0,_ZN5Catch6Detail9stringifyIxEENSt7__cxx1112basic_stringIcSt11char_traitsIcESaIcEEERKT_
FNDA:0,_ZN5Catch6Detail9stringifyIyEENSt7__cxx1112basic_stringIcSt11char_traitsIcESaIcEEERKT_
FNDA:0,_ZN5CatchlsERNS_12TablePrinterENS_12_GLOBAL__N_18RowBreakE
FNDA:1,_ZN5Catch15ConsoleReporterC2ERKNS_14ReporterConfigE
FNDA:1,_ZZN5Catch15ConsoleReporterC4ERKNS_14ReporterConfigEENKUlvE_clEv
FNDA:1,_ZN5Catch15ConsoleReporterD0Ev
FNDA:1,_ZN5Catch15ConsoleReporterD2Ev
FNDA:0,_ZN5Catch15ConsoleReporter14getDescriptionB5cxx11Ev
FNDA:0,_ZN5Catch15ConsoleReporter19noMatchingTestCasesERKNSt7__cxx1112basic_stringIcSt11char_traitsIcESaIcEEE
FNDA:0,_ZN5Catch15ConsoleReporter22reportInvalidArgumentsERKNSt7__cxx1112basic_stringIcSt11char_traitsIcESaIcEEE
FNDA:82,_ZN5Catch15ConsoleReporter17assertionStartingERKNS_13AssertionInfoE
FNDA:40,_ZN5Catch15ConsoleReporter14assertionEndedERKNS_14AssertionStatsE
FNDA:59,_ZN5Catch15ConsoleReporter15sectionStartingERKNS_11SectionInfoE
FNDA:59,_ZN5Catch15ConsoleReporter12sectionEndedERKNS_12SectionStatsE
FNDA:59,_ZN5Catch15ConsoleReporter13testCaseEndedERKNS_13TestCaseStatsE
FNDA:1,_ZN5Catch15ConsoleReporter14testGroupEndedERKNS_14TestGroupStatsE
FNDA:1,_ZN5Catch15ConsoleReporter12testRunEndedERKNS_12TestRunStatsE
FNDA:1,_ZN5Catch15ConsoleReporter15testRunStartingERKNS_11TestRunInfoE
FNDA:0,_ZN5Catch15ConsoleReporter9lazyPrintEv
FNDA:0,_ZN5Catch15ConsoleReporter37lazyPrintWithoutClosingBenchmarkTableEv
FNDA:0,_ZN5Catch15ConsoleReporter16lazyPrintRunInfoEv
FNDA:0,_ZN5Catch15ConsoleReporter18lazyPrintGroupInfoEv
FNDA:0,_ZN5Catch15ConsoleReporter29printTestCaseAndSectionHeaderEv
FNDA:0,_ZN5Catch15ConsoleReporter17printClosedHeaderERKNSt7__cxx1112basic_stringIcSt11char_traitsIcESaIcEEE
FNDA:0,_ZN5Catch15ConsoleReporter15printOpenHeaderERKNSt7__cxx1112basic_stringIcSt11char_traitsIcESaIcEEE
FNDA:0,_ZN5Catch15ConsoleReporter17printHeaderStringERKNSt7__cxx1112basic_stringIcSt11char_traitsIcESaIcEEEm
FNDA:0,_ZN5Catch13SummaryColumnC2ENSt7__cxx1112basic_stringIcSt11char_traitsIcESaIcEEENS_6Colour4CodeE
FNDA:0,_ZN5Catch13SummaryColumn6addRowEm
FNDA:1,_ZN5Catch15ConsoleReporter11printTotalsERKNS_6TotalsE
FNDA:0,_ZN5Catch15ConsoleReporter15printSummaryRowERKNSt7__cxx1112basic_stringIcSt11char_traitsIcESaIcEEERKSt6vectorINS_13SummaryColumnESaISA_EEm
FNDA:1,_ZN5Catch15ConsoleReporter18printTotalsDividerERKNS_6TotalsE
FNDA:0,_ZN5Catch15ConsoleReporter19printSummaryDividerEv
FNDA:1,_ZN5Catch15ConsoleReporter16printTestFiltersEv
FNDA:0,_ZN5Catch12_GLOBAL__N_119getCurrentTimestampEv
FNDA:0,_ZN5Catch12_GLOBAL__N_111fileNameTagERKSt6vectorINSt7__cxx1112basic_stringIcSt11char_traitsIcESaIcEEESaIS7_EE
FNDA:0,_ZZN5Catch12_GLOBAL__N_111fileNameTagERKSt6vectorINSt7__cxx1112basic_stringIcSt11char_traitsIcESaIcEEESaIS7_EEENKUlRKS7_E_clESD_
FNDA:0,_ZN5Catch12_GLOBAL__N_114formatDurationEd
FNDA:0,_ZN5Catch13JunitReporterC2ERKNS_14ReporterConfigE
FNDA:0,_ZN5Catch13JunitReporterD0Ev
FNDA:0,_ZN5Catch13JunitReporterD2Ev
FNDA:0,_ZN5Catch13JunitReporter14getDescriptionB5cxx11Ev
FNDA:0,_ZN5Catch13JunitReporter19noMatchingTestCasesERKNSt7__cxx1112basic_stringIcSt11char_traitsIcESaIcEEE
FNDA:0,_ZN5Catch13JunitReporter15testRunStartingERKNS_11TestRunInfoE
FNDA:0,_ZN5Catch13JunitReporter17testGroupStartingERKNS_9GroupInfoE
FNDA:0,_ZN5Catch13JunitReporter16testCaseStartingERKNS_12TestCaseInfoE
FNDA:0,_ZN5Catch13JunitReporter14assertionEndedERKNS_14AssertionStatsE
FNDA:0,_ZN5Catch13JunitReporter13testCaseEndedERKNS_13TestCaseStatsE
FNDA:0,_ZN5Catch13JunitReporter14testGroupEndedERKNS_14TestGroupStatsE
FNDA:0,_ZN5Catch13JunitReporter22testRunEndedCumulativeEv
FNDA:0,_ZN5Catch13JunitReporter10writeGroupERKNS_22CumulativeReporterBaseIS0_E4NodeINS_14TestGroupStatsENS3_INS_13TestCaseStatsENS2_11SectionNodeEEEEEd
FNDA:0,_ZN5Catch13JunitReporter13writeTestCaseERKNS_22CumulativeReporterBaseIS0_E4NodeINS_13TestCaseStatsENS2_11SectionNodeEEE
FNDA:0,_ZN5Catch13JunitReporter12writeSectionERKNSt7__cxx1112basic_stringIcSt11char_traitsIcESaIcEEES8_RKNS_22CumulativeReporterBaseIS0_E11SectionNodeEb
FNDA:0,_ZN5Catch13JunitReporter15writeAssertionsERKNS_22CumulativeReporterBaseIS0_E11SectionNodeE
FNDA:0,_ZN5Catch13JunitReporter14writeAssertionERKNS_14AssertionStatsE
FNDA:0,_ZN5Catch17ListeningReporterC2Ev
FNDA:0,_ZN5Catch17ListeningReporter11addListenerEOSt10unique_ptrINS_18IStreamingReporterESt14default_deleteIS2_EE
FNDA:0,_ZN5Catch17ListeningReporter11addReporterEOSt10unique_ptrINS_18IStreamingReporterESt14default_deleteIS2_EE
FNDA:0,_ZNK5Catch17ListeningReporter14getPreferencesEv
FNDA:0,_ZN5Catch11StringMakerIA10_cvE7convertB5cxx11EPKc
FNDA:0,_ZN5Catch11StringMakerIA11_cvE7convertB5cxx11EPKc
FNDA:0,_ZN5Catch11StringMakerIA14_cvE7convertB5cxx11EPKc
FNDA:0,_ZN5Catch11StringMakerIA15_cvE7convertB5cxx11EPKc
FNDA:0,_ZN5Catch11StringMakerIA2_cvE7convertB5cxx11EPKc
FNDA:0,_ZN5Catch11StringMakerIA5_cvE7convertB5cxx11EPKc
FNDA:0,_ZN5Catch17ListeningReporter23getSupportedVerbositiesEv
FNDA:0,_ZN5Catch17ListeningReporter19noMatchingTestCasesERKNSt7__cxx1112basic_stringIcSt11char_traitsIcESaIcEEE
FNDA:0,_ZN5Catch17ListeningReporter22reportInvalidArgumentsERKNSt7__cxx1112basic_stringIcSt11char_traitsIcESaIcEEE
FNDA:0,_ZN5Catch17ListeningReporter15testRunStartingERKNS_11TestRunInfoE
FNDA:0,_ZN5Catch17ListeningReporter17testGroupStartingERKNS_9GroupInfoE
FNDA:0,_ZN5Catch17ListeningReporter16testCaseStartingERKNS_12TestCaseInfoE
FNDA:0,_ZN5Catch17ListeningReporter15sectionStartingERKNS_11SectionInfoE
FNDA:0,_ZN5Catch17ListeningReporter17assertionStartingERKNS_13AssertionInfoE
FNDA:0,_ZN5Catch17ListeningReporter14assertionEndedERKNS_14AssertionStatsE
FNDA:0,_ZN5Catch17ListeningReporter12sectionEndedERKNS_12SectionStatsE
FNDA:0,_ZN5Catch17ListeningReporter13testCaseEndedERKNS_13TestCaseStatsE
FNDA:0,_ZN5Catch17ListeningReporter14testGroupEndedERKNS_14TestGroupStatsE
FNDA:0,_ZN5Catch17ListeningReporter12testRunEndedERKNS_12TestRunStatsE
FNDA:0,_ZN5Catch17ListeningReporter8skipTestERKNS_12TestCaseInfoE
FNDA:0,_ZNK5Catch17ListeningReporter7isMultiEv
FNDA:0,_ZN5Catch11XmlReporterC2ERKNS_14ReporterConfigE
FNDA:0,_ZN5Catch11XmlReporterD0Ev
FNDA:0,_ZN5Catch11XmlReporterD2Ev
FNDA:0,_ZN5Catch11XmlReporter14getDescriptionB5cxx11Ev
FNDA:0,_ZNK5Catch11XmlReporter16getStylesheetRefB5cxx11Ev
FNDA:0,_ZN5Catch11XmlReporter15writeSourceInfoERKNS_14SourceLineInfoE
FNDA:0,_ZN5Catch11XmlReporter19noMatchingTestCasesERKNSt7__cxx1112basic_stringIcSt11char_traitsIcESaIcEEE
FNDA:0,_ZN5Catch11XmlReporter15testRunStartingERKNS_11TestRunInfoE
FNDA:0,_ZN5Catch11XmlReporter17testGroupStartingERKNS_9GroupInfoE
FNDA:0,_ZN5Catch11XmlReporter16testCaseStartingERKNS_12TestCaseInfoE
FNDA:0,_ZN5Catch11XmlReporter15sectionStartingERKNS_11SectionInfoE
FNDA:0,_ZN5Catch11XmlReporter17assertionStartingERKNS_13AssertionInfoE
FNDA:0,_ZN5Catch11XmlReporter14assertionEndedERKNS_14AssertionStatsE
FNDA:0,_ZN5Catch11XmlReporter12sectionEndedERKNS_12SectionStatsE
FNDA:0,_ZN5Catch11XmlReporter13testCaseEndedERKNS_13TestCaseStatsE
FNDA:0,_ZN5Catch11XmlReporter14testGroupEndedERKNS_14TestGroupStatsE
FNDA:0,_ZN5Catch11XmlReporter12testRunEndedERKNS_12TestRunStatsE
FNDA:1,main
FNDA:0,_ZNK5Catch20ITransientExpression18isBinaryExpressionEv
FNDA:82,_ZNK5Catch20ITransientExpression9getResultEv
FNDA:82,_ZN5Catch20ITransientExpressionC2Ebb
FNDA:0,_ZNK5Catch10BinaryExprIRK4dateS3_E29streamReconstructedExpressionERSo
FNDA:0,_ZNK5Catch10BinaryExprIRKNSt7__cxx1112basic_stringIcSt11char_traitsIcESaIcEEERA10_KcE29streamReconstructedExpressionERSo
FNDA:0,_ZNK5Catch10BinaryExprIRKNSt7__cxx1112basic_stringIcSt11char_traitsIcESaIcEEERA11_KcE29streamReconstructedExpressionERSo
FNDA:0,_ZNK5Catch10BinaryExprIRKNSt7__cxx1112basic_stringIcSt11char_traitsIcESaIcEEERA14_KcE29streamReconstructedExpressionERSo
FNDA:0,_ZNK5Catch10BinaryExprIRKNSt7__cxx1112basic_stringIcSt11char_traitsIcESaIcEEERA15_KcE29streamReconstructedExpressionERSo
FNDA:0,_ZNK5Catch10BinaryExprIRKNSt7__cxx1112basic_stringIcSt11char_traitsIcESaIcEEERA2_KcE29streamReconstructedExpressionERSo
FNDA:0,_ZNK5Catch10BinaryExprIRKNSt7__cxx1112basic_stringIcSt11char_traitsIcESaIcEEERA5_KcE29streamReconstructedExpressionERSo
FNDA:0,_ZNK5Catch10BinaryExprIRKNSt7__cxx1112basic_stringIcSt11char_traitsIcESaIcEEES8_E29streamReconstructedExpressionERSo
FNDA:0,_ZNK5Catch10BinaryExprIRKPcRKNSt7__cxx1112basic_stringIcSt11char_traitsIcESaIcEEEE29streamReconstructedExpressionERSo
FNDA:0,_ZNK5Catch10BinaryExprIRKiS2_E29streamReconstructedExpressionERSo
FNDA:0,_ZNK5Catch10BinaryExprIRKmS2_E29streamReconstructedExpressionERSo
FNDA:0,_ZNK5Catch10BinaryExprIbbE29streamReconstructedExpressionERSo
FNDA:4,_ZN5Catch10BinaryExprIRK4dateS3_EC2EbS3_NS_9StringRefES3_
FNDA:1,_ZN5Catch10BinaryExprIRKNSt7__cxx1112basic_stringIcSt11char_traitsIcESaIcEEERA10_KcEC2EbS8_NS_9StringRefESB_
FNDA:3,_ZN5Catch10BinaryExprIRKNSt7__cxx1112basic_stringIcSt11char_traitsIcESaIcEEERA11_KcEC2EbS8_NS_9StringRefESB_
FNDA:1,_ZN5Catch10BinaryExprIRKNSt7__cxx1112basic_stringIcSt11char_traitsIcESaIcEEERA14_KcEC2EbS8_NS_9StringRefESB_
FNDA:1,_ZN5Catch10BinaryExprIRKNSt7__cxx1112basic_stringIcSt11char_traitsIcESaIcEEERA15_KcEC2EbS8_NS_9StringRefESB_
FNDA:1,_ZN5Catch10BinaryExprIRKNSt7__cxx1112basic_stringIcSt11char_traitsIcESaIcEEERA2_KcEC2EbS8_NS_9StringRefESB_
FNDA:1,_ZN5Catch10BinaryExprIRKNSt7__cxx1112basic_stringIcSt11char_traitsIcESaIcEEERA5_KcEC2EbS8_NS_9StringRefESB_
FNDA:1,_ZN5Catch10BinaryExprIRKNSt7__cxx1112basic_stringIcSt11char_traitsIcESaIcEEES8_EC2EbS8_NS_9StringRefES8_
FNDA:2,_ZN5Catch10BinaryExprIRKPcRKNSt7__cxx1112basic_stringIcSt11char_traitsIcESaIcEEEEC2EbS3_NS_9StringRefESB_
FNDA:46,_ZN5Catch10BinaryExprIRKiS2_EC2EbS2_NS_9StringRefES2_
FNDA:12,_ZN5Catch10BinaryExprIRKmS2_EC2EbS2_NS_9StringRefES2_
FNDA:4,_ZN5Catch10BinaryExprIbbEC2EbbNS_9StringRefEb
FNDA:0,_ZNK5Catch9UnaryExprIbE29streamReconstructedExpressionERSo
FNDA:5,_ZN5Catch9UnaryExprIbEC2Eb
FNDA:1,_ZN5Catch12compareEqualI4dateS1_EEbRKT_RKT0_
FNDA:1,_ZN5Catch12compareEqualINSt7__cxx1112basic_stringIcSt11char_traitsIcESaIcEEEA10_cEEbRKT_RKT0_
FNDA:3,_ZN5Catch12compareEqualINSt7__cxx1112basic_stringIcSt11char_traitsIcESaIcEEEA11_cEEbRKT_RKT0_
FNDA:1,_ZN5Catch12compareEqualINSt7__cxx1112basic_stringIcSt11char_traitsIcESaIcEEEA14_cEEbRKT_RKT0_
FNDA:1,_ZN5Catch12compareEqualINSt7__cxx1112basic_stringIcSt11char_traitsIcESaIcEEEA15_cEEbRKT_RKT0_
FNDA:1,_ZN5Catch12compareEqualINSt7__cxx1112basic_stringIcSt11char_traitsIcESaIcEEEA2_cEEbRKT_RKT0_
FNDA:1,_ZN5Catch12compareEqualINSt7__cxx1112basic_stringIcSt11char_traitsIcESaIcEEEA5_cEEbRKT_RKT0_
FNDA:1,_ZN5Catch12compareEqualINSt7__cxx1112basic_stringIcSt11char_traitsIcESaIcEEES6_EEbRKT_RKT0_
FNDA:2,_ZN5Catch12compareEqualIPcNSt7__cxx1112basic_stringIcSt11char_traitsIcESaIcEEEEEbRKT_RKT0_
FNDA:35,_ZN5Catch12compareEqualIiiEEbRKT_RKT0_
FNDA:1,_ZN5Catch15compareNotEqualI4dateRKS1_EEbRKT_OT0_
FNDA:12,_ZN5Catch15compareNotEqualImRKmEEbRKT_OT0_
FNDA:4,_ZN5Catch7ExprLhsIRK4dateEC2ES3_
FNDA:9,_ZN5Catch7ExprLhsIRKNSt7__cxx1112basic_stringIcSt11char_traitsIcESaIcEEEEC2ES8_
FNDA:2,_ZN5Catch7ExprLhsIRKPcEC2ES3_
FNDA:46,_ZN5Catch7ExprLhsIRKiEC2ES2_
FNDA:12,_ZN5Catch7ExprLhsIRKmEC2ES2_
FNDA:9,_ZN5Catch7ExprLhsIbEC2Eb
FNDA:1,_ZN5Catch7ExprLhsIRK4dateEeqIS1_EEKNS_10BinaryExprIS3_RKT_EES9_
FNDA:1,_ZN5Catch7ExprLhsIRKNSt7__cxx1112basic_stringIcSt11char_traitsIcESaIcEEEEeqIA10_cEEKNS_10BinaryExprIS8_RKT_EESF_
FNDA:3,_ZN5Catch7ExprLhsIRKNSt7__cxx1112basic_stringIcSt11char_traitsIcESaIcEEEEeqIA11_cEEKNS_10BinaryExprIS8_RKT_EESF_
FNDA:1,_ZN5Catch7ExprLhsIRKNSt7__cxx1112basic_stringIcSt11char_traitsIcESaIcEEEEeqIA14_cEEKNS_10BinaryExprIS8_RKT_EESF_
FNDA:1,_ZN5Catch7ExprLhsIRKNSt7__cxx1112basic_stringIcSt11char_traitsIcESaIcEEEEeqIA15_cEEKNS_10BinaryExprIS8_RKT_EESF_
FNDA:1,_ZN5Catch7ExprLhsIRKNSt7__cxx1112basic_stringIcSt11char_traitsIcESaIcEEEEeqIA2_cEEKNS_10BinaryExprIS8_RKT_EESF_
FNDA:1,_ZN5Catch7ExprLhsIRKNSt7__cxx1112basic_stringIcSt11char_traitsIcESaIcEEEEeqIA5_cEEKNS_10BinaryExprIS8_RKT_EESF_
FNDA:1,_ZN5Catch7ExprLhsIRKNSt7__cxx1112basic_stringIcSt11char_traitsIcESaIcEEEEeqIS6_EEKNS_10BinaryExprIS8_RKT_EESE_
FNDA:2,_ZN5Catch7ExprLhsIRKPcEeqINSt7__cxx1112basic_stringIcSt11char_traitsIcESaIcEEEEEKNS_10BinaryExprIS3_RKT_EESF_
FNDA:35,_ZN5Catch7ExprLhsIRKiEeqIiEEKNS_10BinaryExprIS2_RKT_EES8_
FNDA:4,_ZN5Catch7ExprLhsIbEeqEb
FNDA:1,_ZN5Catch7ExprLhsIRK4dateEneIS1_EEKNS_10BinaryExprIS3_RKT_EES9_
FNDA:12,_ZN5Catch7ExprLhsIRKmEneImEEKNS_10BinaryExprIS2_RKT_EES8_
FNDA:1,_ZN5Catch7ExprLhsIRK4dateEgtIS1_EEKNS_10BinaryExprIS3_RKT_EES9_
FNDA:7,_ZN5Catch7ExprLhsIRKiEgtIiEEKNS_10BinaryExprIS2_RKT_EES8_
FNDA:1,_ZN5Catch7ExprLhsIRK4dateEltIS1_EEKNS_10BinaryExprIS3_RKT_EES9_
FNDA:2,_ZN5Catch7ExprLhsIRKiEgeIiEEKNS_10BinaryExprIS2_RKT_EES8_
FNDA:2,_ZN5Catch7ExprLhsIRKiEleIiEEKNS_10BinaryExprIS2_RKT_EES8_
FNDA:5,_ZNK5Catch7ExprLhsIbE13makeUnaryExprEv
FNDA:4,_ZN5Catch10DecomposerleI4dateEENS_7ExprLhsIRKT_EES6_
FNDA:9,_ZN5Catch10DecomposerleINSt7__cxx1112basic_stringIcSt11char_traitsIcESaIcEEEEENS_7ExprLhsIRKT_EESB_
FNDA:2,_ZN5Catch10DecomposerleIPcEENS_7ExprLhsIRKT_EES6_
FNDA:46,_ZN5Catch10DecomposerleIiEENS_7ExprLhsIRKT_EES5_
FNDA:12,_ZN5Catch10DecomposerleImEENS_7ExprLhsIRKT_EES5_
FNDA:9,_ZN5Catch10DecomposerleEb
FNDA:122,_ZN5Catch16AssertionHandlerD2Ev
FNDA:5,_ZN5Catch16AssertionHandler10handleExprIbEEvRKNS_7ExprLhsIT_EE
FNDA:0,_ZN5Catch14MessageBuilderlsINSt7__cxx1112basic_stringIcSt11char_traitsIcESaIcEEEEERS0_RKT_
FNDA:0,_ZN5Catch6Detail6ApproxC2IevEERKT_
FNDA:0,_ZN5Catch6Detail6ApproxC2IivEERKT_
FNDA:0,_ZN5Catch6Detail6ApproxC2IyvEERKT_
FNDA:0,_ZN5Catch8Matchers4Impl18MatcherUntypedBaseC2Ev
FNDA:0,_ZN5Catch8Matchers9Exception23ExceptionMessageMatcherC2ERKNSt7__cxx1112basic_stringIcSt11char_traitsIcESaIcEEE
FNDA:0,_ZN5Catch9MatchExprINSt7__cxx1112basic_stringIcSt11char_traitsIcESaIcEEERKNS_8Matchers4Impl11MatcherBaseIS6_EEEC2ERKS6_SC_RKNS_9StringRefE
FNDA:0,_ZNK5Catch9MatchExprINSt7__cxx1112basic_stringIcSt11char_traitsIcESaIcEEERKNS_8Matchers4Impl11MatcherBaseIS6_EEE29streamReconstructedExpressionERSo
FNDA:0,_ZN5Catch15throw_exceptionISt11logic_errorEEvRKT_
FNDA:0,_ZN5Catch15throw_exceptionISt12domain_errorEEvRKT_
FNDA:0,_ZN5Catch15throw_exceptionISt13runtime_errorEEvRKT_
FNDA:134,_ZN5Catch24getCurrentMutableContextEv
FNDA:132,_ZN5Catch17getCurrentContextEv
FNDA:1,_ZN5Catch6OptionINS_11TestRunInfoEEC2Ev
FNDA:1,_ZN5Catch6OptionINS_12TestCaseInfoEEC2Ev
FNDA:1,_ZN5Catch6OptionINS_15AssertionResultEEC2Ev
FNDA:1,_ZN5Catch6OptionINS_9GroupInfoEEC2Ev
FNDA:1,_ZN5Catch6OptionImEC2Ev
FNDA:1,_ZN5Catch6OptionINS_11TestRunInfoEED2Ev
FNDA:1,_ZN5Catch6OptionINS_12TestCaseInfoEED2Ev
FNDA:1,_ZN5Catch6OptionINS_15AssertionResultEED2Ev
FNDA:1,_ZN5Catch6OptionINS_9GroupInfoEED2Ev
FNDA:1,_ZN5Catch6OptionImED2Ev
FNDA:1,_ZN5Catch6OptionINS_11TestRunInfoEEaSERKS1_
FNDA:59,_ZN5Catch6OptionINS_12TestCaseInfoEEaSERKS1_
FNDA:40,_ZN5Catch6OptionINS_15AssertionResultEEaSERKS1_
FNDA:1,_ZN5Catch6OptionINS_9GroupInfoEEaSERKS1_
FNDA:0,_ZN5Catch6OptionImEaSERKm
FNDA:3,_ZN5Catch6OptionINS_11TestRunInfoEE5resetEv
FNDA:120,_ZN5Catch6OptionINS_12TestCaseInfoEE5resetEv
FNDA:41,_ZN5Catch6OptionINS_15AssertionResultEE5resetEv
FNDA:4,_ZN5Catch6OptionINS_9GroupInfoEE5resetEv
FNDA:1,_ZN5Catch6OptionImE5resetEv
FNDA:0,_ZN5Catch6OptionImEdeEv
FNDA:0,_ZNK5Catch6OptionINS_15AssertionResultEEdeEv
FNDA:0,_ZN5Catch6OptionINS_11TestRunInfoEEptEv
FNDA:0,_ZN5Catch6OptionINS_12TestCaseInfoEEptEv
FNDA:0,_ZN5Catch6OptionINS_9GroupInfoEEptEv
FNDA:0,_ZNK5Catch6OptionImE7valueOrERKm
FNDA:1,_ZNK5Catch6OptionImE4someEv
FNDA:1,_ZNK5Catch6OptionImEcvbEv
FNDA:0,_ZN5Catch11SimplePcg32C2Ev
FNDA:241,_ZN5Catch14SourceLineInfoC2EPKcm
FNDA:0,_ZN5Catch15WildcardPatternD0Ev
FNDA:0,_ZN5Catch15WildcardPatternD2Ev
FNDA:0,_ZN5Catch14TestSpecParser16addCharToPatternEc
FNDA:0,_ZN5Catch6ConfigD0Ev
FNDA:1,_ZN5Catch6ConfigD2Ev
FNDA:1,_ZN5Catch8LazyStatINS_11TestRunInfoEEaSERKS1_
FNDA:59,_ZN5Catch8LazyStatINS_12TestCaseInfoEEaSERKS1_
FNDA:1,_ZN5Catch8LazyStatINS_9GroupInfoEEaSERKS1_
FNDA:1,_ZN5Catch8LazyStatINS_11TestRunInfoEE5resetEv
FNDA:60,_ZN5Catch8LazyStatINS_12TestCaseInfoEE5resetEv
FNDA:2,_ZN5Catch8LazyStatINS_9GroupInfoEE5resetEv
FNDA:0,_ZN5Catch14AssertionStatsC2ERKS0_
FNDA:0,_ZN5Catch12SectionStatsC2ERKS0_
FNDA:0,_ZN5Catch12SectionStatsaSERKS0_
FNDA:0,_ZN5Catch13TestCaseStatsC2ERKS0_
FNDA:0,_ZN5Catch14TestGroupStatsC2ERKS0_
FNDA:0,_ZN5Catch12TestRunStatsC2ERKS0_
FNDA:0,_ZN5Catch18IStreamingReporterD0Ev
FNDA:1,_ZN5Catch18IStreamingReporterD2Ev
FNDA:0,_ZN5Catch18IStreamingReporter22reportInvalidArgumentsERKNSt7__cxx1112basic_stringIcSt11char_traitsIcESaIcEEE
FNDA:0,_ZN5Catch21StreamingReporterBaseINS_11XmlReporterEEC2ERKNS_14ReporterConfigE
FNDA:0,_ZN5Catch21StreamingReporterBaseINS_15CompactReporterEEC2ERKNS_14ReporterConfigE
FNDA:1,_ZN5Catch21StreamingReporterBaseINS_15ConsoleReporterEEC2ERKNS_14ReporterConfigE
FNDA:0,_ZN5Catch21StreamingReporterBaseINS_21TestEventListenerBaseEEC2ERKNS_14ReporterConfigE
FNDA:0,_ZNK5Catch21StreamingReporterBaseINS_11XmlReporterEE14getPreferencesEv
FNDA:0,_ZNK5Catch21StreamingReporterBaseINS_15CompactReporterEE14getPreferencesEv
FNDA:60,_ZNK5Catch21StreamingReporterBaseINS_15ConsoleReporterEE14getPreferencesEv
FNDA:0,_ZNK5Catch21StreamingReporterBaseINS_21TestEventListenerBaseEE14getPreferencesEv
FNDA:0,_ZN5Catch21StreamingReporterBaseINS_11XmlReporterEE23getSupportedVerbositiesEv
FNDA:0,_ZN5Catch21StreamingReporterBaseINS_15CompactReporterEE23getSupportedVerbositiesEv
FNDA:1,_ZN5Catch21StreamingReporterBaseINS_15ConsoleReporterEE23getSupportedVerbositiesEv
FNDA:0,_ZN5Catch21StreamingReporterBaseINS_11XmlReporterEED0Ev
FNDA:0,_ZN5Catch21StreamingReporterBaseINS_11XmlReporterEED2Ev
FNDA:0,_ZN5Catch21StreamingReporterBaseINS_15CompactReporterEED0Ev
FNDA:0,_ZN5Catch21StreamingReporterBaseINS_15CompactReporterEED2Ev
FNDA:0,_ZN5Catch21StreamingReporterBaseINS_15ConsoleReporterEED0Ev
FNDA:1,_ZN5Catch21StreamingReporterBaseINS_15ConsoleReporterEED2Ev
FNDA:0,_ZN5Catch21StreamingReporterBaseINS_21TestEventListenerBaseEED0Ev
FNDA:0,_ZN5Catch21StreamingReporterBaseINS_21TestEventListenerBaseEED2Ev
FNDA:0,_ZN5Catch21StreamingReporterBaseINS_11XmlReporterEE19noMatchingTestCasesERKNSt7__cxx1112basic_stringIcSt11char_traitsIcESaIcEEE
FNDA:0,_ZN5Catch21StreamingReporterBaseINS_15CompactReporterEE19noMatchingTestCasesERKNSt7__cxx1112basic_stringIcSt11char_traitsIcESaIcEEE
FNDA:0,_ZN5Catch21StreamingReporterBaseINS_15ConsoleReporterEE19noMatchingTestCasesERKNSt7__cxx1112basic_stringIcSt11char_traitsIcESaIcEEE
FNDA:0,_ZN5Catch21StreamingReporterBaseINS_21TestEventListenerBaseEE19noMatchingTestCasesERKNSt7__cxx1112basic_stringIcSt11char_traitsIcESaIcEEE
FNDA:0,_ZN5Catch21StreamingReporterBaseINS_11XmlReporterEE22reportInvalidArgumentsERKNSt7__cxx1112basic_stringIcSt11char_traitsIcESaIcEEE
FNDA:0,_ZN5Catch21StreamingReporterBaseINS_15CompactReporterEE22reportInvalidArgumentsERKNSt7__cxx1112basic_stringIcSt11char_traitsIcESaIcEEE
FNDA:0,_ZN5Catch21StreamingReporterBaseINS_15ConsoleReporterEE22reportInvalidArgumentsERKNSt7__cxx1112basic_stringIcSt11char_traitsIcESaIcEEE
FNDA:0,_ZN5Catch21StreamingReporterBaseINS_21TestEventListenerBaseEE22reportInvalidArgumentsERKNSt7__cxx1112basic_stringIcSt11char_traitsIcESaIcEEE
FNDA:0,_ZN5Catch21StreamingReporterBaseINS_11XmlReporterEE15testRunStartingERKNS_11TestRunInfoE
FNDA:0,_ZN5Catch21StreamingReporterBaseINS_15CompactReporterEE15testRunStartingERKNS_11TestRunInfoE
FNDA:1,_ZN5Catch21StreamingReporterBaseINS_15ConsoleReporterEE15testRunStartingERKNS_11TestRunInfoE
FNDA:0,_ZN5Catch21StreamingReporterBaseINS_21TestEventListenerBaseEE15testRunStartingERKNS_11TestRunInfoE
FNDA:0,_ZN5Catch21StreamingReporterBaseINS_11XmlReporterEE17testGroupStartingERKNS_9GroupInfoE
FNDA:0,_ZN5Catch21StreamingReporterBaseINS_15CompactReporterEE17testGroupStartingERKNS_9GroupInfoE
FNDA:1,_ZN5Catch21StreamingReporterBaseINS_15ConsoleReporterEE17testGroupStartingERKNS_9GroupInfoE
FNDA:0,_ZN5Catch21StreamingReporterBaseINS_21TestEventListenerBaseEE17testGroupStartingERKNS_9GroupInfoE
FNDA:0,_ZN5Catch21StreamingReporterBaseINS_11XmlReporterEE16testCaseStartingERKNS_12TestCaseInfoE
FNDA:0,_ZN5Catch21StreamingReporterBaseINS_15CompactReporterEE16testCaseStartingERKNS_12TestCaseInfoE
FNDA:59,_ZN5Catch21StreamingReporterBaseINS_15ConsoleReporterEE16testCaseStartingERKNS_12TestCaseInfoE
FNDA:0,_ZN5Catch21StreamingReporterBaseINS_21TestEventListenerBaseEE16testCaseStartingERKNS_12TestCaseInfoE
FNDA:0,_ZN5Catch21StreamingReporterBaseINS_11XmlReporterEE15sectionStartingERKNS_11SectionInfoE
FNDA:0,_ZN5Catch21StreamingReporterBaseINS_15CompactReporterEE15sectionStartingERKNS_11SectionInfoE
FNDA:59,_ZN5Catch21StreamingReporterBaseINS_15ConsoleReporterEE15sectionStartingERKNS_11SectionInfoE
FNDA:0,_ZN5Catch21StreamingReporterBaseINS_21TestEventListenerBaseEE15sectionStartingERKNS_11SectionInfoE
FNDA:0,_ZN5Catch21StreamingReporterBaseINS_11XmlReporterEE12sectionEndedERKNS_12SectionStatsE
FNDA:0,_ZN5Catch21StreamingReporterBaseINS_15CompactReporterEE12sectionEndedERKNS_12SectionStatsE
FNDA:59,_ZN5Catch21StreamingReporterBaseINS_15ConsoleReporterEE12sectionEndedERKNS_12SectionStatsE
FNDA:0,_ZN5Catch21StreamingReporterBaseINS_21TestEventListenerBaseEE12sectionEndedERKNS_12SectionStatsE
FNDA:0,_ZN5Catch21StreamingReporterBaseINS_11XmlReporterEE13testCaseEndedERKNS_13TestCaseStatsE
FNDA:0,_ZN5Catch21StreamingReporterBaseINS_15CompactReporterEE13testCaseEndedERKNS_13TestCaseStatsE
FNDA:59,_ZN5Catch21StreamingReporterBaseINS_15ConsoleReporterEE13testCaseEndedERKNS_13TestCaseStatsE
FNDA:0,_ZN5Catch21StreamingReporterBaseINS_21TestEventListenerBaseEE13testCaseEndedERKNS_13TestCaseStatsE
FNDA:0,_ZN5Catch21StreamingReporterBaseINS_11XmlReporterEE14testGroupEndedERKNS_14TestGroupStatsE
FNDA:0,_ZN5Catch21StreamingReporterBaseINS_15CompactReporterEE14testGroupEndedERKNS_14TestGroupStatsE
FNDA:1,_ZN5Catch21StreamingReporterBaseINS_15ConsoleReporterEE14testGroupEndedERKNS_14TestGroupStatsE
FNDA:0,_ZN5Catch21StreamingReporterBaseINS_21TestEventListenerBaseEE14testGroupEndedERKNS_14TestGroupStatsE
FNDA:0,_ZN5Catch21StreamingReporterBaseINS_11XmlReporterEE12testRunEndedERKNS_12TestRunStatsE
FNDA:0,_ZN5Catch21StreamingReporterBaseINS_15CompactReporterEE12testRunEndedERKNS_12TestRunStatsE
FNDA:1,_ZN5Catch21StreamingReporterBaseINS_15ConsoleReporterEE12testRunEndedERKNS_12TestRunStatsE
FNDA:0,_ZN5Catch21StreamingReporterBaseINS_21TestEventListenerBaseEE12testRunEndedERKNS_12TestRunStatsE
FNDA:0,_ZN5Catch21StreamingReporterBaseINS_11XmlReporterEE8skipTestERKNS_12TestCaseInfoE
FNDA:0,_ZN5Catch21StreamingReporterBaseINS_15CompactReporterEE8skipTestERKNS_12TestCaseInfoE
FNDA:0,_ZN5Catch21StreamingReporterBaseINS_15ConsoleReporterEE8skipTestERKNS_12TestCaseInfoE
FNDA:0,_ZN5Catch21StreamingReporterBaseINS_21TestEventListenerBaseEE8skipTestERKNS_12TestCaseInfoE
FNDA:0,_ZN5Catch22CumulativeReporterBaseINS_13JunitReporterEE4NodeINS_12TestRunStatsENS3_INS_14TestGroupStatsENS3_INS_13TestCaseStatsENS2_11SectionNodeEEEEEEC2ERKS4_
FNDA:0,_ZN5Catch22CumulativeReporterBaseINS_13JunitReporterEE4NodeINS_13TestCaseStatsENS2_11SectionNodeEEC2ERKS4_
FNDA:0,_ZN5Catch22CumulativeReporterBaseINS_13JunitReporterEE4NodeINS_14TestGroupStatsENS3_INS_13TestCaseStatsENS2_11SectionNodeEEEEC2ERKS4_
FNDA:0,_ZN5Catch22CumulativeReporterBaseINS_13JunitReporterEE4NodeINS_12TestRunStatsENS3_INS_14TestGroupStatsENS3_INS_13TestCaseStatsENS2_11SectionNodeEEEEEED0Ev
FNDA:0,_ZN5Catch22CumulativeReporterBaseINS_13JunitReporterEE4NodeINS_12TestRunStatsENS3_INS_14TestGroupStatsENS3_INS_13TestCaseStatsENS2_11SectionNodeEEEEEED2Ev
FNDA:0,_ZN5Catch22CumulativeReporterBaseINS_13JunitReporterEE4NodeINS_13TestCaseStatsENS2_11SectionNodeEED0Ev
FNDA:0,_ZN5Catch22CumulativeReporterBaseINS_13JunitReporterEE4NodeINS_13TestCaseStatsENS2_11SectionNodeEED2Ev
FNDA:0,_ZN5Catch22CumulativeReporterBaseINS_13JunitReporterEE4NodeINS_14TestGroupStatsENS3_INS_13TestCaseStatsENS2_11SectionNodeEEEED0Ev
FNDA:0,_ZN5Catch22CumulativeReporterBaseINS_13JunitReporterEE4NodeINS_14TestGroupStatsENS3_INS_13TestCaseStatsENS2_11SectionNodeEEEED2Ev
FNDA:0,_ZN5Catch22CumulativeReporterBaseINS_13JunitReporterEE11SectionNodeC2ERKNS_12SectionStatsE
FNDA:0,_ZN5Catch22CumulativeReporterBaseINS_13JunitReporterEE11SectionNodeD0Ev
FNDA:0,_ZN5Catch22CumulativeReporterBaseINS_13JunitReporterEE11SectionNodeD2Ev
FNDA:0,_ZN5Catch22CumulativeReporterBaseINS_13JunitReporterEE13BySectionInfoC2ERKNS_11SectionInfoE
FNDA:0,_ZN5Catch22CumulativeReporterBaseINS_13JunitReporterEE13BySectionInfoC2ERKS3_
FNDA:0,_ZNK5Catch22CumulativeReporterBaseINS_13JunitReporterEE13BySectionInfoclERKSt10shared_ptrINS2_11SectionNodeEE
FNDA:0,_ZN5Catch22CumulativeReporterBaseINS_13JunitReporterEEC2ERKNS_14ReporterConfigE
FNDA:0,_ZN5Catch22CumulativeReporterBaseINS_13JunitReporterEED0Ev
FNDA:0,_ZN5Catch22CumulativeReporterBaseINS_13JunitReporterEED2Ev
FNDA:0,_ZNK5Catch22CumulativeReporterBaseINS_13JunitReporterEE14getPreferencesEv
FNDA:0,_ZN5Catch22CumulativeReporterBaseINS_13JunitReporterEE23getSupportedVerbositiesEv
FNDA:0,_ZN5Catch22CumulativeReporterBaseINS_13JunitReporterEE15testRunStartingERKNS_11TestRunInfoE
FNDA:0,_ZN5Catch22CumulativeReporterBaseINS_13JunitReporterEE17testGroupStartingERKNS_9GroupInfoE
FNDA:0,_ZN5Catch22CumulativeReporterBaseINS_13JunitReporterEE16testCaseStartingERKNS_12TestCaseInfoE
FNDA:0,_ZN5Catch22CumulativeReporterBaseINS_13JunitReporterEE15sectionStartingERKNS_11SectionInfoE
FNDA:0,_ZN5Catch22CumulativeReporterBaseINS_13JunitReporterEE17assertionStartingERKNS_13AssertionInfoE
FNDA:0,_ZN5Catch22CumulativeReporterBaseINS_13JunitReporterEE14assertionEndedERKNS_14AssertionStatsE
FNDA:0,_ZN5Catch22CumulativeReporterBaseINS_13JunitReporterEE12sectionEndedERKNS_12SectionStatsE
FNDA:0,_ZN5Catch22CumulativeReporterBaseINS_13JunitReporterEE13testCaseEndedERKNS_13TestCaseStatsE
FNDA:0,_ZN5Catch22CumulativeReporterBaseINS_13JunitReporterEE14testGroupEndedERKNS_14TestGroupStatsE
FNDA:0,_ZN5Catch22CumulativeReporterBaseINS_13JunitReporterEE12testRunEndedERKNS_12TestRunStatsE
FNDA:0,_ZN5Catch22CumulativeReporterBaseINS_13JunitReporterEE8skipTestERKNS_12TestCaseInfoE
FNDA:0,_ZN5Catch14getLineOfCharsILc126EEEPKcv
FNDA:0,_ZN5Catch14getLineOfCharsILc45EEEPKcv
FNDA:0,_ZN5Catch14getLineOfCharsILc46EEEPKcv
FNDA:0,_ZNK5Catch17ReporterRegistrarINS_11XmlReporterEE15ReporterFactory6createERKNS_14ReporterConfigE
FNDA:0,_ZNK5Catch17ReporterRegistrarINS_13JunitReporterEE15ReporterFactory6createERKNS_14ReporterConfigE
FNDA:0,_ZNK5Catch17ReporterRegistrarINS_15CompactReporterEE15ReporterFactory6createERKNS_14ReporterConfigE
FNDA:1,_ZNK5Catch17ReporterRegistrarINS_15ConsoleReporterEE15ReporterFactory6createERKNS_14ReporterConfigE
FNDA:0,_ZNK5Catch17ReporterRegistrarINS_11XmlReporterEE15ReporterFactory14getDescriptionB5cxx11Ev
FNDA:0,_ZNK5Catch17ReporterRegistrarINS_13JunitReporterEE15ReporterFactory14getDescriptionB5cxx11Ev
FNDA:0,_ZNK5Catch17ReporterRegistrarINS_15CompactReporterEE15ReporterFactory14getDescriptionB5cxx11Ev
FNDA:0,_ZNK5Catch17ReporterRegistrarINS_15ConsoleReporterEE15ReporterFactory14getDescriptionB5cxx11Ev
FNDA:1,_ZN5Catch17ReporterRegistrarINS_11XmlReporterEEC2ERKNSt7__cxx1112basic_stringIcSt11char_traitsIcESaIcEEE
FNDA:1,_ZN5Catch17ReporterRegistrarINS_13JunitReporterEEC2ERKNSt7__cxx1112basic_stringIcSt11char_traitsIcESaIcEEE
FNDA:1,_ZN5Catch17ReporterRegistrarINS_15CompactReporterEEC2ERKNSt7__cxx1112basic_stringIcSt11char_traitsIcESaIcEEE
FNDA:1,_ZN5Catch17ReporterRegistrarINS_15ConsoleReporterEEC2ERKNSt7__cxx1112basic_stringIcSt11char_traitsIcESaIcEEE
FNDA:146,_ZN5Catch9StringRefC2Ev
FNDA:596,_ZN5Catch9StringRefC2EPKcm
FNDA:1,_ZN5Catch9StringRefC2ERKNSt7__cxx1112basic_stringIcSt11char_traitsIcESaIcEEE
FNDA:0,_ZN5Catch9XmlWriter13ScopedElement14writeAttributeIA12_cEERS1_RKNSt7__cxx1112basic_stringIcSt11char_traitsIcESaIcEEERKT_
FNDA:0,_ZN5Catch9XmlWriter13ScopedElement14writeAttributeIA31_cEERS1_RKNSt7__cxx1112basic_stringIcSt11char_traitsIcESaIcEEERKT_
FNDA:0,_ZN5Catch9XmlWriter13ScopedElement14writeAttributeIA8_cEERS1_RKNSt7__cxx1112basic_stringIcSt11char_traitsIcESaIcEEERKT_
FNDA:0,_ZN5Catch9XmlWriter13ScopedElement14writeAttributeINSt7__cxx1112basic_stringIcSt11char_traitsIcESaIcEEEEERS1_RKS8_RKT_
FNDA:0,_ZN5Catch9XmlWriter13ScopedElement14writeAttributeIbEERS1_RKNSt7__cxx1112basic_stringIcSt11char_traitsIcESaIcEEERKT_
FNDA:0,_ZN5Catch9XmlWriter13ScopedElement14writeAttributeIdEERS1_RKNSt7__cxx1112basic_stringIcSt11char_traitsIcESaIcEEERKT_
FNDA:0,_ZN5Catch9XmlWriter13ScopedElement14writeAttributeIjEERS1_RKNSt7__cxx1112basic_stringIcSt11char_traitsIcESaIcEEERKT_
FNDA:0,_ZN5Catch9XmlWriter13ScopedElement14writeAttributeImEERS1_RKNSt7__cxx1112basic_stringIcSt11char_traitsIcESaIcEEERKT_
FNDA:0,_ZN5Catch9XmlWriter14writeAttributeIA12_cEERS0_RKNSt7__cxx1112basic_stringIcSt11char_traitsIcESaIcEEERKT_
FNDA:0,_ZN5Catch9XmlWriter14writeAttributeIA1_cEERS0_RKNSt7__cxx1112basic_stringIcSt11char_traitsIcESaIcEEERKT_
FNDA:0,_ZN5Catch9XmlWriter14writeAttributeIA31_cEERS0_RKNSt7__cxx1112basic_stringIcSt11char_traitsIcESaIcEEERKT_
FNDA:0,_ZN5Catch9XmlWriter14writeAttributeIA4_cEERS0_RKNSt7__cxx1112basic_stringIcSt11char_traitsIcESaIcEEERKT_
FNDA:0,_ZN5Catch9XmlWriter14writeAttributeIA5_cEERS0_RKNSt7__cxx1112basic_stringIcSt11char_traitsIcESaIcEEERKT_
FNDA:0,_ZN5Catch9XmlWriter14writeAttributeIA8_cEERS0_RKNSt7__cxx1112basic_stringIcSt11char_traitsIcESaIcEEERKT_
FNDA:0,_ZN5Catch9XmlWriter14writeAttributeINS_9StringRefEEERS0_RKNSt7__cxx1112basic_stringIcSt11char_traitsIcESaIcEEERKT_
FNDA:0,_ZN5Catch9XmlWriter14writeAttributeIPKcEERS0_RKNSt7__cxx1112basic_stringIcSt11char_traitsIcESaIcEEERKT_
FNDA:0,_ZN5Catch9XmlWriter14writeAttributeIdEERS0_RKNSt7__cxx1112basic_stringIcSt11char_traitsIcESaIcEEERKT_
FNDA:0,_ZN5Catch9XmlWriter14writeAttributeIjEERS0_RKNSt7__cxx1112basic_stringIcSt11char_traitsIcESaIcEEERKT_
FNDA:0,_ZN5Catch9XmlWriter14writeAttributeImEERS0_RKNSt7__cxx1112basic_stringIcSt11char_traitsIcESaIcEEERKT_
FNDA:118,_ZNK5Catch9StringRefcvNSt7__cxx1112basic_stringIcSt11char_traitsIcESaIcEEEEv
FNDA:0,_ZNK5Catch9StringRefixEm
FNDA:1,_ZNK5Catch9StringRef5emptyEv
FNDA:0,_ZNK5Catch9StringRef4sizeEv
FNDA:0,_ZNK5Catch9StringRef16isNullTerminatedEv
FNDA:59,_ZNK5Catch9StringRef5beginEv
FNDA:59,_ZNK5Catch9StringRef3endEv
FNDA:122,_ZN5Catchli3_srEPKcm
FNDA:122,_Zli9_catch_srPKcm
FNDA:0,_ZN5Catch16TestCaseTrackingeqERKNS0_15NameAndLocationES3_
FNDA:118,_ZN5Catch16TestCaseTracking8ITrackerC2ERKNS0_15NameAndLocationE
FNDA:0,_ZNK5Catch16TestCaseTracking8ITracker15nameAndLocationEv
FNDA:0,_ZNK5Catch16TestCaseTracking11TrackerBase10hasStartedEv
FNDA:0,_ZN12_GLOBAL__N_116marginComparisonEddd
FNDA:0,_ZN5Catch6Detail6ApproxC2Ed
FNDA:0,_ZN5Catch6Detail6Approx6customEv
FNDA:0,_ZNK5Catch6Detail6ApproxngEv
FNDA:0,_ZNK5Catch6Detail6Approx8toStringB5cxx11Ev
FNDA:0,_ZNK5Catch6Detail6Approx22equalityComparisonImplEd
FNDA:0,_ZN5Catch6Detail6Approx9setMarginEd
FNDA:0,_ZN5Catch6Detail6Approx10setEpsilonEd
FNDA:0,_ZN5Catch8literalsli2_aEe
FNDA:0,_ZN5Catch8literalsli2_aEy
FNDA:0,_ZN5Catch11StringMakerINS_6Detail6ApproxEvE7convertB5cxx11ERKS2_
FNDA:59,_ZN5Catch21FatalConditionHandler6engageEv
FNDA:59,_ZN5Catch21FatalConditionHandler9disengageEv
FNDA:59,_ZN5Catch26FatalConditionHandlerGuardC2EPNS_21FatalConditionHandlerE
FNDA:59,_ZN5Catch26FatalConditionHandlerGuardD2Ev
FNDA:0,_ZN5Catch12_GLOBAL__N_1lsERSoRKNS_20ITransientExpressionE
FNDA:40,_ZN5Catch14LazyExpressionC2Eb
FNDA:160,_ZN5Catch14LazyExpressionC2ERKS0_
FNDA:0,_ZNK5Catch14LazyExpressioncvbEv
FNDA:0,_ZN5CatchlsERSoRKNS_14LazyExpressionE
FNDA:122,_ZN5Catch16AssertionHandlerC2ERKNS_9StringRefERKNS_14SourceLineInfoES1_NS_17ResultDisposition5FlagsE
FNDA:82,_ZN5Catch16AssertionHandler10handleExprERKNS_20ITransientExpressionE
FNDA:0,_ZN5Catch16AssertionHandler13handleMessageENS_9ResultWas6OfTypeERKNS_9StringRefE
FNDA:1,_ZNK5Catch16AssertionHandler11allowThrowsEv
FNDA:122,_ZN5Catch16AssertionHandler8completeEv
FNDA:0,_ZZN5Catch16AssertionHandler8completeEvENKUlvE_clEv
FNDA:122,_ZN5Catch16AssertionHandler12setCompletedEv
FNDA:0,_ZN5Catch16AssertionHandler33handleUnexpectedInflightExceptionEv
FNDA:1,_ZN5Catch16AssertionHandler31handleExceptionThrownAsExpectedEv
FNDA:39,_ZN5Catch16AssertionHandler34handleExceptionNotThrownAsExpectedEv
FNDA:0,_ZN5Catch16AssertionHandler34handleUnexpectedExceptionNotThrownEv
FNDA:0,_ZN5Catch16AssertionHandler25handleThrowingCallSkippedEv
FNDA:0,_ZN5Catch24handleExceptionMatchExprERNS_16AssertionHandlerERKNSt7__cxx1112basic_stringIcSt11char_traitsIcESaIcEEERKNS_9StringRefE
FNDA:40,_ZN5Catch19AssertionResultDataC2ENS_9ResultWas6OfTypeERKNS_14LazyExpressionE
FNDA:0,_ZNK5Catch19AssertionResultData21reconstructExpressionB5cxx11Ev
FNDA:40,_ZN5Catch15AssertionResultC2ERKNS_13AssertionInfoERKNS_19AssertionResultDataE
FNDA:0,_ZNK5Catch15AssertionResult9succeededEv
FNDA:80,_ZNK5Catch15AssertionResult4isOkEv
FNDA:120,_ZNK5Catch15AssertionResult13getResultTypeEv
FNDA:0,_ZNK5Catch15AssertionResult13hasExpressionEv
FNDA:40,_ZNK5Catch15AssertionResult10hasMessageEv
FNDA:0,_ZNK5Catch15AssertionResult13getExpressionB5cxx11Ev
FNDA:0,_ZNK5Catch15AssertionResult20getExpressionInMacroB5cxx11Ev
FNDA:0,_ZNK5Catch15AssertionResult21hasExpandedExpressionEv
FNDA:0,_ZNK5Catch15AssertionResult21getExpandedExpressionB5cxx11Ev
FNDA:0,_ZNK5Catch15AssertionResult10getMessageB5cxx11Ev
FNDA:0,_ZNK5Catch15AssertionResult13getSourceInfoEv
FNDA:0,_ZNK5Catch15AssertionResult16getTestMacroNameEv
FNDA:0,_ZN5Catch24handleExceptionMatchExprERNS_16AssertionHandlerERKNS_8Matchers4Impl11MatcherBaseINSt7__cxx1112basic_stringIcSt11char_traitsIcESaIcEEEEERKNS_9StringRefE
FNDA:0,_ZN5Catch5clara8TextFlow12isWhitespaceEc
FNDA:0,_ZN5Catch5clara8TextFlow17isBreakableBeforeEc
FNDA:0,_ZN5Catch5clara8TextFlow16isBreakableAfterEc
FNDA:0,_ZN5Catch5clara8TextFlow6Column8iteratorC2ERKS2_m
FNDA:0,_ZNK5Catch5clara8TextFlow6Column8iterator4lineB5cxx11Ev
FNDA:0,_ZNK5Catch5clara8TextFlow6Column8iterator10isBoundaryEm
FNDA:0,_ZN5Catch5clara8TextFlow6Column8iterator10calcLengthEv
FNDA:0,_ZNK5Catch5clara8TextFlow6Column8iterator6indentEv
FNDA:0,_ZNK5Catch5clara8TextFlow6Column8iterator18addIndentAndSuffixERKNSt7__cxx1112basic_stringIcSt11char_traitsIcESaIcEEE
FNDA:0,_ZN5Catch5clara8TextFlow6Column8iteratorC2ERKS2_
FNDA:0,_ZNK5Catch5clara8TextFlow6Column8iteratordeB5cxx11Ev
FNDA:0,_ZN5Catch5clara8TextFlow6Column8iteratorppEv
FNDA:0,_ZNK5Catch5clara8TextFlow6Column8iteratoreqERKS3_
FNDA:0,_ZNK5Catch5clara8TextFlow6Column8iteratorneERKS3_
FNDA:0,_ZN5Catch5clara8TextFlow6ColumnC2ERKNSt7__cxx1112basic_stringIcSt11char_traitsIcESaIcEEE
FNDA:0,_ZN5Catch5clara8TextFlow6Column5widthEm
FNDA:0,_ZN5Catch5clara8TextFlow6Column6indentEm
FNDA:0,_ZN5Catch5clara8TextFlow6Column13initialIndentEm
FNDA:0,_ZNK5Catch5clara8TextFlow6Column5widthEv
FNDA:0,_ZNK5Catch5clara8TextFlow6Column5beginEv
FNDA:0,_ZNK5Catch5clara8TextFlow6Column3endEv
FNDA:0,_ZN5Catch5clara8TextFlowlsERSoRKNS1_6ColumnE
FNDA:0,_ZN5Catch5clara8TextFlow6SpacerC2Em
FNDA:0,_ZN5Catch5clara8TextFlow7Columns8iteratorC2ERKS2_NS3_6EndTagE
FNDA:0,_ZN5Catch5clara8TextFlow7Columns8iteratorC2ERKS2_
FNDA:0,_ZNK5Catch5clara8TextFlow7Columns8iteratorneERKS3_
FNDA:0,_ZNK5Catch5clara8TextFlow7Columns8iteratordeB5cxx11Ev
FNDA:0,_ZN5Catch5clara8TextFlow7Columns8iteratorppEv
FNDA:0,_ZNK5Catch5clara8TextFlow7Columns5beginEv
FNDA:0,_ZNK5Catch5clara8TextFlow7Columns3endEv
FNDA:0,_ZN5Catch5clara8TextFlow7ColumnspLERKNS1_6ColumnE
FNDA:0,_ZN5Catch5clara8TextFlow7ColumnsplERKNS1_6ColumnE
FNDA:0,_ZN5Catch5clara8TextFlowlsERSoRKNS1_7ColumnsE
FNDA:0,_ZN5Catch5clara8TextFlow6ColumnplERKS2_
FNDA:1,_ZN5Catch5clara6detail4ArgsC2EiPKPKc
FNDA:1,_ZNK5Catch5clara6detail4Args7exeNameB5cxx11Ev
FNDA:0,_ZN5Catch5clara6detail11isOptPrefixEc
FNDA:1,_ZN5Catch5clara6detail11TokenStream10loadBufferEv
FNDA:1,_ZN5Catch5clara6detail11TokenStreamC2ERKNS1_4ArgsE
FNDA:1,_ZN5Catch5clara6detail11TokenStreamC2EN9__gnu_cxx17__normal_iteratorIPKNSt7__cxx1112basic_stringIcSt11char_traitsIcESaIcEEESt6vectorISA_SaISA_EEEESG_
FNDA:1,_ZNK5Catch5clara6detail11TokenStreamcvbEv
FNDA:0,_ZNK5Catch5clara6detail11TokenStreamdeEv
FNDA:0,_ZNK5Catch5clara6detail11TokenStreamptEv
FNDA:0,_ZN5Catch5clara6detail11TokenStreamppEv
FNDA:2,_ZN5Catch5clara6detail10ResultBaseC2ENS2_4TypeE
FNDA:0,_ZN5Catch5clara6detail10ResultBaseD0Ev
FNDA:3,_ZN5Catch5clara6detail10ResultBaseD2Ev
FNDA:1,_ZNK5Catch5clara6detail15ResultValueBaseINS1_10ParseStateEE5valueEv
FNDA:0,_ZNK5Catch5clara6detail15ResultValueBaseINS1_15ParseResultTypeEE5valueEv
FNDA:0,_ZN5Catch5clara6detail15ResultValueBaseINS1_10ParseStateEEC2ENS1_10ResultBase4TypeE
FNDA:0,_ZN5Catch5clara6detail15ResultValueBaseINS1_15ParseResultTypeEEC2ENS1_10ResultBase4TypeE
FNDA:1,_ZN5Catch5clara6detail15ResultValueBaseINS1_10ParseStateEEC2ERKS4_
FNDA:0,_ZN5Catch5clara6detail15ResultValueBaseINS1_15ParseResultTypeEEC2ERKS4_
FNDA:1,_ZN5Catch5clara6detail15ResultValueBaseINS1_10ParseStateEEC2ENS1_10ResultBase4TypeERKS3_
FNDA:1,_ZN5Catch5clara6detail15ResultValueBaseINS1_15ParseResultTypeEEC2ENS1_10ResultBase4TypeERKS3_
FNDA:0,_ZN5Catch5clara6detail15ResultValueBaseINS1_10ParseStateEEaSERKS4_
FNDA:0,_ZN5Catch5clara6detail15ResultValueBaseINS1_10ParseStateEED0Ev
FNDA:2,_ZN5Catch5clara6detail15ResultValueBaseINS1_10ParseStateEED2Ev
FNDA:0,_ZN5Catch5clara6detail15ResultValueBaseINS1_15ParseResultTypeEED0Ev
FNDA:1,_ZN5Catch5clara6detail15ResultValueBaseINS1_15ParseResultTypeEED2Ev
FNDA:0,_ZN5Catch5clara6detail11BasicResultINS1_10ParseStateEEC2INS1_15ParseResultTypeEEERKNS2_IT_EE
FNDA:0,_ZN5Catch5clara6detail11BasicResultINS1_10ParseStateEEC2IvEERKNS2_IT_EE
FNDA:1,_ZN5Catch5clara6detail11BasicResultINS1_10ParseStateEE2okIS3_EES4_RKT_
FNDA:1,_ZN5Catch5clara6detail11BasicResultINS1_15ParseResultTypeEE2okIS3_EES4_RKT_
FNDA:0,_ZN5Catch5clara6detail11BasicResultIvE2okEv
FNDA:0,_ZN5Catch5clara6detail11BasicResultIvE10logicErrorERKNSt7__cxx1112basic_stringIcSt11char_traitsIcESaIcEEE
FNDA:0,_ZN5Catch5clara6detail11BasicResultINS1_10ParseStateEE12runtimeErrorERKNSt7__cxx1112basic_stringIcSt11char_traitsIcESaIcEEE
FNDA:0,_ZN5Catch5clara6detail11BasicResultINS1_15ParseResultTypeEE12runtimeErrorERKNSt7__cxx1112basic_stringIcSt11char_traitsIcESaIcEEE
FNDA:1,_ZNK5Catch5clara6detail11BasicResultINS1_10ParseStateEEcvbEv
FNDA:0,_ZNK5Catch5clara6detail11BasicResultINS1_15ParseResultTypeEEcvbEv
FNDA:0,_ZNK5Catch5clara6detail11BasicResultIvEcvbEv
FNDA:0,_ZNK5Catch5clara6detail11BasicResultINS1_10ParseStateEE4typeEv
FNDA:0,_ZNK5Catch5clara6detail11BasicResultINS1_15ParseResultTypeEE4typeEv
FNDA:0,_ZNK5Catch5clara6detail11BasicResultIvE4typeEv
FNDA:0,_ZNK5Catch5clara6detail11BasicResultINS1_10ParseStateEE12errorMessageB5cxx11Ev
FNDA:0,_ZNK5Catch5clara6detail11BasicResultINS1_15ParseResultTypeEE12errorMessageB5cxx11Ev
FNDA:0,_ZNK5Catch5clara6detail11BasicResultIvE12errorMessageB5cxx11Ev
FNDA:1,_ZNK5Catch5clara6detail11BasicResultINS1_10ParseStateEE9enforceOkEv
FNDA:0,_ZNK5Catch5clara6detail11BasicResultINS1_15ParseResultTypeEE9enforceOkEv
FNDA:0,_ZNK5Catch5clara6detail11BasicResultIvE9enforceOkEv
FNDA:0,_ZN5Catch5clara6detail11BasicResultINS1_10ParseStateEEC2ENS1_10ResultBase4TypeERKNSt7__cxx1112basic_stringIcSt11char_traitsIcESaIcEEE
FNDA:0,_ZN5Catch5clara6detail11BasicResultINS1_15ParseResultTypeEEC2ENS1_10ResultBase4TypeERKNSt7__cxx1112basic_stringIcSt11char_traitsIcESaIcEEE
FNDA:0,_ZN5Catch5clara6detail11BasicResultIvEC2ENS1_10ResultBase4TypeERKNSt7__cxx1112basic_stringIcSt11char_traitsIcESaIcEEE
FNDA:1,_ZN5Catch5clara6detail10ParseStateC2ENS1_15ParseResultTypeERKNS1_11TokenStreamE
FNDA:0,_ZNK5Catch5clara6detail10ParseState4typeEv
FNDA:1,_ZNK5Catch5clara6detail10ParseState15remainingTokensEv
FNDA:0,_ZN5Catch5clara6detail11convertIntoIdEENS1_11BasicResultINS1_15ParseResultTypeEEERKNSt7__cxx1112basic_stringIcSt11char_traitsIcESaIcEEERT_
FNDA:0,_ZN5Catch5clara6detail11convertIntoIiEENS1_11BasicResultINS1_15ParseResultTypeEEERKNSt7__cxx1112basic_stringIcSt11char_traitsIcESaIcEEERT_
FNDA:0,_ZN5Catch5clara6detail11convertIntoIjEENS1_11BasicResultINS1_15ParseResultTypeEEERKNSt7__cxx1112basic_stringIcSt11char_traitsIcESaIcEEERT_
FNDA:0,_ZN5Catch5clara6detail11convertIntoIlEENS1_11BasicResultINS1_15ParseResultTypeEEERKNSt7__cxx1112basic_stringIcSt11char_traitsIcESaIcEEERT_
FNDA:1,_ZN5Catch5clara6detail11convertIntoERKNSt7__cxx1112basic_stringIcSt11char_traitsIcESaIcEEERS7_
FNDA:0,_ZN5Catch5clara6detail11convertIntoERKNSt7__cxx1112basic_stringIcSt11char_traitsIcESaIcEEERb
FNDA:0,_ZZN5Catch5clara6detail11convertIntoERKNSt7__cxx1112basic_stringIcSt11char_traitsIcESaIcEEERbENKUlhE_clEh
FNDA:0,_ZN5Catch5clara6detail8BoundRefD0Ev
FNDA:33,_ZN5Catch5clara6detail8BoundRefD2Ev
FNDA:0,_ZNK5Catch5clara6detail8BoundRef11isContainerEv
FNDA:0,_ZNK5Catch5clara6detail8BoundRef6isFlagEv
FNDA:0,_ZNK5Catch5clara6detail16BoundFlagRefBase6isFlagEv
FNDA:3,_ZN5Catch5clara6detail13BoundValueRefINSt7__cxx1112basic_stringIcSt11char_traitsIcESaIcEEEEC2ERS8_
FNDA:2,_ZN5Catch5clara6detail13BoundValueRefIdEC2ERd
FNDA:2,_ZN5Catch5clara6detail13BoundValueRefIjEC2ERj
FNDA:1,_ZN5Catch5clara6detail13BoundValueRefIlEC2ERl
FNDA:1,_ZN5Catch5clara6detail13BoundValueRefINSt7__cxx1112basic_stringIcSt11char_traitsIcESaIcEEEE8setValueERKS8_
FNDA:0,_ZN5Catch5clara6detail13BoundValueRefIdE8setValueERKNSt7__cxx1112basic_stringIcSt11char_traitsIcESaIcEEE
FNDA:0,_ZN5Catch5clara6detail13BoundValueRefIjE8setValueERKNSt7__cxx1112basic_stringIcSt11char_traitsIcESaIcEEE
FNDA:0,_ZN5Catch5clara6detail13BoundValueRefIlE8setValueERKNSt7__cxx1112basic_stringIcSt11char_traitsIcESaIcEEE
FNDA:2,_ZN5Catch5clara6detail13BoundValueRefISt6vectorINSt7__cxx1112basic_stringIcSt11char_traitsIcESaIcEEESaIS9_EEEC2ERSB_
FNDA:0,_ZNK5Catch5clara6detail13BoundValueRefISt6vectorINSt7__cxx1112basic_stringIcSt11char_traitsIcESaIcEEESaIS9_EEE11isContainerEv
FNDA:0,_ZN5Catch5clara6detail13BoundValueRefISt6vectorINSt7__cxx1112basic_stringIcSt11char_traitsIcESaIcEEESaIS9_EEE8setValueERKS9_
FNDA:11,_ZN5Catch5clara6detail12BoundFlagRefC2ERb
FNDA:0,_ZN5Catch5clara6detail12BoundFlagRef7setFlagEb
FNDA:0,_ZN5Catch5clara6detail13LambdaInvokerINS1_11BasicResultINS1_15ParseResultTypeEEEE6invokeIZNS1_4HelpC4ERbEUlbE_bEES5_RKT_RKT0_
FNDA:0,_ZN5Catch5clara6detail13LambdaInvokerINS1_11BasicResultINS1_15ParseResultTypeEEEE6invokeIZNS_21makeCommandLineParserERNS_10ConfigDataEEUlRKNSt7__cxx1112basic_stringIcSt11char_traitsIcESaIcEEEE0_SF_EES5_RKT_RKT0_
FNDA:0,_ZN5Catch5clara6detail13LambdaInvokerINS1_11BasicResultINS1_15ParseResultTypeEEEE6invokeIZNS_21makeCommandLineParserERNS_10ConfigDataEEUlRKNSt7__cxx1112basic_stringIcSt11char_traitsIcESaIcEEEE1_SF_EES5_RKT_RKT0_
FNDA:0,_ZN5Catch5clara6detail13LambdaInvokerINS1_11BasicResultINS1_15ParseResultTypeEEEE6invokeIZNS_21makeCommandLineParserERNS_10ConfigDataEEUlRKNSt7__cxx1112basic_stringIcSt11char_traitsIcESaIcEEEE2_SF_EES5_RKT_RKT0_
FNDA:0,_ZN5Catch5clara6detail13LambdaInvokerINS1_11BasicResultINS1_15ParseResultTypeEEEE6invokeIZNS_21makeCommandLineParserERNS_10ConfigDataEEUlRKNSt7__cxx1112basic_stringIcSt11char_traitsIcESaIcEEEE3_SF_EES5_RKT_RKT0_
FNDA:0,_ZN5Catch5clara6detail13LambdaInvokerINS1_11BasicResultINS1_15ParseResultTypeEEEE6invokeIZNS_21makeCommandLineParserERNS_10ConfigDataEEUlRKNSt7__cxx1112basic_stringIcSt11char_traitsIcESaIcEEEE4_SF_EES5_RKT_RKT0_
FNDA:0,_ZN5Catch5clara6detail13LambdaInvokerINS1_11BasicResultINS1_15ParseResultTypeEEEE6invokeIZNS_21makeCommandLineParserERNS_10ConfigDataEEUlRKNSt7__cxx1112basic_stringIcSt11char_traitsIcESaIcEEEE5_SF_EES5_RKT_RKT0_
FNDA:0,_ZN5Catch5clara6detail13LambdaInvokerINS1_11BasicResultINS1_15ParseResultTypeEEEE6invokeIZNS_21makeCommandLineParserERNS_10ConfigDataEEUlRKNSt7__cxx1112basic_stringIcSt11char_traitsIcESaIcEEEE6_SF_EES5_RKT_RKT0_
FNDA:0,_ZN5Catch5clara6detail13LambdaInvokerINS1_11BasicResultINS1_15ParseResultTypeEEEE6invokeIZNS_21makeCommandLineParserERNS_10ConfigDataEEUlRKNSt7__cxx1112basic_stringIcSt11char_traitsIcESaIcEEEE_SF_EES5_RKT_RKT0_
FNDA:0,_ZN5Catch5clara6detail13LambdaInvokerIvE6invokeIZNS_21makeCommandLineParserERNS_10ConfigDataEEUlbE0_bEENS1_11BasicResultINS1_15ParseResultTypeEEERKT_RKT0_
FNDA:0,_ZN5Catch5clara6detail13LambdaInvokerIvE6invokeIZNS_21makeCommandLineParserERNS_10ConfigDataEEUlbE_bEENS1_11BasicResultINS1_15ParseResultTypeEEERKT_RKT0_
FNDA:0,_ZN5Catch5clara6detail13LambdaInvokerIvE6invokeIZNS_21makeCommandLineParserERNS_10ConfigDataEEUliE_iEENS1_11BasicResultINS1_15ParseResultTypeEEERKT_RKT0_
FNDA:0,_ZN5Catch5clara6detail12invokeLambdaINSt7__cxx1112basic_stringIcSt11char_traitsIcESaIcEEEZNS_21makeCommandLineParserERNS_10ConfigDataEEUlRKS8_E0_EENS1_11BasicResultINS1_15ParseResultTypeEEERKT0_SC_
FNDA:0,_ZN5Catch5clara6detail12invokeLambdaINSt7__cxx1112basic_stringIcSt11char_traitsIcESaIcEEEZNS_21makeCommandLineParserERNS_10ConfigDataEEUlRKS8_E1_EENS1_11BasicResultINS1_15ParseResultTypeEEERKT0_SC_
FNDA:0,_ZN5Catch5clara6detail12invokeLambdaINSt7__cxx1112basic_stringIcSt11char_traitsIcESaIcEEEZNS_21makeCommandLineParserERNS_10ConfigDataEEUlRKS8_E2_EENS1_11BasicResultINS1_15ParseResultTypeEEERKT0_SC_
FNDA:0,_ZN5Catch5clara6detail12invokeLambdaINSt7__cxx1112basic_stringIcSt11char_traitsIcESaIcEEEZNS_21makeCommandLineParserERNS_10ConfigDataEEUlRKS8_E3_EENS1_11BasicResultINS1_15ParseResultTypeEEERKT0_SC_
FNDA:0,_ZN5Catch5clara6detail12invokeLambdaINSt7__cxx1112basic_stringIcSt11char_traitsIcESaIcEEEZNS_21makeCommandLineParserERNS_10ConfigDataEEUlRKS8_E4_EENS1_11BasicResultINS1_15ParseResultTypeEEERKT0_SC_
FNDA:0,_ZN5Catch5clara6detail12invokeLambdaINSt7__cxx1112basic_stringIcSt11char_traitsIcESaIcEEEZNS_21makeCommandLineParserERNS_10ConfigDataEEUlRKS8_E5_EENS1_11BasicResultINS1_15ParseResultTypeEEERKT0_SC_
FNDA:0,_ZN5Catch5clara6detail12invokeLambdaINSt7__cxx1112basic_stringIcSt11char_traitsIcESaIcEEEZNS_21makeCommandLineParserERNS_10ConfigDataEEUlRKS8_E6_EENS1_11BasicResultINS1_15ParseResultTypeEEERKT0_SC_
FNDA:0,_ZN5Catch5clara6detail12invokeLambdaINSt7__cxx1112basic_stringIcSt11char_traitsIcESaIcEEEZNS_21makeCommandLineParserERNS_10ConfigDataEEUlRKS8_E_EENS1_11BasicResultINS1_15ParseResultTypeEEERKT0_SC_
FNDA:0,_ZN5Catch5clara6detail12invokeLambdaIbZNS_21makeCommandLineParserERNS_10ConfigDataEEUlbE0_EENS1_11BasicResultINS1_15ParseResultTypeEEERKT0_RKNSt7__cxx1112basic_stringIcSt11char_traitsIcESaIcEEE
FNDA:0,_ZN5Catch5clara6detail12invokeLambdaIiZNS_21makeCommandLineParserERNS_10ConfigDataEEUliE_EENS1_11BasicResultINS1_15ParseResultTypeEEERKT0_RKNSt7__cxx1112basic_stringIcSt11char_traitsIcESaIcEEE
FNDA:1,_ZN5Catch5clara6detail11BoundLambdaIZNS_21makeCommandLineParserERNS_10ConfigDataEEUlRKNSt7__cxx1112basic_stringIcSt11char_traitsIcESaIcEEEE0_EC2ERKSD_
FNDA:1,_ZN5Catch5clara6detail11BoundLambdaIZNS_21makeCommandLineParserERNS_10ConfigDataEEUlRKNSt7__cxx1112basic_stringIcSt11char_traitsIcESaIcEEEE1_EC2ERKSD_
FNDA:1,_ZN5Catch5clara6detail11BoundLambdaIZNS_21makeCommandLineParserERNS_10ConfigDataEEUlRKNSt7__cxx1112basic_stringIcSt11char_traitsIcESaIcEEEE2_EC2ERKSD_
FNDA:1,_ZN5Catch5clara6detail11BoundLambdaIZNS_21makeCommandLineParserERNS_10ConfigDataEEUlRKNSt7__cxx1112basic_stringIcSt11char_traitsIcESaIcEEEE3_EC2ERKSD_
FNDA:1,_ZN5Catch5clara6detail11BoundLambdaIZNS_21makeCommandLineParserERNS_10ConfigDataEEUlRKNSt7__cxx1112basic_stringIcSt11char_traitsIcESaIcEEEE4_EC2ERKSD_
FNDA:1,_ZN5Catch5clara6detail11BoundLambdaIZNS_21makeCommandLineParserERNS_10ConfigDataEEUlRKNSt7__cxx1112basic_stringIcSt11char_traitsIcESaIcEEEE5_EC2ERKSD_
FNDA:1,_ZN5Catch5clara6detail11BoundLambdaIZNS_21makeCommandLineParserERNS_10ConfigDataEEUlRKNSt7__cxx1112basic_stringIcSt11char_traitsIcESaIcEEEE6_EC2ERKSD_
FNDA:1,_ZN5Catch5clara6detail11BoundLambdaIZNS_21makeCommandLineParserERNS_10ConfigDataEEUlRKNSt7__cxx1112basic_stringIcSt11char_traitsIcESaIcEEEE_EC2ERKSD_
FNDA:1,_ZN5Catch5clara6detail11BoundLambdaIZNS_21makeCommandLineParserERNS_10ConfigDataEEUlbE0_EC2ERKS5_
FNDA:1,_ZN5Catch5clara6detail11BoundLambdaIZNS_21makeCommandLineParserERNS_10ConfigDataEEUliE_EC2ERKS5_
FNDA:0,_ZN5Catch5clara6detail11BoundLambdaIZNS_21makeCommandLineParserERNS_10ConfigDataEEUlRKNSt7__cxx1112basic_stringIcSt11char_traitsIcESaIcEEEE0_E8setValueESC_
FNDA:0,_ZN5Catch5clara6detail11BoundLambdaIZNS_21makeCommandLineParserERNS_10ConfigDataEEUlRKNSt7__cxx1112basic_stringIcSt11char_traitsIcESaIcEEEE1_E8setValueESC_
FNDA:0,_ZN5Catch5clara6detail11BoundLambdaIZNS_21makeCommandLineParserERNS_10ConfigDataEEUlRKNSt7__cxx1112basic_stringIcSt11char_traitsIcESaIcEEEE2_E8setValueESC_
FNDA:0,_ZN5Catch5clara6detail11BoundLambdaIZNS_21makeCommandLineParserERNS_10ConfigDataEEUlRKNSt7__cxx1112basic_stringIcSt11char_traitsIcESaIcEEEE3_E8setValueESC_
FNDA:0,_ZN5Catch5clara6detail11BoundLambdaIZNS_21makeCommandLineParserERNS_10ConfigDataEEUlRKNSt7__cxx1112basic_stringIcSt11char_traitsIcESaIcEEEE4_E8setValueESC_
FNDA:0,_ZN5Catch5clara6detail11BoundLambdaIZNS_21makeCommandLineParserERNS_10ConfigDataEEUlRKNSt7__cxx1112basic_stringIcSt11char_traitsIcESaIcEEEE5_E8setValueESC_
FNDA:0,_ZN5Catch5clara6detail11BoundLambdaIZNS_21makeCommandLineParserERNS_10ConfigDataEEUlRKNSt7__cxx1112basic_stringIcSt11char_traitsIcESaIcEEEE6_E8setValueESC_
FNDA:0,_ZN5Catch5clara6detail11BoundLambdaIZNS_21makeCommandLineParserERNS_10ConfigDataEEUlRKNSt7__cxx1112basic_stringIcSt11char_traitsIcESaIcEEEE_E8setValueESC_
FNDA:0,_ZN5Catch5clara6detail11BoundLambdaIZNS_21makeCommandLineParserERNS_10ConfigDataEEUlbE0_E8setValueERKNSt7__cxx1112basic_stringIcSt11char_traitsIcESaIcEEE
FNDA:0,_ZN5Catch5clara6detail11BoundLambdaIZNS_21makeCommandLineParserERNS_10ConfigDataEEUliE_E8setValueERKNSt7__cxx1112basic_stringIcSt11char_traitsIcESaIcEEE
FNDA:1,_ZN5Catch5clara6detail15BoundFlagLambdaIZNS1_4HelpC4ERbEUlbE_EC2ERKS5_
FNDA:1,_ZN5Catch5clara6detail15BoundFlagLambdaIZNS_21makeCommandLineParserERNS_10ConfigDataEEUlbE_EC2ERKS5_
FNDA:0,_ZN5Catch5clara6detail15BoundFlagLambdaIZNS1_4HelpC4ERbEUlbE_E7setFlagEb
FNDA:0,_ZN5Catch5clara6detail15BoundFlagLambdaIZNS_21makeCommandLineParserERNS_10ConfigDataEEUlbE_E7setFlagEb
FNDA:0,_ZN5Catch5clara6detail10ParserBaseD0Ev
FNDA:1690,_ZN5Catch5clara6detail10ParserBaseD2Ev
FNDA:0,_ZNK5Catch5clara6detail10ParserBase8validateEv
FNDA:0,_ZNK5Catch5clara6detail10ParserBase11cardinalityEv
FNDA:1,_ZNK5Catch5clara6detail10ParserBase5parseERKNS1_4ArgsE
FNDA:13,_ZN5Catch5clara6detail13ParserRefImplINS1_3OptEEC2ERKSt10shared_ptrINS1_8BoundRefEE
FNDA:1,_ZN5Catch5clara6detail13ParserRefImplINS1_3ArgEEC2ISt6vectorINSt7__cxx1112basic_stringIcSt11char_traitsIcESaIcEEESaISC_EEEERT_RKSC_
FNDA:2,_ZN5Catch5clara6detail13ParserRefImplINS1_3OptEEC2INSt7__cxx1112basic_stringIcSt11char_traitsIcESaIcEEEEERT_RKSB_
FNDA:1,_ZN5Catch5clara6detail13ParserRefImplINS1_3OptEEC2ISt6vectorINSt7__cxx1112basic_stringIcSt11char_traitsIcESaIcEEESaISC_EEEERT_RKSC_
FNDA:2,_ZN5Catch5clara6detail13ParserRefImplINS1_3OptEEC2IdEERT_RKNSt7__cxx1112basic_stringIcSt11char_traitsIcESaIcEEE
FNDA:2,_ZN5Catch5clara6detail13ParserRefImplINS1_3OptEEC2IjEERT_RKNSt7__cxx1112basic_stringIcSt11char_traitsIcESaIcEEE
FNDA:1,_ZN5Catch5clara6detail13ParserRefImplINS1_3OptEEC2IlEERT_RKNSt7__cxx1112basic_stringIcSt11char_traitsIcESaIcEEE
FNDA:1,_ZN5Catch5clara6detail13ParserRefImplINS1_3OptEEC2IZNS_21makeCommandLineParserERNS_10ConfigDataEEUlRKNSt7__cxx1112basic_stringIcSt11char_traitsIcESaIcEEEE0_EERKT_SF_
FNDA:1,_ZN5Catch5clara6detail13ParserRefImplINS1_3OptEEC2IZNS_21makeCommandLineParserERNS_10ConfigDataEEUlRKNSt7__cxx1112basic_stringIcSt11char_traitsIcESaIcEEEE1_EERKT_SF_
FNDA:1,_ZN5Catch5clara6detail13ParserRefImplINS1_3OptEEC2IZNS_21makeCommandLineParserERNS_10ConfigDataEEUlRKNSt7__cxx1112basic_stringIcSt11char_traitsIcESaIcEEEE2_EERKT_SF_
FNDA:1,_ZN5Catch5clara6detail13ParserRefImplINS1_3OptEEC2IZNS_21makeCommandLineParserERNS_10ConfigDataEEUlRKNSt7__cxx1112basic_stringIcSt11char_traitsIcESaIcEEEE3_EERKT_SF_
FNDA:1,_ZN5Catch5clara6detail13ParserRefImplINS1_3OptEEC2IZNS_21makeCommandLineParserERNS_10ConfigDataEEUlRKNSt7__cxx1112basic_stringIcSt11char_traitsIcESaIcEEEE4_EERKT_SF_
FNDA:1,_ZN5Catch5clara6detail13ParserRefImplINS1_3OptEEC2IZNS_21makeCommandLineParserERNS_10ConfigDataEEUlRKNSt7__cxx1112basic_stringIcSt11char_traitsIcESaIcEEEE5_EERKT_SF_
FNDA:1,_ZN5Catch5clara6detail13ParserRefImplINS1_3OptEEC2IZNS_21makeCommandLineParserERNS_10ConfigDataEEUlRKNSt7__cxx1112basic_stringIcSt11char_traitsIcESaIcEEEE6_EERKT_SF_
FNDA:1,_ZN5Catch5clara6detail13ParserRefImplINS1_3OptEEC2IZNS_21makeCommandLineParserERNS_10ConfigDataEEUlRKNSt7__cxx1112basic_stringIcSt11char_traitsIcESaIcEEEE_EERKT_SF_
FNDA:1,_ZN5Catch5clara6detail13ParserRefImplINS1_3OptEEC2IZNS_21makeCommandLineParserERNS_10ConfigDataEEUlbE0_EERKT_RKNSt7__cxx1112basic_stringIcSt11char_traitsIcESaIcEEE
FNDA:1,_ZN5Catch5clara6detail13ParserRefImplINS1_3OptEEC2IZNS_21makeCommandLineParserERNS_10ConfigDataEEUliE_EERKT_RKNSt7__cxx1112basic_stringIcSt11char_traitsIcESaIcEEE
FNDA:1,_ZN5Catch5clara6detail13ParserRefImplINS1_3ArgEEclERKNSt7__cxx1112basic_stringIcSt11char_traitsIcESaIcEEE
FNDA:31,_ZN5Catch5clara6detail13ParserRefImplINS1_3OptEEclERKNSt7__cxx1112basic_stringIcSt11char_traitsIcESaIcEEE
FNDA:1,_ZN5Catch5clara6detail13ParserRefImplINS1_3OptEE8optionalEv
FNDA:0,_ZNK5Catch5clara6detail13ParserRefImplINS1_3ArgEE10isOptionalEv
FNDA:0,_ZNK5Catch5clara6detail13ParserRefImplINS1_3ArgEE11cardinalityEv
FNDA:0,_ZNK5Catch5clara6detail13ParserRefImplINS1_3OptEE11cardinalityEv
FNDA:0,_ZNK5Catch5clara6detail13ParserRefImplINS1_3ArgEE4hintB5cxx11Ev
FNDA:3,_ZN5Catch5clara6detail7ExeNameC2Ev
FNDA:1,_ZN5Catch5clara6detail7ExeNameC2ERNSt7__cxx1112basic_stringIcSt11char_traitsIcESaIcEEE
FNDA:0,_ZNK5Catch5clara6detail7ExeName5parseERKNSt7__cxx1112basic_stringIcSt11char_traitsIcESaIcEEERKNS1_11TokenStreamE
FNDA:0,_ZNK5Catch5clara6detail7ExeName4nameB5cxx11Ev
FNDA:1,_ZN5Catch5clara6detail7ExeName3setERKNSt7__cxx1112basic_stringIcSt11char_traitsIcESaIcEEE
FNDA:0,_ZNK5Catch5clara6detail3Arg5parseERKNSt7__cxx1112basic_stringIcSt11char_traitsIcESaIcEEERKNS1_11TokenStreamE
FNDA:0,_ZN5Catch5clara6detail12normaliseOptERKNSt7__cxx1112basic_stringIcSt11char_traitsIcESaIcEEE
FNDA:1,_ZN5Catch5clara6detail3OptC2IZNS1_4HelpC4ERbEUlbE_EERKT_
FNDA:1,_ZN5Catch5clara6detail3OptC2IZNS_21makeCommandLineParserERNS_10ConfigDataEEUlbE_EERKT_
FNDA:11,_ZN5Catch5clara6detail3OptC2ERb
FNDA:1,_ZN5Catch5clara6detail3OptC2IZNS_21makeCommandLineParserERNS_10ConfigDataEEUlRKNSt7__cxx1112basic_stringIcSt11char_traitsIcESaIcEEEE0_EERKT_SD_
FNDA:1,_ZN5Catch5clara6detail3OptC2IZNS_21makeCommandLineParserERNS_10ConfigDataEEUlRKNSt7__cxx1112basic_stringIcSt11char_traitsIcESaIcEEEE1_EERKT_SD_
FNDA:1,_ZN5Catch5clara6detail3OptC2IZNS_21makeCommandLineParserERNS_10ConfigDataEEUlRKNSt7__cxx1112basic_stringIcSt11char_traitsIcESaIcEEEE2_EERKT_SD_
FNDA:1,_ZN5Catch5clara6detail3OptC2IZNS_21makeCommandLineParserERNS_10ConfigDataEEUlRKNSt7__cxx1112basic_stringIcSt11char_traitsIcESaIcEEEE3_EERKT_SD_
FNDA:1,_ZN5Catch5clara6detail3OptC2IZNS_21makeCommandLineParserERNS_10ConfigDataEEUlRKNSt7__cxx1112basic_stringIcSt11char_traitsIcESaIcEEEE4_EERKT_SD_
FNDA:1,_ZN5Catch5clara6detail3OptC2IZNS_21makeCommandLineParserERNS_10ConfigDataEEUlRKNSt7__cxx1112basic_stringIcSt11char_traitsIcESaIcEEEE5_EERKT_SD_
FNDA:1,_ZN5Catch5clara6detail3OptC2IZNS_21makeCommandLineParserERNS_10ConfigDataEEUlRKNSt7__cxx1112basic_stringIcSt11char_traitsIcESaIcEEEE6_EERKT_SD_
FNDA:1,_ZN5Catch5clara6detail3OptC2IZNS_21makeCommandLineParserERNS_10ConfigDataEEUlRKNSt7__cxx1112basic_stringIcSt11char_traitsIcESaIcEEEE_EERKT_SD_
FNDA:1,_ZN5Catch5clara6detail3OptC2IZNS_21makeCommandLineParserERNS_10ConfigDataEEUlbE0_EERKT_RKNSt7__cxx1112basic_stringIcSt11char_traitsIcESaIcEEE
FNDA:1,_ZN5Catch5clara6detail3OptC2IZNS_21makeCommandLineParserERNS_10ConfigDataEEUliE_EERKT_RKNSt7__cxx1112basic_stringIcSt11char_traitsIcESaIcEEE
FNDA:2,_ZN5Catch5clara6detail3OptC2INSt7__cxx1112basic_stringIcSt11char_traitsIcESaIcEEEEERT_RKS9_
FNDA:1,_ZN5Catch5clara6detail3OptC2ISt6vectorINSt7__cxx1112basic_stringIcSt11char_traitsIcESaIcEEESaISA_EEEERT_RKSA_
FNDA:2,_ZN5Catch5clara6detail3OptC2IdEERT_RKNSt7__cxx1112basic_stringIcSt11char_traitsIcESaIcEEE
FNDA:2,_ZN5Catch5clara6detail3OptC2IjEERT_RKNSt7__cxx1112basic_stringIcSt11char_traitsIcESaIcEEE
FNDA:1,_ZN5Catch5clara6detail3OptC2IlEERT_RKNSt7__cxx1112basic_stringIcSt11char_traitsIcESaIcEEE
FNDA:51,_ZN5Catch5clara6detail3OptixERKNSt7__cxx1112basic_stringIcSt11char_traitsIcESaIcEEE
FNDA:0,_ZNK5Catch5clara6detail3Opt14getHelpColumnsEv
FNDA:0,_ZNK5Catch5clara6detail3Opt7isMatchERKNSt7__cxx1112basic_stringIcSt11char_traitsIcESaIcEEE
FNDA:0,_ZNK5Catch5clara6detail3Opt5parseERKNSt7__cxx1112basic_stringIcSt11char_traitsIcESaIcEEERKNS1_11TokenStreamE
FNDA:0,_ZNK5Catch5clara6detail3Opt8validateEv
FNDA:1,_ZN5Catch5clara6detail4HelpC2ERb
FNDA:0,_ZZN5Catch5clara6detail4HelpC4ERbENKUlbE_clEb
FNDA:1,_ZN5Catch5clara6detail6ParseroRERKNS1_7ExeNameE
FNDA:1,_ZN5Catch5clara6detail6ParseroRERKNS1_3ArgE
FNDA:31,_ZN5Catch5clara6detail6ParseroRERKNS1_3OptE
FNDA:1,_ZNK5Catch5clara6detail6ParserorINS1_3ArgEEES2_RKT_
FNDA:30,_ZNK5Catch5clara6detail6ParserorINS1_3OptEEES2_RKT_
FNDA:1,_ZNK5Catch5clara6detail6ParserorINS1_4HelpEEES2_RKT_
FNDA:1,_ZNK5Catch5clara6detail6ParserorINS1_7ExeNameEEES2_RKT_
FNDA:0,_ZNK5Catch5clara6detail6Parser14getHelpColumnsEv
FNDA:0,_ZNK5Catch5clara6detail6Parser13writeToStreamERSo
FNDA:0,_ZN5Catch5clara6detaillsERSoRKNS1_6ParserE
FNDA:0,_ZNK5Catch5clara6detail6Parser8validateEv
FNDA:1,_ZNK5Catch5clara6detail6Parser5parseERKNSt7__cxx1112basic_stringIcSt11char_traitsIcESaIcEEERKNS1_11TokenStreamE
FNDA:1,_ZN5Catch19TestInvokerAsMethodIN12_GLOBAL__N_129____C_A_T_C_H____T_E_S_T____0EEC2EMS2_FvvE
FNDA:1,_ZN5Catch19TestInvokerAsMethodIN12_GLOBAL__N_129____C_A_T_C_H____T_E_S_T____2EEC2EMS2_FvvE
FNDA:1,_ZN5Catch19TestInvokerAsMethodIN12_GLOBAL__N_129____C_A_T_C_H____T_E_S_T____4EEC2EMS2_FvvE
FNDA:1,_ZN5Catch19TestInvokerAsMethodIN12_GLOBAL__N_129____C_A_T_C_H____T_E_S_T____6EEC2EMS2_FvvE
FNDA:1,_ZN5Catch19TestInvokerAsMethodIN12_GLOBAL__N_129____C_A_T_C_H____T_E_S_T____8EEC2EMS2_FvvE
FNDA:1,_ZN5Catch19TestInvokerAsMethodIN12_GLOBAL__N_130____C_A_T_C_H____T_E_S_T____34EEC2EMS2_FvvE
FNDA:1,_ZN5Catch19TestInvokerAsMethodIN12_GLOBAL__N_130____C_A_T_C_H____T_E_S_T____36EEC2EMS2_FvvE
FNDA:1,_ZN5Catch19TestInvokerAsMethodIN12_GLOBAL__N_130____C_A_T_C_H____T_E_S_T____38EEC2EMS2_FvvE
FNDA:1,_ZN5Catch19TestInvokerAsMethodIN12_GLOBAL__N_130____C_A_T_C_H____T_E_S_T____40EEC2EMS2_FvvE
FNDA:1,_ZN5Catch19TestInvokerAsMethodIN12_GLOBAL__N_130____C_A_T_C_H____T_E_S_T____42EEC2EMS2_FvvE
FNDA:1,_ZN5Catch19TestInvokerAsMethodIN12_GLOBAL__N_130____C_A_T_C_H____T_E_S_T____44EEC2EMS2_FvvE
FNDA:1,_ZN5Catch19TestInvokerAsMethodIN12_GLOBAL__N_130____C_A_T_C_H____T_E_S_T____46EEC2EMS2_FvvE
FNDA:1,_ZN5Catch19TestInvokerAsMethodIN12_GLOBAL__N_130____C_A_T_C_H____T_E_S_T____48EEC2EMS2_FvvE
FNDA:1,_ZN5Catch19TestInvokerAsMethodIN12_GLOBAL__N_130____C_A_T_C_H____T_E_S_T____50EEC2EMS2_FvvE
FNDA:1,_ZN5Catch19TestInvokerAsMethodIN12_GLOBAL__N_130____C_A_T_C_H____T_E_S_T____52EEC2EMS2_FvvE
FNDA:1,_ZN5Catch19TestInvokerAsMethodIN12_GLOBAL__N_130____C_A_T_C_H____T_E_S_T____54EEC2EMS2_FvvE
FNDA:1,_ZN5Catch19TestInvokerAsMethodIN12_GLOBAL__N_130____C_A_T_C_H____T_E_S_T____56EEC2EMS2_FvvE
FNDA:1,_ZN5Catch19TestInvokerAsMethodIN12_GLOBAL__N_130____C_A_T_C_H____T_E_S_T____58EEC2EMS2_FvvE
FNDA:1,_ZN5Catch19TestInvokerAsMethodIN12_GLOBAL__N_130____C_A_T_C_H____T_E_S_T____60EEC2EMS2_FvvE
FNDA:1,_ZN5Catch19TestInvokerAsMethodIN12_GLOBAL__N_130____C_A_T_C_H____T_E_S_T____62EEC2EMS2_FvvE
FNDA:1,_ZN5Catch19TestInvokerAsMethodIN12_GLOBAL__N_130____C_A_T_C_H____T_E_S_T____64EEC2EMS2_FvvE
FNDA:1,_ZN5Catch19TestInvokerAsMethodIN12_GLOBAL__N_130____C_A_T_C_H____T_E_S_T____66EEC2EMS2_FvvE
FNDA:1,_ZN5Catch19TestInvokerAsMethodIN12_GLOBAL__N_130____C_A_T_C_H____T_E_S_T____68EEC2EMS2_FvvE
FNDA:1,_ZN5Catch19TestInvokerAsMethodIN12_GLOBAL__N_130____C_A_T_C_H____T_E_S_T____70EEC2EMS2_FvvE
FNDA:1,_ZN5Catch19TestInvokerAsMethodIN12_GLOBAL__N_130____C_A_T_C_H____T_E_S_T____72EEC2EMS2_FvvE
FNDA:1,_ZN5Catch19TestInvokerAsMethodIN12_GLOBAL__N_130____C_A_T_C_H____T_E_S_T____74EEC2EMS2_FvvE
FNDA:1,_ZN5Catch19TestInvokerAsMethodIN12_GLOBAL__N_130____C_A_T_C_H____T_E_S_T____76EEC2EMS2_FvvE
FNDA:1,_ZN5Catch19TestInvokerAsMethodIN12_GLOBAL__N_130____C_A_T_C_H____T_E_S_T____78EEC2EMS2_FvvE
FNDA:1,_ZN5Catch19TestInvokerAsMethodIN12_GLOBAL__N_130____C_A_T_C_H____T_E_S_T____80EEC2EMS2_FvvE
FNDA:1,_ZN5Catch19TestInvokerAsMethodIN12_GLOBAL__N_130____C_A_T_C_H____T_E_S_T____82EEC2EMS2_FvvE
FNDA:1,_ZN5Catch19TestInvokerAsMethodIN12_GLOBAL__N_130____C_A_T_C_H____T_E_S_T____84EEC2EMS2_FvvE
FNDA:1,_ZN5Catch19TestInvokerAsMethodIN12_GLOBAL__N_130____C_A_T_C_H____T_E_S_T____86EEC2EMS2_FvvE
FNDA:1,_ZN5Catch19TestInvokerAsMethodIN12_GLOBAL__N_130____C_A_T_C_H____T_E_S_T____88EEC2EMS2_FvvE
FNDA:1,_ZN5Catch19TestInvokerAsMethodIN12_GLOBAL__N_130____C_A_T_C_H____T_E_S_T____90EEC2EMS2_FvvE
FNDA:1,_ZN5Catch19TestInvokerAsMethodIN12_GLOBAL__N_130____C_A_T_C_H____T_E_S_T____92EEC2EMS2_FvvE
FNDA:1,_ZN5Catch19TestInvokerAsMethodIN12_GLOBAL__N_130____C_A_T_C_H____T_E_S_T____94EEC2EMS2_FvvE
FNDA:1,_ZN5Catch19TestInvokerAsMethodIN12_GLOBAL__N_130____C_A_T_C_H____T_E_S_T____96EEC2EMS2_FvvE
FNDA:1,_ZN5Catch19TestInvokerAsMethodIN12_GLOBAL__N_130____C_A_T_C_H____T_E_S_T____98EEC2EMS2_FvvE
FNDA:1,_ZN5Catch19TestInvokerAsMethodIN12_GLOBAL__N_131____C_A_T_C_H____T_E_S_T____100EEC2EMS2_FvvE
FNDA:1,_ZN5Catch19TestInvokerAsMethodIN12_GLOBAL__N_131____C_A_T_C_H____T_E_S_T____102EEC2EMS2_FvvE
FNDA:1,_ZN5Catch19TestInvokerAsMethodIN12_GLOBAL__N_131____C_A_T_C_H____T_E_S_T____104EEC2EMS2_FvvE
FNDA:1,_ZN5Catch19TestInvokerAsMethodIN12_GLOBAL__N_131____C_A_T_C_H____T_E_S_T____106EEC2EMS2_FvvE
FNDA:1,_ZN5Catch19TestInvokerAsMethodIN12_GLOBAL__N_131____C_A_T_C_H____T_E_S_T____108EEC2EMS2_FvvE
FNDA:1,_ZN5Catch19TestInvokerAsMethodIN12_GLOBAL__N_131____C_A_T_C_H____T_E_S_T____110EEC2EMS2_FvvE
FNDA:1,_ZN5Catch19TestInvokerAsMethodIN12_GLOBAL__N_131____C_A_T_C_H____T_E_S_T____112EEC2EMS2_FvvE
FNDA:1,_ZN5Catch19TestInvokerAsMethodIN12_GLOBAL__N_131____C_A_T_C_H____T_E_S_T____114EEC2EMS2_FvvE
FNDA:1,_ZN5Catch19TestInvokerAsMethodIN12_GLOBAL__N_131____C_A_T_C_H____T_E_S_T____116EEC2EMS2_FvvE
FNDA:1,_ZNK5Catch5clara6detail20ComposableParserImplINS1_7ExeNameEEorINS1_4HelpEEENS1_6ParserERKT_
FNDA:1,_ZNK5Catch19TestInvokerAsMethodIN12_GLOBAL__N_129____C_A_T_C_H____T_E_S_T____0EE6invokeEv
FNDA:1,_ZNK5Catch19TestInvokerAsMethodIN12_GLOBAL__N_129____C_A_T_C_H____T_E_S_T____2EE6invokeEv
FNDA:1,_ZNK5Catch19TestInvokerAsMethodIN12_GLOBAL__N_129____C_A_T_C_H____T_E_S_T____4EE6invokeEv
FNDA:1,_ZNK5Catch19TestInvokerAsMethodIN12_GLOBAL__N_129____C_A_T_C_H____T_E_S_T____6EE6invokeEv
FNDA:1,_ZNK5Catch19TestInvokerAsMethodIN12_GLOBAL__N_129____C_A_T_C_H____T_E_S_T____8EE6invokeEv
FNDA:1,_ZNK5Catch19TestInvokerAsMethodIN12_GLOBAL__N_130____C_A_T_C_H____T_E_S_T____34EE6invokeEv
FNDA:1,_ZNK5Catch19TestInvokerAsMethodIN12_GLOBAL__N_130____C_A_T_C_H____T_E_S_T____36EE6invokeEv
FNDA:1,_ZNK5Catch19TestInvokerAsMethodIN12_GLOBAL__N_130____C_A_T_C_H____T_E_S_T____38EE6invokeEv
FNDA:1,_ZNK5Catch19TestInvokerAsMethodIN12_GLOBAL__N_130____C_A_T_C_H____T_E_S_T____40EE6invokeEv
FNDA:1,_ZNK5Catch19TestInvokerAsMethodIN12_GLOBAL__N_130____C_A_T_C_H____T_E_S_T____42EE6invokeEv
FNDA:1,_ZNK5Catch19TestInvokerAsMethodIN12_GLOBAL__N_130____C_A_T_C_H____T_E_S_T____44EE6invokeEv
FNDA:1,_ZNK5Catch19TestInvokerAsMethodIN12_GLOBAL__N_130____C_A_T_C_H____T_E_S_T____46EE6invokeEv
FNDA:1,_ZNK5Catch19TestInvokerAsMethodIN12_GLOBAL__N_130____C_A_T_C_H____T_E_S_T____48EE6invokeEv
FNDA:1,_ZNK5Catch19TestInvokerAsMethodIN12_GLOBAL__N_130____C_A_T_C_H____T_E_S_T____50EE6invokeEv
FNDA:1,_ZNK5Catch19TestInvokerAsMethodIN12_GLOBAL__N_130____C_A_T_C_H____T_E_S_T____52EE6invokeEv
FNDA:1,_ZNK5Catch19TestInvokerAsMethodIN12_GLOBAL__N_130____C_A_T_C_H____T_E_S_T____54EE6invokeEv
FNDA:1,_ZNK5Catch19TestInvokerAsMethodIN12_GLOBAL__N_130____C_A_T_C_H____T_E_S_T____56EE6invokeEv
FNDA:1,_ZNK5Catch19TestInvokerAsMethodIN12_GLOBAL__N_130____C_A_T_C_H____T_E_S_T____58EE6invokeEv
FNDA:1,_ZNK5Catch19TestInvokerAsMethodIN12_GLOBAL__N_130____C_A_T_C_H____T_E_S_T____60EE6invokeEv
FNDA:1,_ZNK5Catch19TestInvokerAsMethodIN12_GLOBAL__N_130____C_A_T_C_H____T_E_S_T____62EE6invokeEv
FNDA:1,_ZNK5Catch19TestInvokerAsMethodIN12_GLOBAL__N_130____C_A_T_C_H____T_E_S_T____64EE6invokeEv
FNDA:1,_ZNK5Catch19TestInvokerAsMethodIN12_GLOBAL__N_130____C_A_T_C_H____T_E_S_T____66EE6invokeEv
FNDA:1,_ZNK5Catch19TestInvokerAsMethodIN12_GLOBAL__N_130____C_A_T_C_H____T_E_S_T____68EE6invokeEv
FNDA:1,_ZNK5Catch19TestInvokerAsMethodIN12_GLOBAL__N_130____C_A_T_C_H____T_E_S_T____70EE6invokeEv
FNDA:1,_ZNK5Catch19TestInvokerAsMethodIN12_GLOBAL__N_130____C_A_T_C_H____T_E_S_T____72EE6invokeEv
FNDA:1,_ZNK5Catch19TestInvokerAsMethodIN12_GLOBAL__N_130____C_A_T_C_H____T_E_S_T____74EE6invokeEv
FNDA:1,_ZNK5Catch19TestInvokerAsMethodIN12_GLOBAL__N_130____C_A_T_C_H____T_E_S_T____76EE6invokeEv
FNDA:1,_ZNK5Catch19TestInvokerAsMethodIN12_GLOBAL__N_130____C_A_T_C_H____T_E_S_T____78EE6invokeEv
FNDA:1,_ZNK5Catch19TestInvokerAsMethodIN12_GLOBAL__N_130____C_A_T_C_H____T_E_S_T____80EE6invokeEv
FNDA:1,_ZNK5Catch19TestInvokerAsMethodIN12_GLOBAL__N_130____C_A_T_C_H____T_E_S_T____82EE6invokeEv
FNDA:1,_ZNK5Catch19TestInvokerAsMethodIN12_GLOBAL__N_130____C_A_T_C_H____T_E_S_T____84EE6invokeEv
FNDA:1,_ZNK5Catch19TestInvokerAsMethodIN12_GLOBAL__N_130____C_A_T_C_H____T_E_S_T____86EE6invokeEv
FNDA:1,_ZNK5Catch19TestInvokerAsMethodIN12_GLOBAL__N_130____C_A_T_C_H____T_E_S_T____88EE6invokeEv
FNDA:1,_ZNK5Catch19TestInvokerAsMethodIN12_GLOBAL__N_130____C_A_T_C_H____T_E_S_T____90EE6invokeEv
FNDA:1,_ZNK5Catch19TestInvokerAsMethodIN12_GLOBAL__N_130____C_A_T_C_H____T_E_S_T____92EE6invokeEv
FNDA:1,_ZNK5Catch19TestInvokerAsMethodIN12_GLOBAL__N_130____C_A_T_C_H____T_E_S_T____94EE6invokeEv
FNDA:1,_ZNK5Catch19TestInvokerAsMethodIN12_GLOBAL__N_130____C_A_T_C_H____T_E_S_T____96EE6invokeEv
FNDA:1,_ZNK5Catch19TestInvokerAsMethodIN12_GLOBAL__N_130____C_A_T_C_H____T_E_S_T____98EE6invokeEv
FNDA:1,_ZNK5Catch19TestInvokerAsMethodIN12_GLOBAL__N_131____C_A_T_C_H____T_E_S_T____100EE6invokeEv
FNDA:1,_ZNK5Catch19TestInvokerAsMethodIN12_GLOBAL__N_131____C_A_T_C_H____T_E_S_T____102EE6invokeEv
FNDA:1,_ZNK5Catch19TestInvokerAsMethodIN12_GLOBAL__N_131____C_A_T_C_H____T_E_S_T____104EE6invokeEv
FNDA:1,_ZNK5Catch19TestInvokerAsMethodIN12_GLOBAL__N_131____C_A_T_C_H____T_E_S_T____106EE6invokeEv
FNDA:1,_ZNK5Catch19TestInvokerAsMethodIN12_GLOBAL__N_131____C_A_T_C_H____T_E_S_T____108EE6invokeEv
FNDA:1,_ZNK5Catch19TestInvokerAsMethodIN12_GLOBAL__N_131____C_A_T_C_H____T_E_S_T____110EE6invokeEv
FNDA:1,_ZNK5Catch19TestInvokerAsMethodIN12_GLOBAL__N_131____C_A_T_C_H____T_E_S_T____112EE6invokeEv
FNDA:1,_ZNK5Catch19TestInvokerAsMethodIN12_GLOBAL__N_131____C_A_T_C_H____T_E_S_T____114EE6invokeEv
FNDA:1,_ZNK5Catch19TestInvokerAsMethodIN12_GLOBAL__N_131____C_A_T_C_H____T_E_S_T____116EE6invokeEv
FNDA:1,_ZN5Catch21makeCommandLineParserERNS_10ConfigDataE
FNDA:0,_ZZN5Catch21makeCommandLineParserERNS_10ConfigDataEENKUlRKNSt7__cxx1112basic_stringIcSt11char_traitsIcESaIcEEEE_clES9_
FNDA:0,_ZZZN5Catch21makeCommandLineParserERNS_10ConfigDataEENKUlRKNSt7__cxx1112basic_stringIcSt11char_traitsIcESaIcEEEE_clES9_ENKUlvE_clEv
FNDA:0,_ZZN5Catch21makeCommandLineParserERNS_10ConfigDataEENKUlRKNSt7__cxx1112basic_stringIcSt11char_traitsIcESaIcEEEE0_clES9_
FNDA:0,_ZZN5Catch21makeCommandLineParserERNS_10ConfigDataEENKUlRKNSt7__cxx1112basic_stringIcSt11char_traitsIcESaIcEEEE1_clES9_
FNDA:1,_ZN5Catch15makeTestInvokerIN12_GLOBAL__N_129____C_A_T_C_H____T_E_S_T____0EEEPNS_12ITestInvokerEMT_FvvE
FNDA:1,_ZN5Catch15makeTestInvokerIN12_GLOBAL__N_129____C_A_T_C_H____T_E_S_T____2EEEPNS_12ITestInvokerEMT_FvvE
FNDA:1,_ZN5Catch15makeTestInvokerIN12_GLOBAL__N_129____C_A_T_C_H____T_E_S_T____4EEEPNS_12ITestInvokerEMT_FvvE
FNDA:1,_ZN5Catch15makeTestInvokerIN12_GLOBAL__N_129____C_A_T_C_H____T_E_S_T____6EEEPNS_12ITestInvokerEMT_FvvE
FNDA:1,_ZN5Catch15makeTestInvokerIN12_GLOBAL__N_129____C_A_T_C_H____T_E_S_T____8EEEPNS_12ITestInvokerEMT_FvvE
FNDA:1,_ZN5Catch15makeTestInvokerIN12_GLOBAL__N_130____C_A_T_C_H____T_E_S_T____34EEEPNS_12ITestInvokerEMT_FvvE
FNDA:1,_ZN5Catch15makeTestInvokerIN12_GLOBAL__N_130____C_A_T_C_H____T_E_S_T____36EEEPNS_12ITestInvokerEMT_FvvE
FNDA:1,_ZN5Catch15makeTestInvokerIN12_GLOBAL__N_130____C_A_T_C_H____T_E_S_T____38EEEPNS_12ITestInvokerEMT_FvvE
FNDA:1,_ZN5Catch15makeTestInvokerIN12_GLOBAL__N_130____C_A_T_C_H____T_E_S_T____40EEEPNS_12ITestInvokerEMT_FvvE
FNDA:1,_ZN5Catch15makeTestInvokerIN12_GLOBAL__N_130____C_A_T_C_H____T_E_S_T____42EEEPNS_12ITestInvokerEMT_FvvE
FNDA:1,_ZN5Catch15makeTestInvokerIN12_GLOBAL__N_130____C_A_T_C_H____T_E_S_T____44EEEPNS_12ITestInvokerEMT_FvvE
FNDA:1,_ZN5Catch15makeTestInvokerIN12_GLOBAL__N_130____C_A_T_C_H____T_E_S_T____46EEEPNS_12ITestInvokerEMT_FvvE
FNDA:1,_ZN5Catch15makeTestInvokerIN12_GLOBAL__N_130____C_A_T_C_H____T_E_S_T____48EEEPNS_12ITestInvokerEMT_FvvE
FNDA:1,_ZN5Catch15makeTestInvokerIN12_GLOBAL__N_130____C_A_T_C_H____T_E_S_T____50EEEPNS_12ITestInvokerEMT_FvvE
FNDA:1,_ZN5Catch15makeTestInvokerIN12_GLOBAL__N_130____C_A_T_C_H____T_E_S_T____52EEEPNS_12ITestInvokerEMT_FvvE
FNDA:1,_ZN5Catch15makeTestInvokerIN12_GLOBAL__N_130____C_A_T_C_H____T_E_S_T____54EEEPNS_12ITestInvokerEMT_FvvE
FNDA:1,_ZN5Catch15makeTestInvokerIN12_GLOBAL__N_130____C_A_T_C_H____T_E_S_T____56EEEPNS_12ITestInvokerEMT_FvvE
FNDA:1,_ZN5Catch15makeTestInvokerIN12_GLOBAL__N_130____C_A_T_C_H____T_E_S_T____58EEEPNS_12ITestInvokerEMT_FvvE
FNDA:1,_ZN5Catch15makeTestInvokerIN12_GLOBAL__N_130____C_A_T_C_H____T_E_S_T____60EEEPNS_12ITestInvokerEMT_FvvE
FNDA:1,_ZN5Catch15makeTestInvokerIN12_GLOBAL__N_130____C_A_T_C_H____T_E_S_T____62EEEPNS_12ITestInvokerEMT_FvvE
FNDA:1,_ZN5Catch15makeTestInvokerIN12_GLOBAL__N_130____C_A_T_C_H____T_E_S_T____64EEEPNS_12ITestInvokerEMT_FvvE
FNDA:1,_ZN5Catch15makeTestInvokerIN12_GLOBAL__N_130____C_A_T_C_H____T_E_S_T____66EEEPNS_12ITestInvokerEMT_FvvE
FNDA:1,_ZN5Catch15makeTestInvokerIN12_GLOBAL__N_130____C_A_T_C_H____T_E_S_T____68EEEPNS_12ITestInvokerEMT_FvvE
FNDA:1,_ZN5Catch15makeTestInvokerIN12_GLOBAL__N_130____C_A_T_C_H____T_E_S_T____70EEEPNS_12ITestInvokerEMT_FvvE
FNDA:1,_ZN5Catch15makeTestInvokerIN12_GLOBAL__N_130____C_A_T_C_H____T_E_S_T____72EEEPNS_12ITestInvokerEMT_FvvE
FNDA:1,_ZN5Catch15makeTestInvokerIN12_GLOBAL__N_130____C_A_T_C_H____T_E_S_T____74EEEPNS_12ITestInvokerEMT_FvvE
FNDA:1,_ZN5Catch15makeTestInvokerIN12_GLOBAL__N_130____C_A_T_C_H____T_E_S_T____76EEEPNS_12ITestInvokerEMT_FvvE
FNDA:1,_ZN5Catch15makeTestInvokerIN12_GLOBAL__N_130____C_A_T_C_H____T_E_S_T____78EEEPNS_12ITestInvokerEMT_FvvE
FNDA:1,_ZN5Catch15makeTestInvokerIN12_GLOBAL__N_130____C_A_T_C_H____T_E_S_T____80EEEPNS_12ITestInvokerEMT_FvvE
FNDA:1,_ZN5Catch15makeTestInvokerIN12_GLOBAL__N_130____C_A_T_C_H____T_E_S_T____82EEEPNS_12ITestInvokerEMT_FvvE
FNDA:1,_ZN5Catch15makeTestInvokerIN12_GLOBAL__N_130____C_A_T_C_H____T_E_S_T____84EEEPNS_12ITestInvokerEMT_FvvE
FNDA:1,_ZN5Catch15makeTestInvokerIN12_GLOBAL__N_130____C_A_T_C_H____T_E_S_T____86EEEPNS_12ITestInvokerEMT_FvvE
FNDA:1,_ZN5Catch15makeTestInvokerIN12_GLOBAL__N_130____C_A_T_C_H____T_E_S_T____88EEEPNS_12ITestInvokerEMT_FvvE
FNDA:1,_ZN5Catch15makeTestInvokerIN12_GLOBAL__N_130____C_A_T_C_H____T_E_S_T____90EEEPNS_12ITestInvokerEMT_FvvE
FNDA:1,_ZN5Catch15makeTestInvokerIN12_GLOBAL__N_130____C_A_T_C_H____T_E_S_T____92EEEPNS_12ITestInvokerEMT_FvvE
FNDA:1,_ZN5Catch15makeTestInvokerIN12_GLOBAL__N_130____C_A_T_C_H____T_E_S_T____94EEEPNS_12ITestInvokerEMT_FvvE
FNDA:1,_ZN5Catch15makeTestInvokerIN12_GLOBAL__N_130____C_A_T_C_H____T_E_S_T____96EEEPNS_12ITestInvokerEMT_FvvE
FNDA:1,_ZN5Catch15makeTestInvokerIN12_GLOBAL__N_130____C_A_T_C_H____T_E_S_T____98EEEPNS_12ITestInvokerEMT_FvvE
FNDA:1,_ZN5Catch15makeTestInvokerIN12_GLOBAL__N_131____C_A_T_C_H____T_E_S_T____100EEEPNS_12ITestInvokerEMT_FvvE
FNDA:1,_ZN5Catch15makeTestInvokerIN12_GLOBAL__N_131____C_A_T_C_H____T_E_S_T____102EEEPNS_12ITestInvokerEMT_FvvE
FNDA:1,_ZN5Catch15makeTestInvokerIN12_GLOBAL__N_131____C_A_T_C_H____T_E_S_T____104EEEPNS_12ITestInvokerEMT_FvvE
FNDA:1,_ZN5Catch15makeTestInvokerIN12_GLOBAL__N_131____C_A_T_C_H____T_E_S_T____106EEEPNS_12ITestInvokerEMT_FvvE
FNDA:1,_ZN5Catch15makeTestInvokerIN12_GLOBAL__N_131____C_A_T_C_H____T_E_S_T____108EEEPNS_12ITestInvokerEMT_FvvE
FNDA:1,_ZN5Catch15makeTestInvokerIN12_GLOBAL__N_131____C_A_T_C_H____T_E_S_T____110EEEPNS_12ITestInvokerEMT_FvvE
FNDA:1,_ZN5Catch15makeTestInvokerIN12_GLOBAL__N_131____C_A_T_C_H____T_E_S_T____112EEEPNS_12ITestInvokerEMT_FvvE
FNDA:1,_ZN5Catch15makeTestInvokerIN12_GLOBAL__N_131____C_A_T_C_H____T_E_S_T____114EEEPNS_12ITestInvokerEMT_FvvE
FNDA:1,_ZN5Catch15makeTestInvokerIN12_GLOBAL__N_131____C_A_T_C_H____T_E_S_T____116EEEPNS_12ITestInvokerEMT_FvvE
FNDA:0,_ZZN5Catch21makeCommandLineParserERNS_10ConfigDataEENKUlRKNSt7__cxx1112basic_stringIcSt11char_traitsIcESaIcEEEE2_clES9_
FNDA:0,_ZZN5Catch21makeCommandLineParserERNS_10ConfigDataEENKUlRKNSt7__cxx1112basic_stringIcSt11char_traitsIcESaIcEEEE3_clES9_
FNDA:0,_ZZN5Catch21makeCommandLineParserERNS_10ConfigDataEENKUlRKNSt7__cxx1112basic_stringIcSt11char_traitsIcESaIcEEEE4_clES9_
FNDA:0,_ZZN5Catch21makeCommandLineParserERNS_10ConfigDataEENKUlRKNSt7__cxx1112basic_stringIcSt11char_traitsIcESaIcEEEE5_clES9_
FNDA:0,_ZZN5Catch21makeCommandLineParserERNS_10ConfigDataEENKUlRKNSt7__cxx1112basic_stringIcSt11char_traitsIcESaIcEEEE6_clES9_
FNDA:0,_ZZN5Catch21makeCommandLineParserERNS_10ConfigDataEENKUlbE_clEb
FNDA:0,_ZZN5Catch21makeCommandLineParserERNS_10ConfigDataEENKUliE_clEi
FNDA:0,_ZZN5Catch21makeCommandLineParserERNS_10ConfigDataEENKUlbE0_clEb
FNDA:0,_ZNK5Catch14SourceLineInfoeqERKS0_
FNDA:0,_ZNK5Catch14SourceLineInfoltERKS0_
FNDA:0,_ZN5CatchlsERSoRKNS_14SourceLineInfoE
FNDA:0,_ZNK5Catch13StreamEndStoppsB5cxx11Ev
FNDA:63,_ZN5Catch11NonCopyableC2Ev
FNDA:0,_ZN5Catch11NonCopyableD0Ev
FNDA:63,_ZN5Catch11NonCopyableD2Ev
FNDA:1,_ZN5Catch6ConfigC2ERKNS_10ConfigDataE
FNDA:0,_ZNK5Catch6Config11getFilenameB5cxx11Ev
FNDA:1,_ZNK5Catch6Config9listTestsEv
FNDA:1,_ZNK5Catch6Config17listTestNamesOnlyEv
FNDA:1,_ZNK5Catch6Config8listTagsEv
FNDA:1,_ZNK5Catch6Config13listReportersEv
FNDA:0,_ZNK5Catch6Config14getProcessNameB5cxx11Ev
FNDA:1,_ZNK5Catch6Config15getReporterNameB5cxx11Ev
FNDA:0,_ZNK5Catch6Config14getTestsOrTagsB5cxx11Ev
FNDA:59,_ZNK5Catch6Config16getSectionsToRunB5cxx11Ev
FNDA:4,_ZNK5Catch6Config8testSpecEv
FNDA:0,_ZNK5Catch6Config14hasTestFiltersEv
FNDA:0,_ZNK5Catch6Config8showHelpEv
FNDA:1,_ZNK5Catch6Config11allowThrowsEv
FNDA:9,_ZNK5Catch6Config6streamEv
FNDA:3,_ZNK5Catch6Config4nameB5cxx11Ev
FNDA:41,_ZNK5Catch6Config24includeSuccessfulResultsEv
FNDA:0,_ZNK5Catch6Config26warnAboutMissingAssertionsEv
FNDA:1,_ZNK5Catch6Config16warnAboutNoTestsEv
FNDA:118,_ZNK5Catch6Config13showDurationsEv
FNDA:59,_ZNK5Catch6Config11minDurationEv
FNF:1548
FNH:617
DA:503,241
DA:504,241
DA:505,241
DA:506,241
DA:616,146
DA:620,596
DA:621,596
DA:622,596
DA:623,596
DA:625,1
DA:626,1
DA:627,1
DA:628,1
DA:630,118
DA:631,236
DA:640,0
DA:641,0
DA:642,0
DA:646,1
DA:647,1
DA:649,0
DA:650,0
DA:666,0
DA:667,0
DA:671,59
DA:672,59
DA:678,122
DA:679,122
DA:683,122
DA:684,122
DA:963,47
DA:965,47
DA:966,47
DA:967,47
DA:968,47
DA:974,47
DA:975,47
DA:1386,82
DA:1448,0
DA:1449,0
DA:1450,0
DA:1452,0
DA:1580,0
DA:1581,0
DA:1617,0
DA:1618,0
DA:1621,0
DA:1622,0
DA:1623,0
DA:1628,0
DA:1630,0
DA:1642,0
DA:1643,0
DA:1710,0
DA:1711,0
DA:2201,0
DA:2202,82
DA:2205,82
DA:2206,82
DA:2207,82
DA:2208,82
DA:2227,0
DA:2229,0
DA:2230,0
DA:2233,77
DA:2235,77
DA:2236,77
DA:2237,77
DA:2238,77
DA:2301,0
DA:2302,0
DA:2303,0
DA:2306,5
DA:2308,5
DA:2309,5
DA:2314,47
DA:2325,13
DA:2339,82
DA:2342,47
DA:2343,47
DA:2345,4
DA:2346,4
DA:2350,13
DA:2351,13
DA:2358,8
DA:2359,8
DA:2362,1
DA:2363,1
DA:2366,2
DA:2367,2
DA:2370,2
DA:2371,2
DA:2400,5
DA:2401,5
DA:2414,73
DA:2415,73
DA:2418,9
DA:2419,9
DA:2558,122
DA:2559,122
DA:2560,0
DA:2562,122
DA:2565,5
DA:2566,5
DA:2567,5
DA:2631,0
DA:2632,0
DA:2633,0
DA:3103,0
DA:3104,0
DA:3243,0
DA:3401,0
DA:3402,0
DA:3403,0
DA:3773,0
DA:3774,0
DA:3775,0
DA:3776,0
DA:3777,0
DA:3778,0
DA:3780,0
DA:3781,0
DA:3782,0
DA:3783,0
DA:3784,0
DA:3786,0
DA:3787,0
DA:3875,0
DA:3876,0
DA:4374,134
DA:4376,134
DA:4377,1
DA:4379,134
DA:4382,132
DA:4384,132
DA:4404,5
DA:4412,5
DA:4413,5
DA:4414,5
DA:4424,101
DA:4425,101
DA:4426,101
DA:4427,101
DA:4430,169
DA:4431,169
DA:4432,101
DA:4433,169
DA:4434,169
DA:4436,0
DA:4437,0
DA:4438,0
DA:4441,0
DA:4442,0
DA:4445,1
DA:4449,1
DA:4450,1
DA:4563,0
DA:5084,0
DA:5236,0
DA:5237,0
DA:5238,0
DA:5239,0
DA:5240,0
DA:5315,1
DA:5494,61
DA:5495,61
DA:5496,61
DA:5497,61
DA:5499,63
DA:5500,63
DA:5501,63
DA:5502,63
DA:5525,0
DA:5541,0
DA:5543,0
DA:5560,0
DA:5579,0
DA:5595,0
DA:5645,1
DA:5655,0
DA:5731,1
DA:5732,1
DA:5733,1
DA:5735,1
DA:5736,1
DA:5737,0
DA:5738,1
DA:5740,60
DA:5741,60
DA:5744,1
DA:5745,3
DA:5748,1
DA:5750,0
DA:5752,0
DA:5754,1
DA:5755,1
DA:5756,1
DA:5758,1
DA:5759,1
DA:5760,1
DA:5762,59
DA:5763,59
DA:5764,59
DA:5765,59
DA:5766,59
DA:5767,59
DA:5769,59
DA:5770,59
DA:5771,59
DA:5772,59
DA:5773,59
DA:5774,59
DA:5775,1
DA:5776,1
DA:5777,1
DA:5778,1
DA:5779,1
DA:5780,1
DA:5781,1
DA:5782,1
DA:5784,0
DA:5787,0
DA:5804,0
DA:5805,0
DA:5812,0
DA:5813,0
DA:5832,0
DA:5833,0
DA:5834,0
DA:5835,0
DA:5836,0
DA:5848,0
DA:5849,0
DA:5850,0
DA:5852,0
DA:5853,0
DA:5854,0
DA:5855,0
DA:5856,0
DA:5858,0
DA:5859,0
DA:5862,0
DA:5863,0
DA:5866,0
DA:5867,0
DA:5869,0
DA:5871,0
DA:5872,0
DA:5873,0
DA:5874,0
DA:5875,0
DA:5876,0
DA:5877,0
DA:5880,0
DA:5882,0
DA:5884,0
DA:5885,0
DA:5886,0
DA:5887,0
DA:5890,0
DA:5892,0
DA:5893,0
DA:5894,0
DA:5896,0
DA:5898,0
DA:5899,0
DA:5905,0
DA:5906,0
DA:5907,0
DA:5908,0
DA:5910,0
DA:5911,0
DA:5912,0
DA:5913,0
DA:5914,0
DA:5915,0
DA:5916,0
DA:5917,0
DA:5918,0
DA:5919,0
DA:5920,0
DA:5921,0
DA:5923,0
DA:5924,0
DA:5925,0
DA:5926,0
DA:5927,0
DA:5928,0
DA:5929,0
DA:5930,0
DA:5931,0
DA:5932,0
DA:5933,0
DA:5934,0
DA:5935,0
DA:5936,0
DA:5937,0
DA:5940,0
DA:5958,0
DA:5960,0
DA:5961,0
DA:5962,0
DA:5964,0
DA:6048,1
DA:6049,1
DA:6052,0
DA:6053,0
DA:6059,4
DA:6060,4
DA:6061,4
DA:6257,0
DA:6258,0
DA:6259,0
DA:6284,0
DA:6285,0
DA:6286,0
DA:6287,0
DA:6288,0
DA:7476,0
DA:7477,0
DA:7478,0
DA:7490,118
DA:7491,118
DA:7492,118
DA:7495,0
DA:7496,0
DA:7573,0
DA:7574,0
DA:7862,0
DA:7863,0
DA:7871,0
DA:7872,0
DA:7873,0
DA:7874,0
DA:7875,0
DA:7876,0
DA:7878,0
DA:7879,0
DA:7882,0
DA:7883,0
DA:7884,0
DA:7885,0
DA:7888,0
DA:7889,0
DA:7890,0
DA:7891,0
DA:7892,0
DA:7894,0
DA:7897,0
DA:7898,0
DA:7901,0
DA:7902,0
DA:7905,0
DA:7906,0
DA:7908,0
DA:7909,0
DA:7912,0
DA:7913,0
DA:7918,0
DA:7919,0
DA:7921,0
DA:7922,0
DA:7926,0
DA:7927,0
DA:8017,59
DA:8018,59
DA:8019,59
DA:8020,59
DA:8021,59
DA:8023,59
DA:8024,59
DA:8025,59
DA:8026,59
DA:8027,59
DA:8034,59
DA:8035,59
DA:8036,59
DA:8037,59
DA:8038,59
DA:8039,59
DA:8040,59
DA:8183,0
DA:8184,0
DA:8185,0
DA:8189,40
DA:8190,40
DA:8191,40
DA:8193,160
DA:8195,0
DA:8196,0
DA:8199,0
DA:8200,0
DA:8201,0
DA:8203,0
DA:8204,0
DA:8205,0
DA:8207,0
DA:8210,0
DA:8212,0
DA:8215,122
DA:8219,122
DA:8220,122
DA:8221,122
DA:8222,122
DA:8224,82
DA:8225,82
DA:8226,82
DA:8227,0
DA:8228,0
DA:8229,0
DA:8231,1
DA:8232,1
DA:8235,122
DA:8236,122
DA:8237,122
DA:8243,0
DA:8245,122
DA:8247,0
DA:8252,122
DA:8253,122
DA:8254,122
DA:8255,122
DA:8257,0
DA:8258,0
DA:8259,0
DA:8261,1
DA:8262,1
DA:8263,1
DA:8264,39
DA:8265,39
DA:8266,39
DA:8268,0
DA:8269,0
DA:8270,0
DA:8272,0
DA:8273,0
DA:8274,0
DA:8278,0
DA:8279,0
DA:8280,0
DA:8287,40
DA:8288,40
DA:8289,40
DA:8291,0
DA:8293,0
DA:8294,0
DA:8295,0
DA:8296,0
DA:8297,0
DA:8298,0
DA:8300,0
DA:8303,40
DA:8304,40
DA:8305,40
DA:8306,40
DA:8309,0
DA:8310,0
DA:8314,80
DA:8315,80
DA:8318,120
DA:8319,120
DA:8322,0
DA:8323,0
DA:8326,40
DA:8327,40
DA:8330,0
DA:8332,0
DA:8333,0
DA:8334,0
DA:8336,0
DA:8337,0
DA:8338,0
DA:8340,0
DA:8341,0
DA:8343,0
DA:8344,0
DA:8345,0
DA:8346,0
DA:8348,0
DA:8349,0
DA:8350,0
DA:8351,0
DA:8352,0
DA:8354,0
DA:8355,0
DA:8357,0
DA:8358,0
DA:8361,0
DA:8362,0
DA:8363,0
DA:8364,0
DA:8365,0
DA:8366,0
DA:8368,0
DA:8369,0
DA:8371,0
DA:8372,0
DA:8375,0
DA:8376,0
DA:8390,0
DA:8391,0
DA:8392,0
DA:8393,0
DA:8394,0
DA:8471,0
DA:8472,0
DA:8473,0
DA:8475,0
DA:8476,0
DA:8477,0
DA:8479,0
DA:8480,0
DA:8481,0
DA:8504,0
DA:8505,0
DA:8506,0
DA:8508,0
DA:8510,0
DA:8511,0
DA:8512,0
DA:8514,0
DA:8515,0
DA:8516,0
DA:8517,0
DA:8520,0
DA:8521,0
DA:8523,0
DA:8524,0
DA:8525,0
DA:8526,0
DA:8527,0
DA:8529,0
DA:8530,0
DA:8532,0
DA:8533,0
DA:8535,0
DA:8536,0
DA:8537,0
DA:8538,0
DA:8539,0
DA:8541,0
DA:8542,0
DA:8544,0
DA:8545,0
DA:8548,0
DA:8550,0
DA:8551,0
DA:8552,0
DA:8555,0
DA:8556,0
DA:8566,0
DA:8567,0
DA:8568,0
DA:8569,0
DA:8570,0
DA:8571,0
DA:8572,0
DA:8574,0
DA:8575,0
DA:8576,0
DA:8577,0
DA:8580,0
DA:8581,0
DA:8582,0
DA:8583,0
DA:8585,0
DA:8586,0
DA:8588,0
DA:8589,0
DA:8590,0
DA:8592,0
DA:8593,0
DA:8594,0
DA:8602,0
DA:8604,0
DA:8605,0
DA:8606,0
DA:8608,0
DA:8609,0
DA:8614,0
DA:8616,0
DA:8617,0
DA:8618,0
DA:8619,0
DA:8621,0
DA:8622,0
DA:8623,0
DA:8625,0
DA:8626,0
DA:8627,0
DA:8630,0
DA:8631,0
DA:8632,0
DA:8634,0
DA:8635,0
DA:8636,0
DA:8637,0
DA:8638,0
DA:8640,0
DA:8641,0
DA:8642,0
DA:8643,0
DA:8658,0
DA:8659,0
DA:8660,0
DA:8676,0
DA:8677,0
DA:8678,0
DA:8679,0
DA:8681,0
DA:8682,0
DA:8683,0
DA:8692,0
DA:8693,0
DA:8694,0
DA:8695,0
DA:8697,0
DA:8698,0
DA:8699,0
DA:8704,0
DA:8705,0
DA:8707,0
DA:8708,0
DA:8710,0
DA:8711,0
DA:8712,0
DA:8713,0
DA:8714,0
DA:8715,0
DA:8716,0
DA:8718,0
DA:8719,0
DA:8720,0
DA:8723,0
DA:8724,0
DA:8725,0
DA:8726,0
DA:8727,0
DA:8728,0
DA:8730,0
DA:8740,0
DA:8741,0
DA:8743,0
DA:8744,0
DA:8745,0
DA:8747,0
DA:8748,0
DA:8749,0
DA:8750,0
DA:8751,0
DA:8753,0
DA:8755,0
DA:8756,0
DA:8757,0
DA:8758,0
DA:8760,0
DA:8761,0
DA:8762,0
DA:8763,0
DA:8773,0
DA:8774,0
DA:8775,0
DA:8776,0
DA:8777,0
DA:8778,0
DA:8825,1
DA:8826,2
DA:8827,3
DA:8834,1
DA:8835,1
DA:8849,0
DA:8850,0
DA:8864,1
DA:8865,1
DA:8868,1
DA:8869,0
DA:8871,1
DA:8872,0
DA:8873,0
DA:8874,0
DA:8875,0
DA:8876,0
DA:8877,0
DA:8879,0
DA:8880,0
DA:8881,0
DA:8882,0
DA:8883,0
DA:8885,0
DA:8886,0
DA:8890,0
DA:8893,1
DA:8896,1
DA:8898,1
DA:8899,1
DA:8900,1
DA:8902,1
DA:8903,1
DA:8908,0
DA:8909,0
DA:8910,0
DA:8913,0
DA:8914,0
DA:8915,0
DA:8918,0
DA:8919,0
DA:8920,0
DA:8922,0
DA:8923,0
DA:8924,0
DA:8926,0
DA:8937,2
DA:8938,3
DA:8948,1
DA:8949,1
DA:8950,1
DA:8954,0
DA:8956,1
DA:8957,1
DA:8958,1
DA:8959,1
DA:8961,2
DA:8962,2
DA:8963,2
DA:8965,0
DA:8966,0
DA:8967,0
DA:8968,0
DA:8969,0
DA:8970,0
DA:8971,0
DA:8974,3
DA:8975,3
DA:8976,3
DA:8977,6
DA:8994,0
DA:8996,0
DA:8998,0
DA:8999,0
DA:9002,2
DA:9003,0
DA:9004,0
DA:9005,0
DA:9007,1
DA:9008,0
DA:9009,0
DA:9012,1
DA:9016,1
DA:9017,1
DA:9018,1
DA:9019,0
DA:9020,1
DA:9024,0
DA:9026,0
DA:9028,0
DA:9029,0
DA:9042,1
DA:9043,1
DA:9044,1
DA:9045,1
DA:9047,0
DA:9048,1
DA:9065,0
DA:9066,0
DA:9067,0
DA:9068,0
DA:9069,0
DA:9070,0
DA:9072,0
DA:9073,0
DA:9074,1
DA:9075,1
DA:9076,2
DA:9078,0
DA:9079,0
DA:9080,0
DA:9081,0
DA:9082,0
DA:9083,0
DA:9084,0
DA:9086,0
DA:9087,0
DA:9088,0
DA:9109,33
DA:9110,0
DA:9111,0
DA:9118,0
DA:9125,8
DA:9127,1
DA:9128,1
DA:9136,2
DA:9138,0
DA:9140,0
DA:9141,0
DA:9142,0
DA:9143,0
DA:9144,0
DA:9145,0
DA:9146,0
DA:9152,11
DA:9154,0
DA:9155,0
DA:9156,0
DA:9165,0
DA:9166,0
DA:9173,0
DA:9174,0
DA:9175,0
DA:9180,0
DA:9181,0
DA:9182,0
DA:9183,0
DA:9184,0
DA:9185,0
DA:9186,0
DA:9193,10
DA:9195,0
DA:9196,0
DA:9207,2
DA:9209,0
DA:9210,0
DA:9220,1690
DA:9221,0
DA:9223,0
DA:9225,1
DA:9226,1
DA:9249,13
DA:9253,9
DA:9254,9
DA:9255,18
DA:9256,9
DA:9259,10
DA:9260,10
DA:9261,20
DA:9262,10
DA:9264,32
DA:9265,32
DA:9266,32
DA:9269,1
DA:9270,1
DA:9271,1
DA:9279,0
DA:9280,0
DA:9283,0
DA:9284,0
DA:9285,0
DA:9287,0
DA:9290,0
DA:9303,3
DA:9305,1
DA:9306,1
DA:9307,1
DA:9315,0
DA:9316,0
DA:9319,0
DA:9320,1
DA:9322,1
DA:9324,1
DA:9325,1
DA:9327,1
DA:9328,1
DA:9329,1
DA:9331,0
DA:9332,1
DA:9339,0
DA:9340,0
DA:9341,0
DA:9342,0
DA:9344,0
DA:9345,0
DA:9346,0
DA:9347,0
DA:9349,0
DA:9350,0
DA:9352,0
DA:9353,0
DA:9354,0
DA:9356,0
DA:9357,0
DA:9360,0
DA:9366,0
DA:9375,2
DA:9377,11
DA:9380,10
DA:9383,8
DA:9385,51
DA:9386,51
DA:9387,51
DA:9390,0
DA:9391,0
DA:9392,0
DA:9393,0
DA:9394,0
DA:9395,0
DA:9397,0
DA:9398,0
DA:9400,0
DA:9401,0
DA:9402,0
DA:9403,0
DA:9405,0
DA:9406,0
DA:9407,0
DA:9408,0
DA:9409,0
DA:9411,0
DA:9412,0
DA:9416,0
DA:9417,0
DA:9418,0
DA:9419,0
DA:9421,0
DA:9422,0
DA:9423,0
DA:9424,0
DA:9425,0
DA:9426,0
DA:9427,0
DA:9428,0
DA:9429,0
DA:9430,0
DA:9431,0
DA:9432,0
DA:9433,0
DA:9434,0
DA:9435,0
DA:9436,0
DA:9437,0
DA:9438,0
DA:9439,0
DA:9440,0
DA:9441,0
DA:9442,0
DA:9443,0
DA:9444,0
DA:9445,0
DA:9446,0
DA:9448,0
DA:9449,0
DA:9450,0
DA:9452,0
DA:9453,0
DA:9454,0
DA:9455,0
DA:9456,0
DA:9457,0
DA:9462,0
DA:9463,0
DA:9466,0
DA:9471,1
DA:9472,0
DA:9473,0
DA:9474,0
DA:9475,1
DA:9478,3
DA:9479,7
DA:9480,1
DA:9481,1
DA:9490,1
DA:9491,1
DA:9492,1
DA:9495,1
DA:9496,1
DA:9497,1
DA:9500,31
DA:9501,31
DA:9502,31
DA:9512,33
DA:9513,33
DA:9522,0
DA:9523,0
DA:9524,0
DA:9525,0
DA:9526,0
DA:9527,0
DA:9528,0
DA:9529,0
DA:9531,0
DA:9532,0
DA:9533,0
DA:9534,0
DA:9535,0
DA:9536,0
DA:9537,0
DA:9539,0
DA:9540,0
DA:9541,0
DA:9542,0
DA:9544,0
DA:9545,0
DA:9546,0
DA:9548,0
DA:9549,0
DA:9550,0
DA:9551,0
DA:9552,0
DA:9555,0
DA:9556,0
DA:9557,0
DA:9558,0
DA:9559,0
DA:9561,0
DA:9563,0
DA:9565,0
DA:9566,0
DA:9567,0
DA:9568,0
DA:9569,0
DA:9570,0
DA:9572,0
DA:9573,0
DA:9574,0
DA:9577,0
DA:9578,0
DA:9579,0
DA:9580,0
DA:9581,0
DA:9582,0
DA:9583,0
DA:9584,0
DA:9585,0
DA:9586,0
DA:9587,0
DA:9588,0
DA:9593,1
DA:9599,1
DA:9600,1
DA:9602,1
DA:9605,1
DA:9606,32
DA:9607,2
DA:9610,1
DA:9612,1
DA:9613,1
DA:9614,0
DA:9616,0
DA:9617,0
DA:9618,0
DA:9619,0
DA:9620,0
DA:9621,0
DA:9622,0
DA:9623,0
DA:9624,0
DA:9625,0
DA:9630,0
DA:9631,0
DA:9632,0
DA:9633,0
DA:9636,1
DA:9637,1
DA:9642,1
DA:9643,1
DA:9697,1
DA:9701,0
DA:9702,0
DA:9703,0
DA:9704,0
DA:9706,0
DA:9707,0
DA:9709,0
DA:9710,0
DA:9712,0
DA:9713,0
DA:9714,0
DA:9715,0
DA:9716,1
DA:9717,0
DA:9718,0
DA:9719,0
DA:9720,0
DA:9722,0
DA:9723,0
DA:9724,0
DA:9725,0
DA:9726,0
DA:9727,0
DA:9728,0
DA:9729,0
DA:9733,0
DA:9734,0
DA:9736,0
DA:9737,0
DA:9738,0
DA:9739,0
DA:9740,0
DA:9741,0
DA:9742,0
DA:9743,0
DA:9744,0
DA:9746,0
DA:9747,0
DA:9748,1
DA:9749,0
DA:9750,0
DA:9751,0
DA:9752,0
DA:9753,0
DA:9754,1
DA:9755,0
DA:9756,0
DA:9758,0
DA:9759,0
DA:9760,0
DA:9761,0
DA:9762,0
DA:9763,0
DA:9765,0
DA:9766,0
DA:9767,0
DA:9768,0
DA:9769,0
DA:9770,0
DA:9771,0
DA:9772,0
DA:9773,0
DA:9774,0
DA:9775,0
DA:9776,0
DA:9777,0
DA:9779,0
DA:9780,0
DA:9781,0
DA:9782,0
DA:9783,0
DA:9784,0
DA:9785,0
DA:9786,0
DA:9787,0
DA:9788,0
DA:9789,0
DA:9791,0
DA:9792,0
DA:9793,0
DA:9794,0
DA:9795,0
DA:9797,0
DA:9798,0
DA:9800,0
DA:9801,0
DA:9803,0
DA:9804,0
DA:9805,1
DA:9808,2
DA:9809,3
DA:9810,3
DA:9811,5
DA:9812,4
DA:9813,3
DA:9814,5
DA:9815,4
DA:9816,3
DA:9817,5
DA:9818,4
DA:9819,3
DA:9820,5
DA:9821,4
DA:9822,3
DA:9823,5
DA:9824,4
DA:9825,3
DA:9826,5
DA:9827,4
DA:9828,4
DA:9829,5
DA:9830,4
DA:9831,4
DA:9832,5
DA:9833,4
DA:9834,4
DA:9835,5
DA:9836,4
DA:9837,3
DA:9838,5
DA:9839,4
DA:9840,4
DA:9841,5
DA:9842,4
DA:9843,4
DA:9844,5
DA:9845,4
DA:9846,4
DA:9847,5
DA:9848,4
DA:9849,4
DA:9850,5
DA:9851,4
DA:9852,4
DA:9853,5
DA:9854,4
DA:9855,3
DA:9856,5
DA:9857,4
DA:9858,4
DA:9859,5
DA:9860,4
DA:9861,4
DA:9862,5
DA:9863,4
DA:9864,3
DA:9865,3
DA:9866,4
DA:9867,3
DA:9868,3
DA:9869,4
DA:9870,4
DA:9871,3
DA:9872,4
DA:9873,4
DA:9874,3
DA:9875,4
DA:9876,4
DA:9877,3
DA:9878,4
DA:9879,3
DA:9880,3
DA:9881,4
DA:9882,4
DA:9883,3
DA:9884,4
DA:9885,4
DA:9886,3
DA:9887,4
DA:9888,4
DA:9889,3
DA:9890,4
DA:9891,4
DA:9892,3
DA:9893,4
DA:9894,3
DA:9895,3
DA:9896,4
DA:9897,4
DA:9898,3
DA:9899,4
DA:9900,2
DA:9901,4
DA:9903,2
DA:9915,0
DA:9916,0
DA:9918,0
DA:9921,0
DA:9924,0
DA:9928,0
DA:9930,0
DA:9933,0
DA:9934,0
DA:9937,63
DA:9938,63
DA:9946,1
DA:9947,1
DA:9948,1
DA:9954,1
DA:9955,0
DA:9957,1
DA:9958,0
DA:9961,1
DA:9962,1
DA:9963,0
DA:9964,0
DA:9965,0
DA:9968,1
DA:9969,1
DA:9971,0
DA:9972,0
DA:9975,1
DA:9976,1
DA:9977,1
DA:9978,1
DA:9980,0
DA:9981,1
DA:9983,0
DA:9984,59
DA:9986,4
DA:9987,0
DA:9989,0
DA:9992,1
DA:9993,9
DA:9994,3
DA:9995,41
DA:9996,0
DA:9997,1
DA:9998,118
DA:9999,59
DA:10000,3
DA:10001,60
DA:10002,1
DA:10003,0
DA:10004,120
DA:10005,0
DA:10006,1
DA:10008,1
DA:10009,0
DA:10010,0
DA:10011,0
DA:10012,0
DA:10014,1
DA:10015,1
DA:10078,1
DA:10083,0
DA:10085,0
DA:10086,0
DA:10087,0
DA:10180,8
DA:10181,8
DA:10182,4
DA:10183,4
DA:10184,0
DA:10185,0
DA:10186,0
DA:10187,0
DA:10188,0
DA:10189,0
DA:10191,0
DA:10192,1
DA:10193,2
DA:10194,0
DA:10195,1
DA:10197,0
DA:10198,0
DA:10201,1
DA:10202,1
DA:10203,1
DA:10207,8
DA:10208,8
DA:10209,8
DA:10210,8
DA:10213,1
DA:10219,1
DA:10225,1
DA:10226,1
DA:10227,1
DA:10228,1
DA:10229,1
DA:10230,1
DA:10231,1
DA:10232,2
DA:10233,1
DA:10236,1
DA:10237,2
DA:10238,1
DA:10255,4
DA:10256,0
DA:10257,0
DA:10258,0
DA:10259,0
DA:10260,0
DA:10261,0
DA:10262,0
DA:10263,0
DA:10266,4
DA:10268,8
DA:10269,8
DA:10274,8
DA:10275,8
DA:10277,8
DA:10279,4
DA:10280,4
DA:10297,122
DA:10298,122
DA:10300,0
DA:10301,0
DA:10304,10
DA:10305,10
DA:10311,1
DA:10312,1
DA:10313,1
DA:10314,1
DA:10315,1
DA:10316,1
DA:10317,2
DA:10318,2
DA:10319,2
DA:10331,1
DA:10333,1
DA:10334,1
DA:10336,2
DA:10337,2
DA:10338,2
DA:10339,2
DA:10340,1
DA:10341,1
DA:10342,2
DA:10344,0
DA:10345,0
DA:10346,0
DA:10382,0
DA:10384,0
DA:10385,0
DA:10463,0
DA:10466,0
DA:10467,0
DA:10468,0
DA:10470,0
DA:10474,0
DA:10476,0
DA:10478,0
DA:10479,0
DA:10505,82
DA:10507,0
DA:10508,0
DA:10509,0
DA:10510,0
DA:10511,0
DA:10513,0
DA:10514,0
DA:10532,0
DA:10533,0
DA:10537,0
DA:10538,0
DA:10542,0
DA:10543,0
DA:10580,1
DA:10587,0
DA:10589,0
DA:10590,0
DA:10591,0
DA:10593,0
DA:10597,0
DA:10598,0
DA:10599,0
DA:10600,0
DA:10601,0
DA:10602,0
DA:10604,0
DA:10605,0
DA:10607,0
DA:10609,0
DA:10610,0
DA:10611,0
DA:10612,0
DA:10614,0
DA:10617,0
DA:10618,0
DA:10619,0
DA:10620,0
DA:10622,0
DA:10623,0
DA:10624,0
DA:10625,0
DA:10626,0
DA:10628,0
DA:10629,0
DA:10631,0
DA:10632,0
DA:10633,0
DA:10645,1
DA:10646,1
DA:10678,1
DA:10679,1
DA:10681,0
DA:10682,0
DA:10683,0
DA:10686,0
DA:10705,0
DA:10706,0
DA:10708,0
DA:10711,0
DA:10712,0
DA:10713,0
DA:10714,0
DA:10715,0
DA:10716,0
DA:10717,0
DA:10718,0
DA:10719,0
DA:10720,0
DA:10721,0
DA:10722,0
DA:10723,0
DA:10724,0
DA:10725,0
DA:10728,0
DA:10729,0
DA:10730,0
DA:10732,0
DA:10775,0
DA:10776,0
DA:10777,0
DA:10888,59
DA:10893,413
DA:10894,354
DA:10897,59
DA:10898,59
DA:10900,0
DA:10901,0
DA:10902,0
DA:10903,0
DA:10904,0
DA:10905,0
DA:10911,0
DA:10912,0
DA:10913,0
DA:10914,0
DA:10916,1
DA:10917,1
DA:10918,1
DA:10919,1
DA:10921,32769
DA:10922,1
DA:10924,1
DA:10925,1
DA:10928,1
DA:10929,1
DA:10931,59
DA:10933,59
DA:10934,59
DA:10935,59
DA:10936,59
DA:10937,59
DA:10939,59
DA:10940,59
DA:10941,413
DA:10942,354
DA:10944,59
DA:10950,59
DA:10951,59
DA:10952,59
DA:10965,0
DA:10967,0
DA:10968,0
DA:10973,0
DA:10975,0
DA:10976,0
DA:10985,1
DA:10991,1
DA:10997,0
DA:10998,1
DA:11004,1
DA:11005,1
DA:11066,1
DA:11067,1
DA:11069,0
DA:11070,0
DA:11072,2
DA:11073,2
DA:11075,1
DA:11077,2
DA:11079,2
DA:11080,2
DA:11081,2
DA:11082,2
DA:11083,2
DA:11085,40
DA:11087,40
DA:11088,40
DA:11089,40
DA:11090,40
DA:11092,40
DA:11094,40
DA:11097,0
DA:11098,0
DA:11099,0
DA:11101,0
DA:11102,0
DA:11103,40
DA:11105,40
DA:11107,59
DA:11110,59
DA:11111,59
DA:11112,59
DA:11113,59
DA:11114,59
DA:11115,59
DA:11117,59
DA:11119,59
DA:11123,59
DA:11124,59
DA:11125,59
DA:11126,59
DA:11127,59
DA:11128,59
DA:11129,59
DA:11131,59
DA:11133,1
DA:11135,1
DA:11136,1
DA:11137,1
DA:11138,1
DA:11139,1
DA:11141,0
DA:11142,0
DA:11143,0
DA:11144,0
DA:11146,1
DA:11148,1
DA:11150,1
DA:11151,1
DA:11152,1
DA:11153,1
DA:11154,1
DA:11156,1
DA:11158,0
DA:11159,0
DA:11161,4
DA:11162,1
DA:11169,1
DA:11175,59
DA:11176,1
DA:11200,1
DA:11204,1
DA:11205,1
DA:11206,1
DA:11250,0
DA:11251,0
DA:11252,0
DA:11253,0
DA:11255,0
DA:11258,0
DA:11259,0
DA:11260,0
DA:11261,0
DA:11262,0
DA:11263,0
DA:11265,0
DA:11266,0
DA:11267,0
DA:11268,0
DA:11269,0
DA:11270,0
DA:11271,0
DA:11272,0
DA:11273,0
DA:11274,0
DA:11275,0
DA:11277,0
DA:11278,0
DA:11280,0
DA:11281,0
DA:11282,0
DA:11284,0
DA:11285,0
DA:11286,0
DA:11287,0
DA:11288,0
DA:11289,0
DA:11290,0
DA:11291,0
DA:11293,0
DA:11294,0
DA:11295,0
DA:11296,0
DA:11298,0
DA:11299,0
DA:11301,0
DA:11302,0
DA:11303,0
DA:11304,0
DA:11306,0
DA:11307,0
DA:11308,0
DA:11310,0
DA:11313,0
DA:11314,0
DA:11315,0
DA:11316,0
DA:11317,0
DA:11319,0
DA:11320,0
DA:11322,0
DA:11323,0
DA:11324,0
DA:11325,0
DA:11327,0
DA:11330,0
DA:11332,0
DA:11333,0
DA:11334,0
DA:11335,0
DA:11336,0
DA:11337,0
DA:11338,0
DA:11339,0
DA:11340,0
DA:11343,0
DA:11344,0
DA:11345,0
DA:11346,0
DA:11347,0
DA:11348,0
DA:11349,0
DA:11350,0
DA:11351,0
DA:11352,0
DA:11353,0
DA:11354,0
DA:11355,0
DA:11357,0
DA:11358,0
DA:11359,0
DA:11360,0
DA:11361,0
DA:11362,0
DA:11364,0
DA:11366,0
DA:11367,0
DA:11368,0
DA:11369,0
DA:11370,0
DA:11371,0
DA:11372,0
DA:11373,0
DA:11375,0
DA:11376,0
DA:11379,1
DA:11380,1
DA:11381,1
DA:11382,1
DA:11383,0
DA:11384,1
DA:11385,0
DA:11386,1
DA:11387,0
DA:11388,1
DA:11389,0
DA:11390,1
DA:11391,0
DA:11401,0
DA:11402,0
DA:11403,0
DA:11404,0
DA:11407,0
DA:11423,0
DA:11424,0
DA:11427,0
DA:11428,0
DA:11432,0
DA:11433,0
DA:11481,0
DA:11484,0
DA:11485,0
DA:11488,0
DA:11491,0
DA:11492,0
DA:11496,0
DA:11499,0
DA:11500,0
DA:11503,0
DA:11504,0
DA:11506,0
DA:11508,0
DA:11512,0
DA:11513,0
DA:11518,0
DA:11519,0
DA:11522,0
DA:11523,0
DA:11529,0
DA:11530,0
DA:11532,0
DA:11537,0
DA:11542,0
DA:11543,0
DA:11547,0
DA:11548,0
DA:11549,0
DA:11550,0
DA:11551,0
DA:11563,0
DA:11564,0
DA:11565,0
DA:11567,0
DA:11571,0
DA:11572,0
DA:11575,0
DA:11576,0
DA:11579,0
DA:11580,0
DA:11581,0
DA:11584,0
DA:11592,0
DA:11593,0
DA:11594,0
DA:11595,0
DA:11596,0
DA:11597,0
DA:11598,0
DA:11599,0
DA:11607,0
DA:11608,0
DA:11610,0
DA:11612,0
DA:11613,0
DA:11614,0
DA:11616,0
DA:11619,0
DA:11620,0
DA:11621,0
DA:11622,0
DA:11623,0
DA:11626,0
DA:11627,0
DA:11628,0
DA:11630,0
DA:11632,0
DA:11633,0
DA:11635,0
DA:11636,0
DA:11637,0
DA:11638,0
DA:11639,0
DA:11640,0
DA:11642,0
DA:11643,0
DA:11644,0
DA:11645,0
DA:11648,0
DA:11649,0
DA:11650,0
DA:11651,0
DA:11652,0
DA:11656,0
DA:11657,0
DA:11660,0
DA:11661,0
DA:11664,0
DA:11665,0
DA:11668,0
DA:11669,0
DA:11672,0
DA:11673,0
DA:11676,0
DA:11677,0
DA:11680,0
DA:11681,0
DA:11689,0
DA:11690,0
DA:11691,0
DA:11693,0
DA:11706,0
DA:11707,0
DA:11708,0
DA:11709,0
DA:11710,0
DA:11711,0
DA:11712,0
DA:11713,0
DA:11715,0
DA:11716,0
DA:11717,0
DA:11718,0
DA:11721,0
DA:11722,0
DA:11723,0
DA:11724,0
DA:11726,0
DA:11727,0
DA:11728,0
DA:11729,0
DA:11730,0
DA:11731,0
DA:11732,0
DA:11733,0
DA:11734,0
DA:11735,0
DA:11736,0
DA:11738,0
DA:11740,0
DA:11741,0
DA:11744,0
DA:11746,0
DA:11747,0
DA:11750,0
DA:11752,0
DA:11753,0
DA:11756,0
DA:11758,0
DA:11759,0
DA:11762,0
DA:11764,0
DA:11765,0
DA:11766,0
DA:11767,0
DA:11769,0
DA:11770,0
DA:11771,0
DA:11773,0
DA:11774,0
DA:11779,0
DA:11780,0
DA:11782,0
DA:11783,0
DA:11785,0
DA:11786,0
DA:11788,0
DA:11789,0
DA:11792,0
DA:11793,0
DA:11813,0
DA:11815,0
DA:11816,0
DA:11817,0
DA:11818,0
DA:11819,0
DA:11820,0
DA:11822,0
DA:11823,0
DA:11826,0
DA:11827,0
DA:11835,0
DA:11837,0
DA:11838,0
DA:11842,0
DA:11843,0
DA:11845,0
DA:11846,0
DA:11847,0
DA:11849,0
DA:11850,0
DA:11852,0
DA:11853,0
DA:11855,0
DA:11856,0
DA:11857,0
DA:11859,0
DA:11861,0
DA:11862,0
DA:11863,0
DA:11864,0
DA:11866,0
DA:11867,0
DA:11869,0
DA:11870,0
DA:11871,0
DA:11872,0
DA:11873,0
DA:11874,0
DA:11875,0
DA:11876,0
DA:11878,0
DA:11879,0
DA:11881,0
DA:11882,0
DA:11883,0
DA:11884,0
DA:11885,0
DA:11886,0
DA:11892,0
DA:11893,0
DA:11894,0
DA:11898,0
DA:11899,0
DA:11900,0
DA:11902,0
DA:11903,0
DA:11904,0
DA:11905,0
DA:11906,0
DA:11907,0
DA:11908,0
DA:11909,0
DA:11913,0
DA:11914,0
DA:11915,0
DA:11916,0
DA:11917,0
DA:11918,0
DA:11919,0
DA:11920,0
DA:11921,0
DA:11922,0
DA:11924,0
DA:11926,0
DA:11927,0
DA:11928,0
DA:11929,0
DA:11930,0
DA:11931,0
DA:12063,0
DA:12064,0
DA:12065,0
DA:12066,0
DA:12068,0
DA:12069,0
DA:12071,0
DA:12072,0
DA:12073,0
DA:12075,0
DA:12076,0
DA:12078,0
DA:12079,0
DA:12080,0
DA:12081,0
DA:12082,0
DA:12084,0
DA:12085,0
DA:12086,0
DA:12087,0
DA:12089,0
DA:12090,0
DA:12091,0
DA:12092,0
DA:12187,0
DA:12188,0
DA:12190,0
DA:12191,0
DA:12216,0
DA:12217,0
DA:12218,0
DA:12219,0
DA:12228,0
DA:12229,0
DA:12230,0
DA:12232,0
DA:12233,0
DA:12234,0
DA:12235,0
DA:12236,0
DA:12237,0
DA:12239,0
DA:12242,0
DA:12243,0
DA:12245,0
DA:12247,0
DA:12249,0
DA:12250,0
DA:12253,0
DA:12255,0
DA:12258,0
DA:12259,0
DA:12262,0
DA:12263,0
DA:12293,1
DA:12422,68
DA:12424,68
DA:12425,1
DA:12426,1
DA:12428,68
DA:12432,5
DA:12433,5
DA:12435,63
DA:12436,63
DA:12451,1
DA:12452,2
DA:12453,2
DA:12455,1
DA:12456,1
DA:12458,0
DA:12459,0
DA:12461,1
DA:12462,1
DA:12464,1
DA:12465,1
DA:12469,4
DA:12470,4
DA:12471,4
DA:12472,0
DA:12473,0
DA:12474,0
DA:12475,59
DA:12476,59
DA:12477,59
DA:12478,0
DA:12479,0
DA:12480,0
DA:12481,0
DA:12482,0
DA:12483,0
DA:12484,0
DA:12486,0
DA:12490,0
DA:12491,0
DA:12492,0
DA:12507,5
DA:12508,5
DA:12510,63
DA:12511,63
DA:12513,2
DA:12514,2
DA:12515,2
DA:12516,2
DA:12517,0
DA:12518,0
DA:12527,1
DA:12529,1
DA:12530,1
DA:12531,1
DA:12532,0
DA:12533,1
DA:12536,4
DA:12537,4
DA:12538,4
DA:12539,0
DA:12540,0
DA:12541,0
DA:12543,0
DA:12544,0
DA:12546,1
DA:12547,1
DA:12556,80
DA:12557,80
DA:12559,0
DA:12560,0
DA:12563,0
DA:12564,0
DA:12567,0
DA:12568,0
DA:12584,0
DA:12585,0
DA:12586,0
DA:12589,0
DA:12590,0
DA:12592,0
DA:12604,0
DA:12605,0
DA:12606,0
DA:12607,0
DA:12608,0
DA:12609,0
DA:12610,0
DA:12611,0
DA:12612,0
DA:12614,0
DA:12615,0
DA:12616,0
DA:12618,0
DA:12619,0
DA:12622,0
DA:12623,0
DA:12626,0
DA:12627,0
DA:12628,0
DA:12630,0
DA:12631,0
DA:12639,0
DA:12641,0
DA:12642,0
DA:12645,0
DA:12646,0
DA:12647,0
DA:12648,0
DA:12649,0
DA:12650,0
DA:12651,0
DA:12657,0
DA:12660,0
DA:12661,0
DA:12663,0
DA:12666,0
DA:12668,0
DA:12670,0
DA:12671,0
DA:12674,0
DA:12675,0
DA:12676,0
DA:12678,0
DA:12679,0
DA:12680,0
DA:12681,0
DA:12684,0
DA:12685,0
DA:12691,0
DA:12692,0
DA:12693,0
DA:12694,0
DA:12695,0
DA:12697,0
DA:12700,0
DA:12701,0
DA:12703,0
DA:12704,0
DA:12705,0
DA:12707,0
DA:12710,1
DA:12711,1
DA:12712,1
DA:12713,1
DA:12714,1
DA:12715,1
DA:12716,5
DA:12718,1
DA:12719,1
DA:12720,1
DA:12721,1
DA:12722,1
DA:12724,1
DA:12725,1
DA:12726,1
DA:12728,1
DA:12729,1
DA:12730,1
DA:12732,1
DA:12733,1
DA:12734,1
DA:12736,59
DA:12737,59
DA:12739,59
DA:12740,59
DA:12742,59
DA:12744,59
DA:12746,59
DA:12748,59
DA:12749,59
DA:12750,59
DA:12752,59
DA:12753,59
DA:12754,59
DA:12755,59
DA:12757,59
DA:12758,59
DA:12759,0
DA:12760,0
DA:12761,0
DA:12763,59
DA:12764,118
DA:12768,59
DA:12770,59
DA:12771,59
DA:12773,118
DA:12774,59
DA:12776,0
DA:12777,0
DA:12780,0
DA:12781,0
DA:12784,40
DA:12785,40
DA:12786,40
DA:12787,40
DA:12788,0
DA:12789,0
DA:12790,0
DA:12791,0
DA:12793,0
DA:12796,0
DA:12801,40
DA:12803,40
DA:12804,40
DA:12807,40
DA:12808,40
DA:12809,40
DA:12810,122
DA:12811,122
DA:12812,122
DA:12813,122
DA:12815,0
DA:12816,0
DA:12817,0
DA:12818,0
DA:12819,0
DA:12821,0
DA:12823,0
DA:12825,0
DA:12827,0
DA:12829,0
DA:12831,0
DA:12832,0
DA:12833,0
DA:12834,0
DA:12837,59
DA:12838,59
DA:12839,59
DA:12840,0
DA:12841,0
DA:12842,0
DA:12843,0
DA:12844,0
DA:12845,0
DA:12846,0
DA:12849,0
DA:12850,0
DA:12851,0
DA:12853,0
DA:12854,0
DA:12855,0
DA:12858,0
DA:12859,0
DA:12860,0
DA:12861,0
DA:12863,0
DA:12864,0
DA:12865,0
DA:12867,0
DA:12868,0
DA:12870,0
DA:12871,0
DA:12888,0
DA:12889,0
DA:12890,0
DA:12892,0
DA:12893,0
DA:12894,0
DA:12896,0
DA:12897,0
DA:12898,0
DA:12900,0
DA:12901,0
DA:12902,0
DA:12903,0
DA:12906,0
DA:12907,0
DA:12910,0
DA:12911,0
DA:12912,0
DA:12914,0
DA:12916,0
DA:12920,0
DA:12921,0
DA:12922,0
DA:12924,0
DA:12926,0
DA:12929,0
DA:12930,0
DA:12932,0
DA:12933,0
DA:12934,0
DA:12935,0
DA:12937,0
DA:12939,0
DA:12940,0
DA:12941,0
DA:12942,0
DA:12944,0
DA:12945,0
DA:12947,0
DA:12948,0
DA:12949,0
DA:12950,0
DA:12952,0
DA:12953,0
DA:12956,82
DA:12957,82
DA:12958,82
DA:12959,82
DA:12960,82
DA:12961,82
DA:12963,120
DA:12964,120
DA:12967,59
DA:12968,59
DA:12969,59
DA:12970,59
DA:12971,59
DA:12972,59
DA:12973,59
DA:12974,59
DA:12976,59
DA:12978,59
DA:12980,59
DA:12982,0
DA:12984,0
DA:12985,0
DA:12991,0
DA:12992,59
DA:12993,59
DA:12995,59
DA:12996,0
DA:12998,0
DA:13001,0
DA:13002,0
DA:13003,0
DA:13005,0
DA:13006,59
DA:13007,59
DA:13009,59
DA:13010,59
DA:13011,59
DA:13012,59
DA:13014,59
DA:13015,59
DA:13016,59
DA:13018,59
DA:13019,59
DA:13020,59
DA:13021,59
DA:13023,59
DA:13026,118
DA:13027,59
DA:13028,59
DA:13029,0
DA:13030,0
DA:13031,59
DA:13032,59
DA:13034,82
DA:13039,82
DA:13041,82
DA:13042,82
DA:13044,82
DA:13045,82
DA:13046,82
DA:13049,0
DA:13053,0
DA:13054,0
DA:13056,82
DA:13057,0
DA:13063,0
DA:13064,0
DA:13066,0
DA:13067,0
DA:13069,0
DA:13070,0
DA:13072,0
DA:13078,0
DA:13080,0
DA:13082,0
DA:13083,0
DA:13084,0
DA:13085,0
DA:13086,0
DA:13087,0
DA:13088,0
DA:13089,0
DA:13093,0
DA:13094,0
DA:13096,0
DA:13101,0
DA:13103,0
DA:13104,0
DA:13105,0
DA:13106,0
DA:13107,0
DA:13108,0
DA:13110,0
DA:13111,0
DA:13112,0
DA:13113,0
DA:13115,0
DA:13118,0
DA:13120,0
DA:13121,0
DA:13122,0
DA:13123,0
DA:13124,0
DA:13125,40
DA:13130,40
DA:13132,40
DA:13133,40
DA:13134,40
DA:13136,40
DA:13137,0
DA:13138,40
DA:13140,122
DA:13141,122
DA:13142,122
DA:13144,0
DA:13147,60
DA:13148,60
DA:13149,0
DA:13150,0
DA:13152,60
DA:13154,0
DA:13155,0
DA:13164,0
DA:13165,0
DA:13166,0
DA:13168,0
DA:13169,0
DA:13171,0
DA:13172,0
DA:13173,0
DA:13174,0
DA:13175,0
DA:13177,0
DA:13178,0
DA:13179,0
DA:13182,0
DA:13183,0
DA:13192,59
DA:13194,59
DA:13195,59
DA:13196,59
DA:13197,59
DA:13226,1
DA:13227,1
DA:13228,0
DA:13229,1
DA:13230,1
DA:13231,1
DA:13232,1
DA:13294,1
DA:13295,1
DA:13296,1
DA:13298,1
DA:13299,0
DA:13301,1
DA:13302,1
DA:13303,1
DA:13311,0
DA:13312,0
DA:13313,0
DA:13314,0
DA:13315,0
DA:13317,0
DA:13318,0
DA:13319,0
DA:13323,1
DA:13324,1
DA:13325,1
DA:13327,1
DA:13328,1
DA:13329,1
DA:13331,1
DA:13332,60
DA:13333,59
DA:13334,59
DA:13336,0
DA:13337,0
DA:13339,1
DA:13341,1
DA:13342,1
DA:13343,1
DA:13344,1
DA:13345,60
DA:13346,59
DA:13347,59
DA:13349,0
DA:13352,1
DA:13353,0
DA:13354,0
DA:13355,0
DA:13359,1
DA:13360,0
DA:13361,0
DA:13364,1
DA:13365,1
DA:13377,0
DA:13378,0
DA:13379,0
DA:13380,0
DA:13382,0
DA:13383,0
DA:13384,0
DA:13385,0
DA:13386,0
DA:13389,0
DA:13390,0
DA:13391,0
DA:13394,0
DA:13395,0
DA:13396,0
DA:13397,0
DA:13401,1
DA:13403,1
DA:13404,0
DA:13405,0
DA:13410,1
DA:13411,1
DA:13412,0
DA:13413,0
DA:13415,0
DA:13416,0
DA:13417,0
DA:13419,0
DA:13421,0
DA:13422,0
DA:13423,0
DA:13424,0
DA:13426,0
DA:13429,1
DA:13430,1
DA:13431,1
DA:13432,1
DA:13433,1
DA:13434,1
DA:13436,0
DA:13437,0
DA:13438,0
DA:13439,0
DA:13440,0
DA:13441,0
DA:13442,0
DA:13443,0
DA:13444,0
DA:13445,0
DA:13446,0
DA:13447,0
DA:13448,0
DA:13450,1
DA:13451,1
DA:13452,0
DA:13454,1
DA:13455,1
DA:13456,0
DA:13457,0
DA:13459,0
DA:13460,0
DA:13461,0
DA:13462,0
DA:13463,0
DA:13464,0
DA:13467,1
DA:13468,0
DA:13469,1
DA:13470,0
DA:13471,1
DA:13472,1
DA:13473,1
DA:13499,0
DA:13500,0
DA:13501,0
DA:13502,0
DA:13504,1
DA:13505,1
DA:13506,0
DA:13507,0
DA:13509,1
DA:13510,1
DA:13511,0
DA:13512,0
DA:13514,1
DA:13517,0
DA:13518,0
DA:13520,0
DA:13521,0
DA:13522,0
DA:13523,0
DA:13524,0
DA:13526,1
DA:13527,1
DA:13528,1
DA:13529,1
DA:13532,1
DA:13533,1
DA:13534,0
DA:13536,1
DA:13537,0
DA:13541,1
DA:13543,1
DA:13545,1
DA:13546,0
DA:13549,1
DA:13550,1
DA:13552,1
DA:13553,1
DA:13555,1
DA:13556,0
DA:13561,1
DA:13562,1
DA:13564,0
DA:13565,0
DA:13566,0
DA:13567,0
DA:13580,3
DA:13582,3
DA:13583,2
DA:13584,3
DA:13588,1
DA:13590,1
DA:13591,1
DA:13592,1
DA:13593,2
DA:13594,2
DA:13595,3
DA:13596,1
DA:13597,2
DA:13598,2
DA:13599,2
DA:13607,0
DA:13609,0
DA:13610,0
DA:13612,0
DA:13614,0
DA:13616,1
DA:13617,1
DA:13634,1
DA:13643,0
DA:13644,0
DA:13645,0
DA:13647,0
DA:13648,0
DA:13649,0
DA:13652,0
DA:13653,0
DA:13655,0
DA:13656,0
DA:13657,0
DA:13659,0
DA:13661,0
DA:13664,0
DA:13665,0
DA:13666,0
DA:13667,0
DA:13669,0
DA:13677,0
DA:13678,0
DA:13679,0
DA:13687,0
DA:13688,0
DA:13689,0
DA:13690,0
DA:13691,0
DA:13693,0
DA:13694,0
DA:13705,1
DA:13706,2
DA:13709,9
DA:13718,0
DA:13719,0
DA:13720,0
DA:13721,0
DA:13723,0
DA:13726,0
DA:13733,1
DA:13734,1
DA:13735,1
DA:13736,0
DA:13737,0
DA:13738,0
DA:13740,0
DA:13743,0
DA:13752,0
DA:13753,0
DA:13754,0
DA:13755,0
DA:13758,0
DA:13759,0
DA:13760,0
DA:13764,0
DA:13765,0
DA:13766,0
DA:13767,0
DA:13770,0
DA:13771,0
DA:13772,0
DA:13773,0
DA:13775,0
DA:13776,0
DA:13777,0
DA:13778,0
DA:13779,0
DA:13781,0
DA:13782,0
DA:13788,1
DA:13789,0
DA:13790,0
DA:13805,957
DA:13806,957
DA:13810,0
DA:13811,0
DA:13813,247
DA:13814,247
DA:13816,0
DA:13817,0
DA:13819,0
DA:13820,0
DA:13822,0
DA:13823,0
DA:13825,47
DA:13826,47
DA:13827,47
DA:13828,47
DA:13829,47
DA:13830,47
DA:13831,47
DA:13832,0
DA:13833,118
DA:13835,118
DA:13836,118
DA:13838,118
DA:13841,0
DA:13842,0
DA:13843,0
DA:13845,0
DA:13846,0
DA:13847,0
DA:13848,0
DA:13850,0
DA:13853,0
DA:13854,0
DA:13855,0
DA:13856,0
DA:13857,0
DA:13858,0
DA:13859,0
DA:13860,0
DA:13862,0
DA:13864,0
DA:13867,0
DA:13868,0
DA:13869,0
DA:13870,0
DA:13871,0
DA:13872,0
DA:13873,0
DA:13874,0
DA:13877,0
DA:13878,0
DA:13879,0
DA:13880,0
DA:13882,2
DA:13883,2
DA:13884,2
DA:13885,2
DA:13887,2
DA:13888,2
DA:13889,2
DA:13890,2
DA:13891,2
DA:13904,352
DA:13905,352
DA:13906,352
DA:13908,0
DA:13909,0
DA:13910,0
DA:13912,0
DA:13913,0
DA:13916,0
DA:13917,0
DA:13918,0
DA:13920,0
DA:13923,0
DA:13924,0
DA:13925,0
DA:13928,0
DA:13929,0
DA:13932,0
DA:13933,0
DA:13934,0
DA:13942,0
DA:13949,0
DA:13951,0
DA:13952,0
DA:13954,0
DA:13955,0
DA:13956,0
DA:13966,1
DA:13968,0
DA:13969,0
DA:13970,0
DA:13971,0
DA:13973,0
DA:13976,0
DA:13977,0
DA:13978,0
DA:13979,0
DA:13980,0
DA:13981,0
DA:13982,0
DA:13983,0
DA:13986,0
DA:13987,0
DA:13989,0
DA:13990,0
DA:13993,0
DA:13997,0
DA:13999,1
DA:14001,1
DA:14002,1
DA:14017,141
DA:14018,282
DA:14019,141
DA:14020,0
DA:14021,141
DA:14022,0
DA:14023,141
DA:14024,0
DA:14025,141
DA:14026,0
DA:14027,141
DA:14028,0
DA:14029,141
DA:14030,0
DA:14032,141
DA:14034,47
DA:14035,47
DA:14037,47
DA:14038,47
DA:14042,47
DA:14045,59
DA:14050,59
DA:14053,59
DA:14054,59
DA:14055,59
DA:14056,1110
DA:14057,1051
DA:14058,47
DA:14059,47
DA:14061,0
DA:14064,1004
DA:14065,47
DA:14066,47
DA:14067,0
DA:14068,47
DA:14069,47
DA:14074,47
DA:14075,0
DA:14077,47
DA:14078,47
DA:14079,47
DA:14082,957
DA:14085,59
DA:14087,0
DA:14090,59
DA:14091,118
DA:14092,59
DA:14094,59
DA:14095,59
DA:14096,118
DA:14097,59
DA:14099,106
DA:14100,47
DA:14101,47
DA:14102,47
DA:14103,47
DA:14104,59
DA:14105,59
DA:14107,59
DA:14111,59
DA:14112,59
DA:14113,59
DA:14114,59
DA:14115,59
DA:14116,59
DA:14118,59
DA:14119,59
DA:14121,59
DA:14122,59
DA:14124,0
DA:14125,0
DA:14127,0
DA:14128,0
DA:14130,59
DA:14131,59
DA:14134,0
DA:14135,0
DA:14137,0
DA:14138,0
DA:14139,0
DA:14141,0
DA:14142,0
DA:14143,0
DA:14144,0
DA:14145,0
DA:14148,0
DA:14149,0
DA:14151,59
DA:14153,0
DA:14154,0
DA:14155,0
DA:14156,0
DA:14157,0
DA:14159,59
DA:14160,59
DA:14161,59
DA:14163,0
DA:14164,0
DA:14165,0
DA:14166,0
DA:14169,403
DA:14170,403
DA:14173,177
DA:14175,177
DA:14191,0
DA:14192,0
DA:14194,0
DA:14196,0
DA:14197,0
DA:14198,0
DA:14199,0
DA:14200,0
DA:14202,0
DA:14203,0
DA:14204,0
DA:14205,0
DA:14206,0
DA:14214,1
DA:14215,1
DA:14216,1
DA:14218,1
DA:14220,0
DA:14221,0
DA:14222,0
DA:14223,0
DA:14224,0
DA:14226,0
DA:14227,0
DA:14228,0
DA:14231,0
DA:14232,0
DA:14234,0
DA:14235,0
DA:14238,0
DA:14239,0
DA:14240,0
DA:14241,0
DA:14243,0
DA:14246,0
DA:14247,0
DA:14249,0
DA:14250,0
DA:14253,0
DA:14254,0
DA:14256,1
DA:14259,0
DA:14260,0
DA:14263,0
DA:14264,0
DA:14267,1
DA:14268,1
DA:14269,60
DA:14270,59
DA:14271,59
DA:14276,1
DA:14278,0
DA:14279,0
DA:14280,0
DA:14281,0
DA:14282,0
DA:14283,0
DA:14284,0
DA:14287,0
DA:14288,0
DA:14289,1
DA:14290,1
DA:14293,59
DA:14294,59
DA:14295,59
DA:14296,0
DA:14297,0
DA:14298,0
DA:14299,0
DA:14300,59
DA:14301,59
DA:14303,0
DA:14304,0
DA:14306,1
DA:14307,1
DA:14308,1
DA:14310,1
DA:14311,1
DA:14312,1
DA:14314,1
DA:14318,12
DA:14320,12
DA:14321,12
DA:14322,12
DA:14324,59
DA:14325,59
DA:14326,59
DA:14328,0
DA:14329,0
DA:14330,0
DA:14331,0
DA:14332,0
DA:14334,59
DA:14335,0
DA:14355,118
DA:14356,118
DA:14357,118
DA:14358,118
DA:14360,118
DA:14362,59
DA:14363,118
DA:14364,59
DA:14365,59
DA:14366,59
DA:14369,0
DA:14370,0
DA:14371,0
DA:14372,0
DA:14373,0
DA:14375,59
DA:14376,59
DA:14377,59
DA:14378,59
DA:14379,59
DA:14380,59
DA:14381,59
DA:14383,59
DA:14384,59
DA:14386,118
DA:14387,118
DA:14389,118
DA:14390,118
DA:14391,118
DA:14393,118
DA:14395,118
DA:14396,118
DA:14397,118
DA:14399,59
DA:14400,59
DA:14402,59
DA:14403,59
DA:14405,0
DA:14406,0
DA:14408,0
DA:14409,0
DA:14412,59
DA:14413,59
DA:14414,59
DA:14416,59
DA:14417,59
DA:14418,0
DA:14420,0
DA:14421,0
DA:14423,118
DA:14424,59
DA:14425,118
DA:14427,0
DA:14428,0
DA:14429,0
DA:14432,59
DA:14433,59
DA:14434,59
DA:14435,59
DA:14436,0
DA:14438,59
DA:14440,0
DA:14441,0
DA:14443,59
DA:14444,59
DA:14445,59
DA:14446,59
DA:14447,59
DA:14448,59
DA:14450,59
DA:14453,59
DA:14454,0
DA:14456,59
DA:14457,0
DA:14458,0
DA:14460,59
DA:14461,59
DA:14462,59
DA:14463,0
DA:14464,0
DA:14465,0
DA:14466,0
DA:14468,0
DA:14471,0
DA:14473,0
DA:14474,0
DA:14476,59
DA:14477,59
DA:14478,59
DA:14479,0
DA:14480,0
DA:14481,0
DA:14482,0
DA:14483,0
DA:14484,0
DA:14485,0
DA:14486,0
DA:14487,0
DA:14488,0
DA:14490,59
DA:14491,59
DA:14492,59
DA:14493,59
DA:14494,59
DA:14495,59
DA:14496,59
DA:14498,118
DA:14500,118
DA:14502,118
DA:14503,59
DA:14504,0
DA:14506,59
DA:14507,59
DA:14509,118
DA:14511,59
DA:14512,59
DA:14514,59
DA:14515,0
DA:14516,59
DA:14517,59
DA:14519,59
DA:14522,118
DA:14524,59
DA:14525,59
DA:14527,59
DA:14528,59
DA:14529,0
DA:14530,0
DA:14531,0
DA:14534,59
DA:14535,59
DA:14536,59
DA:14537,59
DA:14538,59
DA:14539,118
DA:14540,59
DA:14542,59
DA:14543,59
DA:14544,59
DA:14545,59
DA:14547,59
DA:14548,59
DA:14549,0
DA:14550,0
DA:14551,0
DA:14552,0
DA:14554,59
DA:14555,59
DA:14556,59
DA:14557,0
DA:14558,59
DA:14560,0
DA:14561,0
DA:14564,0
DA:14565,0
DA:14584,12
DA:14585,12
DA:14588,59
DA:14590,59
DA:14592,59
DA:14593,59
DA:14594,118
DA:14596,118
DA:14599,0
DA:14601,0
DA:14602,0
DA:14603,59
DA:14605,59
DA:14617,0
DA:14618,0
DA:14619,0
DA:14621,0
DA:14623,0
DA:14624,0
DA:14627,0
DA:14629,0
DA:14630,0
DA:14632,0
DA:14633,0
DA:14636,0
DA:14638,0
DA:14639,0
DA:14641,0
DA:14642,0
DA:14643,0
DA:14644,0
DA:14647,0
DA:14649,0
DA:14650,0
DA:14652,0
DA:14653,0
DA:14656,0
DA:14657,0
DA:14660,0
DA:14661,0
DA:14662,0
DA:14663,0
DA:14664,0
DA:14665,0
DA:14667,1
DA:14668,1
DA:14671,0
DA:14672,0
DA:14675,1
DA:14677,1
DA:14678,1
DA:14679,0
DA:14680,0
DA:14681,0
DA:14682,0
DA:14683,0
DA:14684,0
DA:14685,1
DA:14686,0
DA:14688,2
DA:14689,2
DA:14698,1
DA:14700,0
DA:14701,0
DA:14702,0
DA:14703,0
DA:14704,0
DA:14705,0
DA:14706,0
DA:14707,0
DA:14709,0
DA:14711,0
DA:14712,0
DA:14713,0
DA:14715,0
DA:14716,0
DA:14718,1
DA:14719,1
DA:14720,1
DA:14722,0
DA:14723,0
DA:14724,0
DA:14725,0
DA:14726,0
DA:14727,0
DA:14728,0
DA:14731,0
DA:14732,0
DA:14733,0
DA:14734,0
DA:14735,0
DA:14736,0
DA:14737,0
DA:14738,0
DA:14739,0
DA:14740,0
DA:14741,0
DA:14742,0
DA:14743,0
DA:14746,0
DA:14747,0
DA:14748,0
DA:14751,0
DA:14752,0
DA:14753,0
DA:14754,0
DA:14756,0
DA:14760,0
DA:14761,0
DA:14762,0
DA:14763,0
DA:14764,0
DA:14765,0
DA:14766,0
DA:14767,0
DA:14768,0
DA:14769,0
DA:14770,0
DA:14771,0
DA:14772,0
DA:14773,0
DA:14774,0
DA:14775,0
DA:14778,0
DA:14779,0
DA:14780,0
DA:14781,0
DA:14783,0
DA:14784,0
DA:14786,0
DA:14787,0
DA:14788,0
DA:14789,0
DA:14790,0
DA:14791,0
DA:14792,0
DA:14794,0
DA:14795,0
DA:14796,0
DA:14797,0
DA:14798,0
DA:14799,0
DA:14801,0
DA:14802,0
DA:14803,0
DA:14804,0
DA:14805,0
DA:14806,0
DA:14807,0
DA:14809,0
DA:14812,0
DA:14813,0
DA:14814,0
DA:14815,0
DA:14816,0
DA:14817,0
DA:14818,0
DA:14819,0
DA:14820,0
DA:14821,0
DA:14822,0
DA:14823,0
DA:14824,0
DA:14825,0
DA:14826,0
DA:14827,0
DA:14828,0
DA:14829,0
DA:14830,0
DA:14834,1
DA:14835,1
DA:14836,0
DA:14837,0
DA:14839,1
DA:14841,0
DA:14842,0
DA:14843,0
DA:14845,0
DA:14846,0
DA:14847,0
DA:14849,0
DA:14850,0
DA:14852,0
DA:14853,0
DA:14854,0
DA:14855,0
DA:14856,0
DA:14857,0
DA:14859,0
DA:14860,0
DA:14861,0
DA:14864,0
DA:14865,0
DA:14866,0
DA:14867,0
DA:14868,0
DA:14869,0
DA:14870,0
DA:14871,0
DA:14874,0
DA:14875,0
DA:14877,0
DA:14878,0
DA:14880,0
DA:14881,0
DA:14883,0
DA:14884,0
DA:14885,0
DA:14886,0
DA:14887,0
DA:14888,0
DA:14889,0
DA:14890,0
DA:14891,0
DA:14892,0
DA:14894,0
DA:14895,0
DA:14897,0
DA:14900,0
DA:14901,0
DA:14902,0
DA:14903,0
DA:14904,0
DA:14906,0
DA:14907,0
DA:14909,0
DA:14911,0
DA:14912,0
DA:14914,0
DA:14915,0
DA:14916,0
DA:14917,0
DA:14918,0
DA:14919,0
DA:14921,0
DA:14922,0
DA:14935,118
DA:14936,118
DA:14940,0
DA:14941,0
DA:14944,0
DA:14946,0
DA:14949,0
DA:14951,0
DA:14952,0
DA:14954,0
DA:14955,0
DA:14960,0
DA:14961,0
DA:14967,0
DA:14970,0
DA:14971,0
DA:14972,0
DA:14975,59
DA:14976,59
DA:14977,59
DA:14978,59
DA:14979,59
DA:14981,59
DA:14982,59
DA:14984,0
DA:14985,0
DA:14987,59
DA:14988,59
DA:15021,0
DA:15022,0
DA:15025,0
DA:15026,0
DA:15031,0
DA:15033,0
DA:15034,0
DA:15035,0
DA:15036,0
DA:15039,0
DA:15040,0
DA:15041,0
DA:15042,0
DA:15043,0
DA:15044,0
DA:15045,0
DA:15049,0
DA:15050,0
DA:15051,0
DA:15054,0
DA:15055,0
DA:15056,0
DA:15057,0
DA:15058,0
DA:15059,0
DA:15060,0
DA:15061,0
DA:15062,0
DA:15063,0
DA:15065,0
DA:15066,0
DA:15074,0
DA:15075,0
DA:15076,0
DA:15079,0
DA:15080,0
DA:15081,0
DA:15082,0
DA:15083,0
DA:15084,0
DA:15085,0
DA:15086,0
DA:15087,0
DA:15088,0
DA:15089,0
DA:15090,0
DA:15093,0
DA:15094,0
DA:15095,0
DA:15103,0
DA:15104,0
DA:15105,0
DA:15107,0
DA:15110,0
DA:15111,0
DA:15112,0
DA:15114,0
DA:15119,0
DA:15120,0
DA:15121,0
DA:15122,0
DA:15123,0
DA:15125,0
DA:15126,0
DA:15134,0
DA:15135,0
DA:15136,0
DA:15138,0
DA:15141,0
DA:15142,0
DA:15143,0
DA:15145,0
DA:15157,0
DA:15158,0
DA:15160,0
DA:15161,0
DA:15163,0
DA:15164,0
DA:15165,0
DA:15166,0
DA:15167,0
DA:15169,0
DA:15170,0
DA:15172,0
DA:15173,0
DA:15175,0
DA:15176,0
DA:15178,0
DA:15179,0
DA:15180,0
DA:15181,0
DA:15182,0
DA:15184,0
DA:15185,0
DA:15187,0
DA:15188,0
DA:15191,0
DA:15192,0
DA:15193,0
DA:15194,0
DA:15195,0
DA:15196,0
DA:15197,0
DA:15198,0
DA:15199,0
DA:15200,0
DA:15201,0
DA:15203,0
DA:15204,0
DA:15205,0
DA:15208,0
DA:15209,0
DA:15211,0
DA:15212,0
DA:15215,0
DA:15216,0
DA:15221,0
DA:15222,0
DA:15227,0
DA:15228,0
DA:15231,0
DA:15232,0
DA:15233,0
DA:15234,0
DA:15235,0
DA:15236,0
DA:15249,177
DA:15250,177
DA:15251,177
DA:15252,177
DA:15253,177
DA:15254,177
DA:15257,177
DA:15258,177
DA:15259,177
DA:15260,177
DA:15261,177
DA:15264,65
DA:15265,65
DA:15267,2
DA:15268,2
DA:15270,0
DA:15271,0
DA:15274,59
DA:15275,59
DA:15276,59
DA:15277,59
DA:15278,59
DA:15281,59
DA:15282,59
DA:15283,59
DA:15284,59
DA:15287,59
DA:15288,59
DA:15289,59
DA:15290,0
DA:15291,59
DA:15292,0
DA:15294,59
DA:15295,59
DA:15340,0
DA:15346,0
DA:15357,0
DA:15362,0
DA:15363,0
DA:15364,0
DA:15365,0
DA:15366,0
DA:15367,0
DA:15368,0
DA:15370,0
DA:15371,0
DA:15372,0
DA:15373,0
DA:15375,0
DA:15376,0
DA:15377,0
DA:15379,0
DA:15382,0
DA:15383,0
DA:15384,0
DA:15393,0
DA:15394,0
DA:15395,0
DA:15396,0
DA:15398,0
DA:15399,0
DA:15400,0
DA:15402,0
DA:15403,0
DA:15404,0
DA:15406,0
DA:15408,0
DA:15409,0
DA:15410,0
DA:15411,0
DA:15412,0
DA:15413,0
DA:15414,0
DA:15415,0
DA:15416,0
DA:15417,0
DA:15418,0
DA:15419,0
DA:15423,0
DA:15424,0
DA:15437,0
DA:15438,0
DA:15439,0
DA:15441,0
DA:15442,0
DA:15444,0
DA:15445,0
DA:15447,0
DA:15450,0
DA:15451,0
DA:15452,0
DA:15454,0
DA:15455,0
DA:15457,0
DA:15458,0
DA:15460,0
DA:15463,0
DA:15464,0
DA:15465,0
DA:15466,0
DA:15467,0
DA:15468,0
DA:15469,0
DA:15471,0
DA:15472,0
DA:15475,0
DA:15476,0
DA:15481,0
DA:15485,0
DA:15488,0
DA:15492,0
DA:15495,0
DA:15496,0
DA:15497,0
DA:15498,0
DA:15500,0
DA:15504,0
DA:15505,0
DA:15506,0
DA:15507,0
DA:15508,0
DA:15510,0
DA:15512,0
DA:15513,0
DA:15515,0
DA:15516,0
DA:15518,0
DA:15519,0
DA:15520,0
DA:15522,0
DA:15523,0
DA:15525,0
DA:15530,0
DA:15531,0
DA:15532,0
DA:15536,0
DA:15537,0
DA:15538,0
DA:15547,0
DA:15549,0
DA:15550,0
DA:15553,0
DA:15555,0
DA:15556,0
DA:15557,0
DA:15562,0
DA:15563,0
DA:15564,0
DA:15565,0
DA:15566,0
DA:15567,0
DA:15570,0
DA:15572,0
DA:15574,0
DA:15575,0
DA:15576,0
DA:15580,0
DA:15581,0
DA:15585,0
DA:15586,0
DA:15588,0
DA:15589,0
DA:15592,0
DA:15594,0
DA:15595,0
DA:15596,0
DA:15599,0
DA:15600,0
DA:15601,0
DA:15602,0
DA:15604,0
DA:15605,0
DA:15606,0
DA:15608,0
DA:15609,0
DA:15610,0
DA:15611,0
DA:15612,0
DA:15613,0
DA:15615,0
DA:15616,0
DA:15617,0
DA:15618,0
DA:15619,0
DA:15622,0
DA:15623,0
DA:15624,0
DA:15626,0
DA:15628,0
DA:15629,0
DA:15630,0
DA:15633,0
DA:15635,0
DA:15636,0
DA:15638,0
DA:15639,0
DA:15640,0
DA:15642,0
DA:15643,0
DA:15645,0
DA:15646,0
DA:15647,0
DA:15648,0
DA:15649,0
DA:15650,0
DA:15652,0
DA:15653,0
DA:15654,0
DA:15655,0
DA:15656,0
DA:15659,0
DA:15660,0
DA:15661,0
DA:15662,0
DA:15663,0
DA:15665,0
DA:15666,0
DA:15668,0
DA:15669,0
DA:15670,0
DA:15672,0
DA:15673,0
DA:15674,0
DA:15676,0
DA:15678,0
DA:15679,0
DA:15680,0
DA:15681,0
DA:15684,0
DA:15685,0
DA:15686,0
DA:15687,0
DA:15690,0
DA:15691,0
DA:15692,0
DA:15695,0
DA:15696,0
DA:15697,0
DA:15698,0
DA:15699,0
DA:15700,0
DA:15702,0
DA:15703,0
DA:15705,0
DA:15708,0
DA:15709,0
DA:15710,0
DA:15711,0
DA:15713,0
DA:15714,0
DA:15715,0
DA:15718,0
DA:15719,0
DA:15720,0
DA:15722,0
DA:15723,0
DA:15724,0
DA:15725,0
DA:15728,0
DA:15729,0
DA:15730,0
DA:15731,0
DA:15732,0
DA:15734,0
DA:15736,0
DA:15737,0
DA:15738,0
DA:15740,0
DA:15741,0
DA:15742,0
DA:15744,0
DA:15745,0
DA:15746,0
DA:15747,0
DA:15749,0
DA:15761,0
DA:15762,0
DA:15763,0
DA:15767,0
DA:15772,0
DA:15776,0
DA:15780,0
DA:15782,0
DA:15783,0
DA:15785,59
DA:15786,59
DA:15787,0
DA:15789,59
DA:15790,0
DA:15792,59
DA:15793,59
DA:15796,0
DA:15797,0
DA:15798,0
DA:15799,0
DA:15801,0
DA:15802,0
DA:15804,0
DA:15806,0
DA:15808,0
DA:15809,0
DA:15811,0
DA:15812,0
DA:15814,0
DA:15815,0
DA:15818,0
DA:15820,0
DA:15821,0
DA:15834,0
DA:15835,0
DA:15839,0
DA:15841,0
DA:15842,0
DA:15843,0
DA:15856,0
DA:15857,0
DA:15858,0
DA:15859,0
DA:15860,0
DA:15862,0
DA:15863,0
DA:15865,0
DA:15866,0
DA:15867,0
DA:15868,0
DA:15869,0
DA:15871,0
DA:15872,0
DA:15873,0
DA:15874,0
DA:15875,0
DA:15877,0
DA:15878,0
DA:15879,0
DA:15880,0
DA:15882,0
DA:15883,0
DA:15884,0
DA:15885,0
DA:15886,0
DA:15893,0
DA:15894,0
DA:15895,0
DA:15896,0
DA:15897,0
DA:15898,0
DA:15900,0
DA:15901,0
DA:15903,0
DA:15905,0
DA:15906,0
DA:15907,0
DA:15908,0
DA:15909,0
DA:15910,0
DA:15911,0
DA:15913,0
DA:15914,0
DA:15915,0
DA:15916,0
DA:15917,0
DA:15919,0
DA:15920,0
DA:15921,0
DA:15922,0
DA:15923,0
DA:15924,0
DA:15925,0
DA:15926,0
DA:15927,0
DA:15928,0
DA:15929,0
DA:15930,0
DA:15931,0
DA:15932,0
DA:15933,0
DA:15934,0
DA:15935,0
DA:15936,0
DA:15937,0
DA:15938,0
DA:15939,0
DA:15940,0
DA:15941,0
DA:15942,0
DA:15943,0
DA:15944,0
DA:15945,0
DA:15946,0
DA:15947,0
DA:15948,0
DA:15949,0
DA:15950,0
DA:15951,0
DA:15952,0
DA:15953,0
DA:15954,0
DA:15955,0
DA:15956,0
DA:15957,0
DA:15958,0
DA:15960,0
DA:15963,0
DA:15964,0
DA:15966,0
DA:15969,0
DA:15970,0
DA:15971,0
DA:15972,0
DA:15974,0
DA:15975,0
DA:15977,0
DA:15978,0
DA:15979,0
DA:15980,0
DA:15982,0
DA:15984,0
DA:15985,0
DA:15986,0
DA:15988,0
DA:15989,0
DA:15990,0
DA:15992,0
DA:15993,0
DA:15994,0
DA:15995,0
DA:15997,0
DA:15999,0
DA:16000,0
DA:16001,0
DA:16003,0
DA:16005,0
DA:16006,0
DA:16008,0
DA:16009,0
DA:16010,0
DA:16011,0
DA:16013,0
DA:16015,0
DA:16016,0
DA:16017,0
DA:16018,0
DA:16020,0
DA:16022,0
DA:16023,0
DA:16024,0
DA:16026,0
DA:16027,0
DA:16030,0
DA:16031,0
DA:16032,0
DA:16034,0
DA:16036,0
DA:16037,0
DA:16038,0
DA:16039,0
DA:16040,0
DA:16041,0
DA:16042,0
DA:16043,0
DA:16044,0
DA:16058,0
DA:16059,0
DA:16062,0
DA:16063,0
DA:16064,0
DA:16066,0
DA:16068,0
DA:16069,0
DA:16071,0
DA:16074,0
DA:16075,0
DA:16076,0
DA:16077,0
DA:16080,0
DA:16081,0
DA:16083,0
DA:16084,0
DA:16085,0
DA:16087,0
DA:16088,0
DA:16089,0
DA:16090,0
DA:16092,0
DA:16094,0
DA:16095,0
DA:16096,0
DA:16097,0
DA:16098,0
DA:16100,0
DA:16132,0
DA:16133,0
DA:16134,0
DA:16135,0
DA:16136,0
DA:16137,0
DA:16138,0
DA:16139,0
DA:16140,0
DA:16141,0
DA:16142,0
DA:16143,0
DA:16145,0
DA:16146,0
DA:16147,0
DA:16148,0
DA:16149,0
DA:16150,0
DA:16151,0
DA:16152,0
DA:16153,0
DA:16155,0
DA:16156,0
DA:16158,0
DA:16159,0
DA:16160,0
DA:16161,0
DA:16162,0
DA:16163,0
DA:16164,0
DA:16165,0
DA:16166,0
DA:16167,0
DA:16168,0
DA:16169,0
DA:16170,0
DA:16171,0
DA:16172,0
DA:16173,0
DA:16174,0
DA:16175,0
DA:16176,0
DA:16177,0
DA:16178,0
DA:16179,0
DA:16180,0
DA:16181,0
DA:16182,0
DA:16183,0
DA:16184,0
DA:16185,0
DA:16186,0
DA:16187,0
DA:16188,0
DA:16189,0
DA:16190,0
DA:16191,0
DA:16192,0
DA:16193,0
DA:16194,0
DA:16195,0
DA:16197,0
DA:16200,0
DA:16201,0
DA:16202,0
DA:16204,0
DA:16206,0
DA:16207,0
DA:16208,0
DA:16209,0
DA:16210,0
DA:16211,0
DA:16213,0
DA:16215,0
DA:16216,0
DA:16219,0
DA:16220,0
DA:16221,0
DA:16222,0
DA:16223,0
DA:16224,0
DA:16225,0
DA:16226,0
DA:16227,0
DA:16228,0
DA:16229,0
DA:16230,0
DA:16231,0
DA:16232,0
DA:16233,0
DA:16234,0
DA:16235,0
DA:16236,0
DA:16237,0
DA:16238,0
DA:16239,0
DA:16240,0
DA:16241,0
DA:16242,0
DA:16243,0
DA:16245,0
DA:16246,0
DA:16248,0
DA:16249,0
DA:16250,0
DA:16251,0
DA:16252,0
DA:16265,3
DA:16266,3
DA:16267,3
DA:16270,1
DA:16271,1
DA:16272,0
DA:16273,1
DA:16274,0
DA:16276,1
DA:16369,1
DA:16370,1
DA:16371,1
DA:16393,177
DA:16394,177
DA:16395,0
DA:16396,0
DA:16397,0
DA:16399,177
DA:16429,0
DA:16430,0
DA:16431,0
DA:16432,0
DA:16434,0
DA:16438,1
DA:16440,1
DA:16441,0
DA:16442,1
DA:16449,0
DA:16458,6
DA:16460,5
DA:16461,2
DA:16463,0
DA:16464,0
DA:16467,0
DA:16468,0
DA:16469,0
DA:16471,0
DA:16472,0
DA:16473,0
DA:16475,82
DA:16477,40
DA:16478,40
DA:16480,40
DA:16483,40
DA:16484,40
DA:16486,0
DA:16488,0
DA:16489,0
DA:16490,0
DA:16491,0
DA:16492,0
DA:16494,59
DA:16495,59
DA:16496,59
DA:16497,59
DA:16498,59
DA:16499,59
DA:16500,59
DA:16501,59
DA:16502,0
DA:16503,0
DA:16504,0
DA:16505,0
DA:16507,0
DA:16508,0
DA:16509,0
DA:16510,59
DA:16511,59
DA:16512,0
DA:16514,59
DA:16515,0
DA:16517,59
DA:16518,59
DA:16568,59
DA:16569,59
DA:16570,59
DA:16571,59
DA:16572,59
DA:16573,1
DA:16574,1
DA:16575,0
DA:16576,0
DA:16577,0
DA:16578,0
DA:16580,1
DA:16581,1
DA:16582,1
DA:16583,1
DA:16584,1
DA:16585,1
DA:16586,1
DA:16587,1
DA:16588,1
DA:16589,1
DA:16590,1
DA:16591,1
DA:16593,0
DA:16595,0
DA:16596,0
DA:16597,0
DA:16599,0
DA:16601,0
DA:16602,0
DA:16603,0
DA:16604,0
DA:16606,0
DA:16607,0
DA:16608,0
DA:16610,0
DA:16611,0
DA:16612,0
DA:16613,0
DA:16614,0
DA:16615,0
DA:16616,0
DA:16618,0
DA:16619,0
DA:16621,0
DA:16622,0
DA:16623,0
DA:16624,0
DA:16625,0
DA:16626,0
DA:16628,0
DA:16629,0
DA:16630,0
DA:16631,0
DA:16633,0
DA:16634,0
DA:16637,0
DA:16638,0
DA:16639,0
DA:16640,0
DA:16641,0
DA:16643,0
DA:16645,0
DA:16646,0
DA:16647,0
DA:16648,0
DA:16649,0
DA:16651,0
DA:16652,0
DA:16653,0
DA:16654,0
DA:16655,0
DA:16656,0
DA:16658,0
DA:16659,0
DA:16660,0
DA:16661,0
DA:16665,0
DA:16666,0
DA:16667,0
DA:16668,0
DA:16670,0
DA:16671,0
DA:16672,0
DA:16676,0
DA:16677,0
DA:16678,0
DA:16679,0
DA:16680,0
DA:16681,0
DA:16682,0
DA:16683,0
DA:16684,0
DA:16685,0
DA:16686,0
DA:16687,0
DA:16689,0
DA:16690,0
DA:16691,0
DA:16699,1
DA:16700,1
DA:16701,0
DA:16702,1
DA:16703,1
DA:16704,1
DA:16705,3
DA:16706,3
DA:16707,1
DA:16710,0
DA:16711,0
DA:16712,0
DA:16713,0
DA:16714,0
DA:16715,0
DA:16716,0
DA:16717,0
DA:16718,0
DA:16719,0
DA:16720,0
DA:16721,0
DA:16722,0
DA:16724,0
DA:16725,0
DA:16726,0
DA:16727,1
DA:16728,0
DA:16729,0
DA:16730,0
DA:16731,0
DA:16732,0
DA:16733,0
DA:16734,0
DA:16736,0
DA:16737,0
DA:16738,0
DA:16739,0
DA:16740,0
DA:16742,0
DA:16743,0
DA:16744,0
DA:16746,1
DA:16747,1
DA:16748,1
DA:16749,1
DA:16750,1
DA:16751,1
DA:16752,0
DA:16753,2
DA:16754,1
DA:16756,3
DA:16757,3
DA:16758,1
DA:16759,3
DA:16761,0
DA:16763,0
DA:16765,1
DA:16766,1
DA:16767,0
DA:16768,0
DA:16769,0
DA:16771,1
DA:16772,1
DA:16773,0
DA:16774,0
DA:16775,0
DA:16776,1
DA:16801,0
DA:16805,0
DA:16806,0
DA:16813,0
DA:16817,0
DA:16822,0
DA:16824,0
DA:16827,0
DA:16828,0
DA:16830,0
DA:16831,0
DA:16832,0
DA:16833,0
DA:16840,0
DA:16841,0
DA:16842,0
DA:16843,0
DA:16844,0
DA:16848,0
DA:16850,0
DA:16852,0
DA:16853,0
DA:16854,0
DA:16856,0
DA:16858,0
DA:16859,0
DA:16862,0
DA:16864,0
DA:16865,0
DA:16866,0
DA:16867,0
DA:16869,0
DA:16870,0
DA:16871,0
DA:16872,0
DA:16873,0
DA:16874,0
DA:16875,0
DA:16877,0
DA:16878,0
DA:16879,0
DA:16881,0
DA:16882,0
DA:16883,0
DA:16884,0
DA:16887,0
DA:16888,0
DA:16889,0
DA:16890,0
DA:16891,0
DA:16893,0
DA:16894,0
DA:16895,0
DA:16896,0
DA:16897,0
DA:16899,0
DA:16900,0
DA:16901,0
DA:16903,0
DA:16904,0
DA:16906,0
DA:16907,0
DA:16908,0
DA:16909,0
DA:16910,0
DA:16911,0
DA:16912,0
DA:16913,0
DA:16915,0
DA:16916,0
DA:16919,0
DA:16920,0
DA:16921,0
DA:16922,0
DA:16923,0
DA:16924,0
DA:16926,0
DA:16927,0
DA:16928,0
DA:16929,0
DA:16931,0
DA:16934,0
DA:16935,0
DA:16937,0
DA:16938,0
DA:16939,0
DA:16941,0
DA:16942,0
DA:16946,0
DA:16947,0
DA:16949,0
DA:16951,0
DA:16952,0
DA:16953,0
DA:16954,0
DA:16957,0
DA:16958,0
DA:16960,0
DA:16961,0
DA:16963,0
DA:16967,0
DA:16968,0
DA:16969,0
DA:16971,0
DA:16972,0
DA:16973,0
DA:16974,0
DA:16975,0
DA:16976,0
DA:16977,0
DA:16980,0
DA:16981,0
DA:16983,0
DA:16988,0
DA:16990,0
DA:16991,0
DA:16992,0
DA:16995,0
DA:16997,0
DA:16998,0
DA:16999,0
DA:17000,0
DA:17001,0
DA:17002,0
DA:17003,0
DA:17004,0
DA:17006,0
DA:17007,0
DA:17009,0
DA:17010,0
DA:17011,0
DA:17012,0
DA:17014,0
DA:17015,0
DA:17016,0
DA:17017,0
DA:17018,0
DA:17019,0
DA:17021,0
DA:17022,0
DA:17023,0
DA:17026,0
DA:17027,0
DA:17030,0
DA:17036,0
DA:17037,0
DA:17040,0
DA:17042,0
DA:17043,0
DA:17045,0
DA:17046,0
DA:17047,0
DA:17048,0
DA:17049,0
DA:17050,0
DA:17051,0
DA:17053,0
DA:17054,0
DA:17055,0
DA:17058,0
DA:17061,0
DA:17062,0
DA:17063,0
DA:17064,0
DA:17065,0
DA:17067,0
DA:17068,0
DA:17069,0
DA:17070,0
DA:17082,0
DA:17084,0
DA:17085,0
DA:17087,0
DA:17088,0
DA:17089,0
DA:17091,0
DA:17092,0
DA:17093,0
DA:17094,0
DA:17095,0
DA:17097,0
DA:17098,0
DA:17101,0
DA:17102,0
DA:17105,0
DA:17106,0
DA:17107,0
DA:17109,0
DA:17110,0
DA:17112,0
DA:17113,0
DA:17114,0
DA:17116,0
DA:17117,0
DA:17147,0
DA:17148,0
DA:17149,0
DA:17151,0
DA:17152,0
DA:17154,0
DA:17155,0
DA:17156,0
DA:17158,0
DA:17159,0
DA:17161,0
DA:17162,0
DA:17163,0
DA:17165,0
DA:17166,0
DA:17168,0
DA:17169,0
DA:17170,0
DA:17172,0
DA:17173,0
DA:17175,0
DA:17176,0
DA:17177,0
DA:17179,0
DA:17180,0
DA:17183,0
DA:17184,0
DA:17185,0
DA:17187,0
DA:17190,0
DA:17191,0
DA:17192,0
DA:17194,0
DA:17195,0
DA:17197,0
DA:17198,0
DA:17199,0
DA:17201,0
DA:17202,0
DA:17204,0
DA:17205,0
DA:17206,0
DA:17208,0
DA:17209,0
DA:17211,0
DA:17212,0
DA:17213,0
DA:17215,0
DA:17216,0
DA:17218,0
DA:17219,0
DA:17220,0
DA:17222,0
DA:17223,0
DA:17225,0
DA:17226,0
DA:17241,0
DA:17243,0
DA:17245,0
DA:17246,0
DA:17247,0
DA:17249,0
DA:17251,0
DA:17252,0
DA:17255,0
DA:17256,0
DA:17259,0
DA:17261,0
DA:17262,0
DA:17263,0
DA:17265,0
DA:17266,0
DA:17267,0
DA:17269,0
DA:17270,0
DA:17271,0
DA:17272,0
DA:17273,0
DA:17274,0
DA:17275,0
DA:17276,0
DA:17277,0
DA:17278,0
DA:17279,0
DA:17280,0
DA:17281,0
DA:17282,0
DA:17284,0
DA:17285,0
DA:17286,0
DA:17287,0
DA:17288,0
DA:17290,0
DA:17291,0
DA:17292,0
DA:17293,0
DA:17294,0
DA:17295,0
DA:17297,0
DA:17299,0
DA:17300,0
DA:17301,0
DA:17302,0
DA:17304,0
DA:17305,0
DA:17306,0
DA:17307,0
DA:17308,0
DA:17309,0
DA:17310,0
DA:17312,0
DA:17314,0
DA:17316,0
DA:17318,0
DA:17320,0
DA:17322,0
DA:17324,0
DA:17325,0
DA:17326,0
DA:17327,0
DA:17328,0
DA:17329,0
DA:17330,0
DA:17336,0
DA:17337,0
DA:17340,0
DA:17341,0
DA:17342,0
DA:17343,0
DA:17345,0
DA:17347,0
DA:17348,0
DA:17349,0
DA:17350,0
DA:17354,0
DA:17355,0
DA:17356,0
DA:17357,0
DA:17358,0
DA:17359,0
DA:17360,0
DA:17361,0
DA:17362,0
DA:17363,0
DA:17364,0
DA:17365,0
DA:17366,0
DA:17367,0
DA:17368,0
DA:17369,0
DA:17370,0
DA:17371,0
DA:17373,0
DA:17374,0
DA:17375,0
DA:17376,0
DA:17377,0
DA:17378,0
DA:17379,0
DA:17380,0
DA:17381,0
DA:17384,0
DA:17385,0
DA:17387,0
DA:17390,0
DA:17391,0
DA:17392,0
DA:17393,0
DA:17394,0
DA:17395,0
DA:17396,0
DA:17398,0
DA:17399,0
DA:17401,0
DA:17402,0
DA:17403,0
DA:17405,0
DA:17406,0
DA:17407,0
DA:17408,0
DA:17410,0
DA:17411,0
DA:17413,0
DA:17414,0
DA:17415,0
DA:17416,0
DA:17418,0
DA:17419,0
DA:17421,0
DA:17422,0
DA:17424,0
DA:17425,0
DA:17426,0
DA:17427,0
DA:17428,0
DA:17429,0
DA:17430,0
DA:17431,0
DA:17432,0
DA:17433,0
DA:17435,0
DA:17436,0
DA:17437,0
DA:17438,0
DA:17439,0
DA:17440,0
DA:17441,0
DA:17442,0
DA:17443,0
DA:17444,0
DA:17445,0
DA:17446,0
DA:17523,1
DA:17526,1
LF:4824
LH:1298
end_of_record
TN:
SF:/home/nikola/Desktop/2024_Analysis_Mini-Student-Management-System/unit_tests/tests/test_attendancelist.cpp
FN:10,66,_Z21updateLastCourseEntryv
FN:112,124,_ZN12_GLOBAL__N_130____C_A_T_C_H____T_E_S_T____544testEv
FN:127,140,_ZN12_GLOBAL__N_130____C_A_T_C_H____T_E_S_T____564testEv
FN:143,153,_ZN12_GLOBAL__N_130____C_A_T_C_H____T_E_S_T____584testEv
FN:157,174,_ZN12_GLOBAL__N_130____C_A_T_C_H____T_E_S_T____604testEv
FN:177,189,_ZN12_GLOBAL__N_130____C_A_T_C_H____T_E_S_T____624testEv
FN:73,76,_ZN20SetupAttendanceTestsC2Ev
FN:80,92,_ZN12_GLOBAL__N_130____C_A_T_C_H____T_E_S_T____504testEv
FN:95,109,_ZN12_GLOBAL__N_130____C_A_T_C_H____T_E_S_T____524testEv
FNDA:7,_Z21updateLastCourseEntryv
FNDA:1,_ZN12_GLOBAL__N_130____C_A_T_C_H____T_E_S_T____544testEv
FNDA:1,_ZN12_GLOBAL__N_130____C_A_T_C_H____T_E_S_T____564testEv
FNDA:1,_ZN12_GLOBAL__N_130____C_A_T_C_H____T_E_S_T____584testEv
FNDA:1,_ZN12_GLOBAL__N_130____C_A_T_C_H____T_E_S_T____604testEv
FNDA:1,_ZN12_GLOBAL__N_130____C_A_T_C_H____T_E_S_T____624testEv
FNDA:7,_ZN20SetupAttendanceTestsC2Ev
FNDA:1,_ZN12_GLOBAL__N_130____C_A_T_C_H____T_E_S_T____504testEv
FNDA:1,_ZN12_GLOBAL__N_130____C_A_T_C_H____T_E_S_T____524testEv
FNF:9
FNH:9
DA:10,7
DA:11,7
DA:12,7
DA:14,7
DA:15,7
DA:17,49
DA:18,42
DA:20,7
DA:23,7
DA:24,7
DA:27,7
DA:29,7
DA:30,7
DA:31,7
DA:32,7
DA:34,7
DA:35,7
DA:37,7
DA:38,7
DA:39,7
DA:41,84
DA:42,77
DA:45,7
DA:46,7
DA:47,7
DA:49,7
DA:50,84
DA:51,77
DA:52,77
DA:55,7
DA:56,42
DA:57,35
DA:59,7
DA:60,7
DA:62,7
DA:63,7
DA:64,7
DA:65,7
DA:66,7
DA:73,7
DA:74,7
DA:75,7
DA:76,7
DA:80,1
DA:81,1
DA:82,1
DA:85,1
DA:87,1
DA:90,1
DA:91,1
DA:92,1
DA:95,1
DA:96,1
DA:97,1
DA:101,1
DA:102,1
DA:103,1
DA:104,1
DA:106,1
DA:108,1
DA:109,1
DA:112,1
DA:113,1
DA:116,1
DA:118,1
DA:119,1
DA:121,1
DA:123,1
DA:124,1
DA:127,1
DA:128,1
DA:132,1
DA:134,1
DA:135,1
DA:137,1
DA:139,1
DA:140,1
DA:143,1
DA:144,1
DA:145,1
DA:147,1
DA:149,1
DA:151,1
DA:152,1
DA:153,1
DA:157,1
DA:158,1
DA:159,1
DA:162,1
DA:163,1
DA:164,1
DA:165,1
DA:167,1
DA:169,1
DA:170,1
DA:173,1
DA:174,1
DA:177,1
DA:178,1
DA:181,1
DA:183,1
DA:184,1
DA:186,1
DA:188,1
DA:189,1
LF:105
LH:105
end_of_record
TN:
SF:/home/nikola/Desktop/2024_Analysis_Mini-Student-Management-System/unit_tests/tests/test_class.cpp
FN:101,121,_ZN12_GLOBAL__N_130____C_A_T_C_H____T_E_S_T____744testEv
FN:14,16,_ZN15SetupClassTestsC2Ev
FN:20,34,_ZN12_GLOBAL__N_130____C_A_T_C_H____T_E_S_T____644testEv
FN:38,52,_ZN12_GLOBAL__N_130____C_A_T_C_H____T_E_S_T____664testEv
FN:55,64,_ZN12_GLOBAL__N_130____C_A_T_C_H____T_E_S_T____684testEv
FN:67,81,_ZN12_GLOBAL__N_130____C_A_T_C_H____T_E_S_T____704testEv
FN:84,98,_ZN12_GLOBAL__N_130____C_A_T_C_H____T_E_S_T____724testEv
FNDA:1,_ZN12_GLOBAL__N_130____C_A_T_C_H____T_E_S_T____744testEv
FNDA:6,_ZN15SetupClassTestsC2Ev
FNDA:1,_ZN12_GLOBAL__N_130____C_A_T_C_H____T_E_S_T____644testEv
FNDA:1,_ZN12_GLOBAL__N_130____C_A_T_C_H____T_E_S_T____664testEv
FNDA:1,_ZN12_GLOBAL__N_130____C_A_T_C_H____T_E_S_T____684testEv
FNDA:1,_ZN12_GLOBAL__N_130____C_A_T_C_H____T_E_S_T____704testEv
FNDA:1,_ZN12_GLOBAL__N_130____C_A_T_C_H____T_E_S_T____724testEv
FNF:7
FNH:7
DA:14,6
DA:15,6
DA:16,6
DA:20,1
DA:21,1
DA:22,1
DA:24,1
DA:25,1
DA:26,1
DA:27,1
DA:29,1
DA:31,1
DA:33,1
DA:34,1
DA:38,1
DA:39,1
DA:41,1
DA:43,1
DA:44,1
DA:45,1
DA:47,1
DA:49,1
DA:51,2
DA:52,1
DA:55,1
DA:56,1
DA:57,1
DA:58,1
DA:59,1
DA:61,1
DA:63,1
DA:64,1
DA:67,1
DA:68,1
DA:69,1
DA:71,1
DA:72,1
DA:73,1
DA:74,1
DA:76,1
DA:78,1
DA:80,1
DA:81,1
DA:84,1
DA:85,1
DA:86,1
DA:89,1
DA:92,1
DA:95,1
DA:96,1
DA:97,1
DA:98,1
DA:101,1
DA:102,1
DA:103,1
DA:106,2
DA:108,4
DA:109,3
DA:110,3
DA:111,3
DA:112,3
DA:114,3
DA:116,3
DA:117,3
DA:120,1
DA:121,1
LF:66
LH:66
end_of_record
TN:
SF:/home/nikola/Desktop/2024_Analysis_Mini-Student-Management-System/unit_tests/tests/test_courses.cpp
FN:111,123,_ZN12_GLOBAL__N_130____C_A_T_C_H____T_E_S_T____884testEv
FN:126,138,_ZN12_GLOBAL__N_130____C_A_T_C_H____T_E_S_T____904testEv
FN:13,15,_ZN17SetupCoursesTestsC2Ev
FN:141,153,_ZN12_GLOBAL__N_130____C_A_T_C_H____T_E_S_T____924testEv
FN:156,169,_ZN12_GLOBAL__N_130____C_A_T_C_H____T_E_S_T____944testEv
FN:172,185,_ZN12_GLOBAL__N_130____C_A_T_C_H____T_E_S_T____964testEv
FN:188,197,_ZN12_GLOBAL__N_130____C_A_T_C_H____T_E_S_T____984testEv
FN:19,31,_ZN12_GLOBAL__N_130____C_A_T_C_H____T_E_S_T____764testEv
FN:200,213,_ZN12_GLOBAL__N_131____C_A_T_C_H____T_E_S_T____1004testEv
FN:216,225,_ZN12_GLOBAL__N_131____C_A_T_C_H____T_E_S_T____1024testEv
FN:230,242,_ZN12_GLOBAL__N_131____C_A_T_C_H____T_E_S_T____1044testEv
FN:245,257,_ZN12_GLOBAL__N_131____C_A_T_C_H____T_E_S_T____1064testEv
FN:262,299,_ZN12_GLOBAL__N_131____C_A_T_C_H____T_E_S_T____1084testEv
FN:302,314,_ZN12_GLOBAL__N_131____C_A_T_C_H____T_E_S_T____1104testEv
FN:317,336,_ZN12_GLOBAL__N_131____C_A_T_C_H____T_E_S_T____1124testEv
FN:339,351,_ZN12_GLOBAL__N_131____C_A_T_C_H____T_E_S_T____1144testEv
FN:34,45,_ZN12_GLOBAL__N_130____C_A_T_C_H____T_E_S_T____784testEv
FN:354,366,_ZN12_GLOBAL__N_131____C_A_T_C_H____T_E_S_T____1164testEv
FN:48,60,_ZN12_GLOBAL__N_130____C_A_T_C_H____T_E_S_T____804testEv
FN:63,74,_ZN12_GLOBAL__N_130____C_A_T_C_H____T_E_S_T____824testEv
FN:78,91,_ZN12_GLOBAL__N_130____C_A_T_C_H____T_E_S_T____844testEv
FN:94,105,_ZN12_GLOBAL__N_130____C_A_T_C_H____T_E_S_T____864testEv
FNDA:1,_ZN12_GLOBAL__N_130____C_A_T_C_H____T_E_S_T____884testEv
FNDA:1,_ZN12_GLOBAL__N_130____C_A_T_C_H____T_E_S_T____904testEv
FNDA:21,_ZN17SetupCoursesTestsC2Ev
FNDA:1,_ZN12_GLOBAL__N_130____C_A_T_C_H____T_E_S_T____924testEv
FNDA:1,_ZN12_GLOBAL__N_130____C_A_T_C_H____T_E_S_T____944testEv
FNDA:1,_ZN12_GLOBAL__N_130____C_A_T_C_H____T_E_S_T____964testEv
FNDA:1,_ZN12_GLOBAL__N_130____C_A_T_C_H____T_E_S_T____984testEv
FNDA:1,_ZN12_GLOBAL__N_130____C_A_T_C_H____T_E_S_T____764testEv
FNDA:1,_ZN12_GLOBAL__N_131____C_A_T_C_H____T_E_S_T____1004testEv
FNDA:1,_ZN12_GLOBAL__N_131____C_A_T_C_H____T_E_S_T____1024testEv
FNDA:1,_ZN12_GLOBAL__N_131____C_A_T_C_H____T_E_S_T____1044testEv
FNDA:1,_ZN12_GLOBAL__N_131____C_A_T_C_H____T_E_S_T____1064testEv
FNDA:1,_ZN12_GLOBAL__N_131____C_A_T_C_H____T_E_S_T____1084testEv
FNDA:1,_ZN12_GLOBAL__N_131____C_A_T_C_H____T_E_S_T____1104testEv
FNDA:1,_ZN12_GLOBAL__N_131____C_A_T_C_H____T_E_S_T____1124testEv
FNDA:1,_ZN12_GLOBAL__N_131____C_A_T_C_H____T_E_S_T____1144testEv
FNDA:1,_ZN12_GLOBAL__N_130____C_A_T_C_H____T_E_S_T____784testEv
FNDA:1,_ZN12_GLOBAL__N_131____C_A_T_C_H____T_E_S_T____1164testEv
FNDA:1,_ZN12_GLOBAL__N_130____C_A_T_C_H____T_E_S_T____804testEv
FNDA:1,_ZN12_GLOBAL__N_130____C_A_T_C_H____T_E_S_T____824testEv
FNDA:1,_ZN12_GLOBAL__N_130____C_A_T_C_H____T_E_S_T____844testEv
FNDA:1,_ZN12_GLOBAL__N_130____C_A_T_C_H____T_E_S_T____864testEv
FNF:22
FNH:22
DA:13,21
DA:14,21
DA:15,21
DA:19,1
DA:20,1
DA:21,1
DA:23,1
DA:24,1
DA:26,1
DA:28,1
DA:30,1
DA:31,1
DA:34,1
DA:35,1
DA:37,1
DA:38,1
DA:40,1
DA:42,1
DA:44,2
DA:45,1
DA:48,1
DA:49,1
DA:50,1
DA:52,1
DA:53,1
DA:55,1
DA:57,1
DA:59,1
DA:60,1
DA:63,1
DA:64,1
DA:66,1
DA:67,1
DA:69,1
DA:71,1
DA:73,2
DA:74,1
DA:78,1
DA:79,1
DA:80,1
DA:83,1
DA:84,1
DA:86,1
DA:88,1
DA:90,1
DA:91,1
DA:94,1
DA:95,1
DA:97,1
DA:98,1
DA:100,1
DA:102,1
DA:104,3
DA:105,1
DA:111,1
DA:112,1
DA:113,1
DA:115,1
DA:116,1
DA:118,1
DA:120,1
DA:122,1
DA:123,1
DA:126,1
DA:127,1
DA:128,1
DA:130,1
DA:131,1
DA:133,1
DA:135,1
DA:137,1
DA:138,1
DA:141,1
DA:142,1
DA:143,1
DA:145,1
DA:146,1
DA:148,1
DA:150,1
DA:152,1
DA:153,1
DA:156,1
DA:157,1
DA:158,1
DA:160,1
DA:161,1
DA:163,1
DA:165,1
DA:166,1
DA:168,1
DA:169,1
DA:172,1
DA:173,1
DA:174,1
DA:176,1
DA:177,1
DA:179,1
DA:181,1
DA:182,1
DA:184,1
DA:185,1
DA:188,1
DA:189,1
DA:190,1
DA:192,1
DA:194,1
DA:196,1
DA:197,1
DA:200,1
DA:201,1
DA:202,1
DA:204,1
DA:205,1
DA:207,1
DA:209,1
DA:210,1
DA:212,1
DA:213,1
DA:216,1
DA:217,1
DA:218,1
DA:220,1
DA:222,1
DA:224,1
DA:225,1
DA:230,1
DA:231,1
DA:232,1
DA:234,1
DA:235,1
DA:237,1
DA:239,1
DA:241,1
DA:242,1
DA:245,1
DA:246,1
DA:247,1
DA:249,1
DA:250,1
DA:252,1
DA:254,1
DA:256,1
DA:257,1
DA:262,1
DA:263,1
DA:264,1
DA:270,2
DA:271,2
DA:273,1
DA:274,1
DA:275,3
DA:276,5
DA:277,4
DA:279,4
DA:280,1
DA:281,1
DA:285,1
DA:286,1
DA:288,1
DA:290,1
DA:292,1
DA:299,1
DA:302,1
DA:303,1
DA:304,1
DA:306,1
DA:307,1
DA:309,1
DA:311,1
DA:313,1
DA:314,1
DA:317,1
DA:318,1
DA:319,1
DA:322,2
DA:324,3
DA:325,2
DA:326,2
DA:327,2
DA:328,2
DA:330,2
DA:332,2
DA:333,2
DA:335,1
DA:336,1
DA:339,1
DA:340,1
DA:341,1
DA:343,1
DA:344,1
DA:346,1
DA:348,1
DA:350,1
DA:351,1
DA:354,1
DA:355,1
DA:356,1
DA:358,1
DA:359,1
DA:361,1
DA:363,1
DA:365,1
DA:366,1
LF:203
LH:203
end_of_record
TN:
SF:/home/nikola/Desktop/2024_Analysis_Mini-Student-Management-System/unit_tests/tests/test_csv_import.cpp
FN:10,12,_ZN13SetupCSVTestsC2Ev
FN:16,25,_ZN12_GLOBAL__N_130____C_A_T_C_H____T_E_S_T____344testEv
FN:28,33,_ZN12_GLOBAL__N_130____C_A_T_C_H____T_E_S_T____364testEv
FN:36,43,_ZN12_GLOBAL__N_130____C_A_T_C_H____T_E_S_T____384testEv
FNDA:3,_ZN13SetupCSVTestsC2Ev
FNDA:1,_ZN12_GLOBAL__N_130____C_A_T_C_H____T_E_S_T____344testEv
FNDA:1,_ZN12_GLOBAL__N_130____C_A_T_C_H____T_E_S_T____364testEv
FNDA:1,_ZN12_GLOBAL__N_130____C_A_T_C_H____T_E_S_T____384testEv
FNF:4
FNH:4
DA:10,3
DA:11,3
DA:12,3
DA:16,1
DA:17,1
DA:18,1
DA:21,1
DA:22,1
DA:23,1
DA:24,1
DA:25,1
DA:28,1
DA:29,1
DA:32,1
DA:33,1
DA:36,1
DA:37,1
DA:40,1
DA:41,1
DA:42,1
DA:43,1
LF:21
LH:21
end_of_record
TN:
SF:/home/nikola/Desktop/2024_Analysis_Mini-Student-Management-System/unit_tests/tests/test_date.cpp
FN:17,25,_ZL30____C_A_T_C_H____T_E_S_T____24v
FN:27,36,_ZL30____C_A_T_C_H____T_E_S_T____26v
FN:39,47,_ZL30____C_A_T_C_H____T_E_S_T____28v
FN:49,59,_ZL30____C_A_T_C_H____T_E_S_T____30v
FN:5,15,_ZL30____C_A_T_C_H____T_E_S_T____22v
FN:61,67,_ZL30____C_A_T_C_H____T_E_S_T____32v
FNDA:1,_ZL30____C_A_T_C_H____T_E_S_T____24v
FNDA:1,_ZL30____C_A_T_C_H____T_E_S_T____26v
FNDA:1,_ZL30____C_A_T_C_H____T_E_S_T____28v
FNDA:1,_ZL30____C_A_T_C_H____T_E_S_T____30v
FNDA:1,_ZL30____C_A_T_C_H____T_E_S_T____22v
FNDA:1,_ZL30____C_A_T_C_H____T_E_S_T____32v
FNF:6
FNH:6
DA:5,1
DA:6,1
DA:7,1
DA:8,1
DA:9,1
DA:10,1
DA:11,1
DA:13,1
DA:14,1
DA:15,1
DA:17,1
DA:18,1
DA:19,1
DA:20,1
DA:21,1
DA:22,1
DA:23,1
DA:24,1
DA:25,1
DA:27,1
DA:28,1
DA:30,1
DA:31,1
DA:33,1
DA:35,1
DA:36,1
DA:39,1
DA:40,1
DA:41,1
DA:42,1
DA:44,1
DA:45,1
DA:46,1
DA:47,1
DA:49,1
DA:50,1
DA:51,1
DA:53,1
DA:54,1
DA:55,1
DA:57,1
DA:58,1
DA:59,1
DA:61,1
DA:62,1
DA:63,1
DA:65,1
DA:66,1
DA:67,1
LF:49
LH:49
end_of_record
TN:
SF:/home/nikola/Desktop/2024_Analysis_Mini-Student-Management-System/unit_tests/tests/test_interface.cpp
FN:16,22,_ZL30____C_A_T_C_H____T_E_S_T____12v
FN:25,32,_ZL30____C_A_T_C_H____T_E_S_T____14v
FN:35,48,_ZL30____C_A_T_C_H____T_E_S_T____16v
FN:51,69,_ZL30____C_A_T_C_H____T_E_S_T____18v
FN:7,13,_ZL30____C_A_T_C_H____T_E_S_T____10v
FN:72,99,_ZL30____C_A_T_C_H____T_E_S_T____20v
FNDA:1,_ZL30____C_A_T_C_H____T_E_S_T____12v
FNDA:1,_ZL30____C_A_T_C_H____T_E_S_T____14v
FNDA:1,_ZL30____C_A_T_C_H____T_E_S_T____16v
FNDA:1,_ZL30____C_A_T_C_H____T_E_S_T____18v
FNDA:1,_ZL30____C_A_T_C_H____T_E_S_T____10v
FNDA:1,_ZL30____C_A_T_C_H____T_E_S_T____20v
FNF:6
FNH:6
DA:7,1
DA:8,1
DA:9,1
DA:10,1
DA:12,3
DA:13,1
DA:16,1
DA:17,1
DA:18,1
DA:19,1
DA:21,1
DA:22,1
DA:25,1
DA:26,1
DA:27,1
DA:29,1
DA:31,3
DA:32,1
DA:35,1
DA:36,1
DA:37,1
DA:45,1
DA:47,1
DA:48,1
DA:51,1
DA:52,1
DA:53,1
DA:54,1
DA:55,1
DA:57,1
DA:58,1
DA:61,2
DA:63,1
DA:67,1
DA:68,1
DA:69,1
DA:72,1
DA:73,1
DA:74,1
DA:77,1
DA:78,1
DA:81,1
DA:82,1
DA:83,1
DA:84,1
DA:86,1
DA:88,1
DA:91,1
DA:92,1
DA:93,3
DA:96,1
DA:97,1
DA:99,1
LF:53
LH:53
end_of_record
TN:
SF:/home/nikola/Desktop/2024_Analysis_Mini-Student-Management-System/unit_tests/tests/test_lecturer.cpp
FN:11,13,_ZN18SetupLecturerTestsC2Ev
FN:17,27,_ZN12_GLOBAL__N_130____C_A_T_C_H____T_E_S_T____404testEv
FN:29,39,_ZN12_GLOBAL__N_130____C_A_T_C_H____T_E_S_T____424testEv
FN:41,51,_ZN12_GLOBAL__N_130____C_A_T_C_H____T_E_S_T____444testEv
FN:53,55,_ZN12_GLOBAL__N_130____C_A_T_C_H____T_E_S_T____464testEv
FN:57,76,_ZN12_GLOBAL__N_130____C_A_T_C_H____T_E_S_T____484testEv
FNDA:5,_ZN18SetupLecturerTestsC2Ev
FNDA:1,_ZN12_GLOBAL__N_130____C_A_T_C_H____T_E_S_T____404testEv
FNDA:1,_ZN12_GLOBAL__N_130____C_A_T_C_H____T_E_S_T____424testEv
FNDA:1,_ZN12_GLOBAL__N_130____C_A_T_C_H____T_E_S_T____444testEv
FNDA:1,_ZN12_GLOBAL__N_130____C_A_T_C_H____T_E_S_T____464testEv
FNDA:1,_ZN12_GLOBAL__N_130____C_A_T_C_H____T_E_S_T____484testEv
FNF:6
FNH:6
DA:11,5
DA:12,5
DA:13,5
DA:17,1
DA:18,1
DA:19,1
DA:21,1
DA:22,1
DA:23,1
DA:24,1
DA:26,1
DA:27,1
DA:29,1
DA:30,1
DA:31,1
DA:33,1
DA:34,1
DA:35,1
DA:36,1
DA:38,1
DA:39,1
DA:41,1
DA:42,1
DA:43,1
DA:45,1
DA:46,1
DA:47,1
DA:48,1
DA:50,1
DA:51,1
DA:53,1
DA:54,1
DA:55,1
DA:57,1
DA:59,1
DA:60,1
DA:63,1
DA:64,1
DA:67,1
DA:70,1
DA:71,1
DA:74,1
DA:75,1
DA:76,1
LF:44
LH:44
end_of_record
TN:
SF:/home/nikola/Desktop/2024_Analysis_Mini-Student-Management-System/unit_tests/tests/test_scoreboard.cpp
FN:117,132,_ZN12_GLOBAL__N_129____C_A_T_C_H____T_E_S_T____84testEv
FN:12,14,_ZN20SetupScoreboardTestsC2Ev
FN:18,37,_ZN12_GLOBAL__N_129____C_A_T_C_H____T_E_S_T____04testEv
FN:41,70,_ZN12_GLOBAL__N_129____C_A_T_C_H____T_E_S_T____24testEv
FN:73,92,_ZN12_GLOBAL__N_129____C_A_T_C_H____T_E_S_T____44testEv
FN:95,114,_ZN12_GLOBAL__N_129____C_A_T_C_H____T_E_S_T____64testEv
FNDA:1,_ZN12_GLOBAL__N_129____C_A_T_C_H____T_E_S_T____84testEv
FNDA:5,_ZN20SetupScoreboardTestsC2Ev
FNDA:1,_ZN12_GLOBAL__N_129____C_A_T_C_H____T_E_S_T____04testEv
FNDA:1,_ZN12_GLOBAL__N_129____C_A_T_C_H____T_E_S_T____24testEv
FNDA:1,_ZN12_GLOBAL__N_129____C_A_T_C_H____T_E_S_T____44testEv
FNDA:1,_ZN12_GLOBAL__N_129____C_A_T_C_H____T_E_S_T____64testEv
FNF:6
FNH:6
DA:12,5
DA:13,5
DA:14,5
DA:18,1
DA:19,1
DA:20,1
DA:23,1
DA:25,1
DA:26,1
DA:27,1
DA:30,1
DA:33,1
DA:36,1
DA:37,1
DA:41,1
DA:42,1
DA:45,1
DA:46,1
DA:47,1
DA:48,1
DA:51,1
DA:54,1
DA:58,23
DA:59,30
DA:60,30
DA:63,1
DA:64,1
DA:65,1
DA:66,1
DA:70,1
DA:73,1
DA:75,1
DA:76,1
DA:79,1
DA:80,1
DA:83,1
DA:86,1
DA:87,1
DA:90,1
DA:91,1
DA:92,1
DA:95,1
DA:97,1
DA:98,1
DA:101,1
DA:102,1
DA:105,1
DA:108,1
DA:109,1
DA:112,1
DA:113,1
DA:114,1
DA:117,1
DA:119,1
DA:120,1
DA:123,1
DA:126,1
DA:129,1
DA:130,1
DA:131,1
DA:132,1
LF:61
LH:61
end_of_record
TN:
SF:/usr/include/c++/13/bits/alloc_traits.h
FNF:0
FNH:0
DA:482,2231
DA:517,2231
DA:538,1300
DA:542,1300
DA:562,885
DA:574,623
DA:588,1884
DA:661,159
DA:675,159
DA:705,0
DA:720,0
DA:722,0
DA:737,65
DA:757,65
DA:759,65
DA:773,0
DA:790,0
DA:792,0
DA:948,3151
DA:949,3151
LF:20
LH:14
end_of_record
TN:
SF:/usr/include/c++/13/bits/allocated_ptr.h
FN:53,55,_ZNSt15__allocated_ptrISaISt23_Sp_counted_ptr_inplaceIN5Catch10Generators16GeneratorTrackerESaIvELN9__gnu_cxx12_Lock_policyE2EEEEC2ERS8_PS7_
FN:53,55,_ZNSt15__allocated_ptrISaISt23_Sp_counted_ptr_inplaceIN5Catch16TestCaseTracking14SectionTrackerESaIvELN9__gnu_cxx12_Lock_policyE2EEEEC2ERS8_PS7_
FN:53,55,_ZNSt15__allocated_ptrISaISt23_Sp_counted_ptr_inplaceIN5Catch17ReporterRegistrarINS1_11XmlReporterEE15ReporterFactoryESaIvELN9__gnu_cxx12_Lock_policyE2EEEEC2ERSA_PS9_
FN:53,55,_ZNSt15__allocated_ptrISaISt23_Sp_counted_ptr_inplaceIN5Catch17ReporterRegistrarINS1_13JunitReporterEE15ReporterFactoryESaIvELN9__gnu_cxx12_Lock_policyE2EEEEC2ERSA_PS9_
FN:53,55,_ZNSt15__allocated_ptrISaISt23_Sp_counted_ptr_inplaceIN5Catch17ReporterRegistrarINS1_15CompactReporterEE15ReporterFactoryESaIvELN9__gnu_cxx12_Lock_policyE2EEEEC2ERSA_PS9_
FN:53,55,_ZNSt15__allocated_ptrISaISt23_Sp_counted_ptr_inplaceIN5Catch17ReporterRegistrarINS1_15ConsoleReporterEE15ReporterFactoryESaIvELN9__gnu_cxx12_Lock_policyE2EEEEC2ERSA_PS9_
FN:53,55,_ZNSt15__allocated_ptrISaISt23_Sp_counted_ptr_inplaceIN5Catch22CumulativeReporterBaseINS1_13JunitReporterEE11SectionNodeESaIvELN9__gnu_cxx12_Lock_policyE2EEEEC2ERSA_PS9_
FN:53,55,_ZNSt15__allocated_ptrISaISt23_Sp_counted_ptr_inplaceIN5Catch22CumulativeReporterBaseINS1_13JunitReporterEE4NodeINS1_12TestRunStatsENS5_INS1_14TestGroupStatsENS5_INS1_13TestCaseStatsENS4_11SectionNodeEEEEEEESaIvELN9__gnu_cxx12_Lock_policyE2EEEEC2ERSH_PSG_
FN:53,55,_ZNSt15__allocated_ptrISaISt23_Sp_counted_ptr_inplaceIN5Catch22CumulativeReporterBaseINS1_13JunitReporterEE4NodeINS1_13TestCaseStatsENS4_11SectionNodeEEESaIvELN9__gnu_cxx12_Lock_policyE2EEEEC2ERSD_PSC_
FN:53,55,_ZNSt15__allocated_ptrISaISt23_Sp_counted_ptr_inplaceIN5Catch22CumulativeReporterBaseINS1_13JunitReporterEE4NodeINS1_14TestGroupStatsENS5_INS1_13TestCaseStatsENS4_11SectionNodeEEEEESaIvELN9__gnu_cxx12_Lock_policyE2EEEEC2ERSF_PSE_
FN:53,55,_ZNSt15__allocated_ptrISaISt23_Sp_counted_ptr_inplaceIN5Catch5clara6detail11BoundLambdaIZNS1_21makeCommandLineParserERNS1_10ConfigDataEEUlRKNSt7__cxx1112basic_stringIcSt11char_traitsIcESaIcEEEE0_EESaIvELN9__gnu_cxx12_Lock_policyE2EEEEC2ERSL_PSK_
FN:53,55,_ZNSt15__allocated_ptrISaISt23_Sp_counted_ptr_inplaceIN5Catch5clara6detail11BoundLambdaIZNS1_21makeCommandLineParserERNS1_10ConfigDataEEUlRKNSt7__cxx1112basic_stringIcSt11char_traitsIcESaIcEEEE1_EESaIvELN9__gnu_cxx12_Lock_policyE2EEEEC2ERSL_PSK_
FN:53,55,_ZNSt15__allocated_ptrISaISt23_Sp_counted_ptr_inplaceIN5Catch5clara6detail11BoundLambdaIZNS1_21makeCommandLineParserERNS1_10ConfigDataEEUlRKNSt7__cxx1112basic_stringIcSt11char_traitsIcESaIcEEEE2_EESaIvELN9__gnu_cxx12_Lock_policyE2EEEEC2ERSL_PSK_
FN:53,55,_ZNSt15__allocated_ptrISaISt23_Sp_counted_ptr_inplaceIN5Catch5clara6detail11BoundLambdaIZNS1_21makeCommandLineParserERNS1_10ConfigDataEEUlRKNSt7__cxx1112basic_stringIcSt11char_traitsIcESaIcEEEE3_EESaIvELN9__gnu_cxx12_Lock_policyE2EEEEC2ERSL_PSK_
FN:53,55,_ZNSt15__allocated_ptrISaISt23_Sp_counted_ptr_inplaceIN5Catch5clara6detail11BoundLambdaIZNS1_21makeCommandLineParserERNS1_10ConfigDataEEUlRKNSt7__cxx1112basic_stringIcSt11char_traitsIcESaIcEEEE4_EESaIvELN9__gnu_cxx12_Lock_policyE2EEEEC2ERSL_PSK_
FN:53,55,_ZNSt15__allocated_ptrISaISt23_Sp_counted_ptr_inplaceIN5Catch5clara6detail11BoundLambdaIZNS1_21makeCommandLineParserERNS1_10ConfigDataEEUlRKNSt7__cxx1112basic_stringIcSt11char_traitsIcESaIcEEEE5_EESaIvELN9__gnu_cxx12_Lock_policyE2EEEEC2ERSL_PSK_
FN:53,55,_ZNSt15__allocated_ptrISaISt23_Sp_counted_ptr_inplaceIN5Catch5clara6detail11BoundLambdaIZNS1_21makeCommandLineParserERNS1_10ConfigDataEEUlRKNSt7__cxx1112basic_stringIcSt11char_traitsIcESaIcEEEE6_EESaIvELN9__gnu_cxx12_Lock_policyE2EEEEC2ERSL_PSK_
FN:53,55,_ZNSt15__allocated_ptrISaISt23_Sp_counted_ptr_inplaceIN5Catch5clara6detail11BoundLambdaIZNS1_21makeCommandLineParserERNS1_10ConfigDataEEUlRKNSt7__cxx1112basic_stringIcSt11char_traitsIcESaIcEEEE_EESaIvELN9__gnu_cxx12_Lock_policyE2EEEEC2ERSL_PSK_
FN:53,55,_ZNSt15__allocated_ptrISaISt23_Sp_counted_ptr_inplaceIN5Catch5clara6detail11BoundLambdaIZNS1_21makeCommandLineParserERNS1_10ConfigDataEEUlbE0_EESaIvELN9__gnu_cxx12_Lock_policyE2EEEEC2ERSD_PSC_
FN:53,55,_ZNSt15__allocated_ptrISaISt23_Sp_counted_ptr_inplaceIN5Catch5clara6detail11BoundLambdaIZNS1_21makeCommandLineParserERNS1_10ConfigDataEEUliE_EESaIvELN9__gnu_cxx12_Lock_policyE2EEEEC2ERSD_PSC_
FN:53,55,_ZNSt15__allocated_ptrISaISt23_Sp_counted_ptr_inplaceIN5Catch5clara6detail12BoundFlagRefESaIvELN9__gnu_cxx12_Lock_policyE2EEEEC2ERS9_PS8_
FN:53,55,_ZNSt15__allocated_ptrISaISt23_Sp_counted_ptr_inplaceIN5Catch5clara6detail13BoundValueRefINSt7__cxx1112basic_stringIcSt11char_traitsIcESaIcEEEEESaIvELN9__gnu_cxx12_Lock_policyE2EEEEC2ERSG_PSF_
FN:53,55,_ZNSt15__allocated_ptrISaISt23_Sp_counted_ptr_inplaceIN5Catch5clara6detail13BoundValueRefISt6vectorINSt7__cxx1112basic_stringIcSt11char_traitsIcESaIcEEESaISB_EEEESaIvELN9__gnu_cxx12_Lock_policyE2EEEEC2ERSJ_PSI_
FN:53,55,_ZNSt15__allocated_ptrISaISt23_Sp_counted_ptr_inplaceIN5Catch5clara6detail13BoundValueRefIdEESaIvELN9__gnu_cxx12_Lock_policyE2EEEEC2ERSA_PS9_
FN:53,55,_ZNSt15__allocated_ptrISaISt23_Sp_counted_ptr_inplaceIN5Catch5clara6detail13BoundValueRefIjEESaIvELN9__gnu_cxx12_Lock_policyE2EEEEC2ERSA_PS9_
FN:53,55,_ZNSt15__allocated_ptrISaISt23_Sp_counted_ptr_inplaceIN5Catch5clara6detail13BoundValueRefIlEESaIvELN9__gnu_cxx12_Lock_policyE2EEEEC2ERSA_PS9_
FN:53,55,_ZNSt15__allocated_ptrISaISt23_Sp_counted_ptr_inplaceIN5Catch5clara6detail15BoundFlagLambdaIZNS1_21makeCommandLineParserERNS1_10ConfigDataEEUlbE_EESaIvELN9__gnu_cxx12_Lock_policyE2EEEEC2ERSD_PSC_
FN:53,55,_ZNSt15__allocated_ptrISaISt23_Sp_counted_ptr_inplaceIN5Catch5clara6detail15BoundFlagLambdaIZNS3_4HelpC4ERbEUlbE_EESaIvELN9__gnu_cxx12_Lock_policyE2EEEEC2ERSD_PSC_
FN:53,55,_ZNSt15__allocated_ptrISaISt23_Sp_counted_ptr_inplaceIN5Catch6ConfigESaIvELN9__gnu_cxx12_Lock_policyE2EEEEC2ERS7_PS6_
FN:53,55,_ZNSt15__allocated_ptrISaISt23_Sp_counted_ptr_inplaceIN5Catch8TestSpec10TagPatternESaIvELN9__gnu_cxx12_Lock_policyE2EEEEC2ERS8_PS7_
FN:53,55,_ZNSt15__allocated_ptrISaISt23_Sp_counted_ptr_inplaceIN5Catch8TestSpec11NamePatternESaIvELN9__gnu_cxx12_Lock_policyE2EEEEC2ERS8_PS7_
FN:53,55,_ZNSt15__allocated_ptrISaISt23_Sp_counted_ptr_inplaceIN5Catch8TestSpec15ExcludedPatternESaIvELN9__gnu_cxx12_Lock_policyE2EEEEC2ERS8_PS7_
FN:53,55,_ZNSt15__allocated_ptrISaISt23_Sp_counted_ptr_inplaceINSt7__cxx1112basic_stringIcSt11char_traitsIcESaIcEEESaIvELN9__gnu_cxx12_Lock_policyE2EEEEC2ERSB_PSA_
FN:53,55,_ZNSt15__allocated_ptrISaISt23_Sp_counted_ptr_inplaceINSt8__detail4_NFAINSt7__cxx1112regex_traitsIcEEEESaIvELN9__gnu_cxx12_Lock_policyE2EEEEC2ERSB_PSA_
FN:71,75,_ZNSt15__allocated_ptrISaISt23_Sp_counted_ptr_inplaceIN5Catch10Generators16GeneratorTrackerESaIvELN9__gnu_cxx12_Lock_policyE2EEEED2Ev
FN:71,75,_ZNSt15__allocated_ptrISaISt23_Sp_counted_ptr_inplaceIN5Catch16TestCaseTracking14SectionTrackerESaIvELN9__gnu_cxx12_Lock_policyE2EEEED2Ev
FN:71,75,_ZNSt15__allocated_ptrISaISt23_Sp_counted_ptr_inplaceIN5Catch17ReporterRegistrarINS1_11XmlReporterEE15ReporterFactoryESaIvELN9__gnu_cxx12_Lock_policyE2EEEED2Ev
FN:71,75,_ZNSt15__allocated_ptrISaISt23_Sp_counted_ptr_inplaceIN5Catch17ReporterRegistrarINS1_13JunitReporterEE15ReporterFactoryESaIvELN9__gnu_cxx12_Lock_policyE2EEEED2Ev
FN:71,75,_ZNSt15__allocated_ptrISaISt23_Sp_counted_ptr_inplaceIN5Catch17ReporterRegistrarINS1_15CompactReporterEE15ReporterFactoryESaIvELN9__gnu_cxx12_Lock_policyE2EEEED2Ev
FN:71,75,_ZNSt15__allocated_ptrISaISt23_Sp_counted_ptr_inplaceIN5Catch17ReporterRegistrarINS1_15ConsoleReporterEE15ReporterFactoryESaIvELN9__gnu_cxx12_Lock_policyE2EEEED2Ev
FN:71,75,_ZNSt15__allocated_ptrISaISt23_Sp_counted_ptr_inplaceIN5Catch22CumulativeReporterBaseINS1_13JunitReporterEE11SectionNodeESaIvELN9__gnu_cxx12_Lock_policyE2EEEED2Ev
FN:71,75,_ZNSt15__allocated_ptrISaISt23_Sp_counted_ptr_inplaceIN5Catch22CumulativeReporterBaseINS1_13JunitReporterEE4NodeINS1_12TestRunStatsENS5_INS1_14TestGroupStatsENS5_INS1_13TestCaseStatsENS4_11SectionNodeEEEEEEESaIvELN9__gnu_cxx12_Lock_policyE2EEEED2Ev
FN:71,75,_ZNSt15__allocated_ptrISaISt23_Sp_counted_ptr_inplaceIN5Catch22CumulativeReporterBaseINS1_13JunitReporterEE4NodeINS1_13TestCaseStatsENS4_11SectionNodeEEESaIvELN9__gnu_cxx12_Lock_policyE2EEEED2Ev
FN:71,75,_ZNSt15__allocated_ptrISaISt23_Sp_counted_ptr_inplaceIN5Catch22CumulativeReporterBaseINS1_13JunitReporterEE4NodeINS1_14TestGroupStatsENS5_INS1_13TestCaseStatsENS4_11SectionNodeEEEEESaIvELN9__gnu_cxx12_Lock_policyE2EEEED2Ev
FN:71,75,_ZNSt15__allocated_ptrISaISt23_Sp_counted_ptr_inplaceIN5Catch5clara6detail11BoundLambdaIZNS1_21makeCommandLineParserERNS1_10ConfigDataEEUlRKNSt7__cxx1112basic_stringIcSt11char_traitsIcESaIcEEEE0_EESaIvELN9__gnu_cxx12_Lock_policyE2EEEED2Ev
FN:71,75,_ZNSt15__allocated_ptrISaISt23_Sp_counted_ptr_inplaceIN5Catch5clara6detail11BoundLambdaIZNS1_21makeCommandLineParserERNS1_10ConfigDataEEUlRKNSt7__cxx1112basic_stringIcSt11char_traitsIcESaIcEEEE1_EESaIvELN9__gnu_cxx12_Lock_policyE2EEEED2Ev
FN:71,75,_ZNSt15__allocated_ptrISaISt23_Sp_counted_ptr_inplaceIN5Catch5clara6detail11BoundLambdaIZNS1_21makeCommandLineParserERNS1_10ConfigDataEEUlRKNSt7__cxx1112basic_stringIcSt11char_traitsIcESaIcEEEE2_EESaIvELN9__gnu_cxx12_Lock_policyE2EEEED2Ev
FN:71,75,_ZNSt15__allocated_ptrISaISt23_Sp_counted_ptr_inplaceIN5Catch5clara6detail11BoundLambdaIZNS1_21makeCommandLineParserERNS1_10ConfigDataEEUlRKNSt7__cxx1112basic_stringIcSt11char_traitsIcESaIcEEEE3_EESaIvELN9__gnu_cxx12_Lock_policyE2EEEED2Ev
FN:71,75,_ZNSt15__allocated_ptrISaISt23_Sp_counted_ptr_inplaceIN5Catch5clara6detail11BoundLambdaIZNS1_21makeCommandLineParserERNS1_10ConfigDataEEUlRKNSt7__cxx1112basic_stringIcSt11char_traitsIcESaIcEEEE4_EESaIvELN9__gnu_cxx12_Lock_policyE2EEEED2Ev
FN:71,75,_ZNSt15__allocated_ptrISaISt23_Sp_counted_ptr_inplaceIN5Catch5clara6detail11BoundLambdaIZNS1_21makeCommandLineParserERNS1_10ConfigDataEEUlRKNSt7__cxx1112basic_stringIcSt11char_traitsIcESaIcEEEE5_EESaIvELN9__gnu_cxx12_Lock_policyE2EEEED2Ev
FN:71,75,_ZNSt15__allocated_ptrISaISt23_Sp_counted_ptr_inplaceIN5Catch5clara6detail11BoundLambdaIZNS1_21makeCommandLineParserERNS1_10ConfigDataEEUlRKNSt7__cxx1112basic_stringIcSt11char_traitsIcESaIcEEEE6_EESaIvELN9__gnu_cxx12_Lock_policyE2EEEED2Ev
FN:71,75,_ZNSt15__allocated_ptrISaISt23_Sp_counted_ptr_inplaceIN5Catch5clara6detail11BoundLambdaIZNS1_21makeCommandLineParserERNS1_10ConfigDataEEUlRKNSt7__cxx1112basic_stringIcSt11char_traitsIcESaIcEEEE_EESaIvELN9__gnu_cxx12_Lock_policyE2EEEED2Ev
FN:71,75,_ZNSt15__allocated_ptrISaISt23_Sp_counted_ptr_inplaceIN5Catch5clara6detail11BoundLambdaIZNS1_21makeCommandLineParserERNS1_10ConfigDataEEUlbE0_EESaIvELN9__gnu_cxx12_Lock_policyE2EEEED2Ev
FN:71,75,_ZNSt15__allocated_ptrISaISt23_Sp_counted_ptr_inplaceIN5Catch5clara6detail11BoundLambdaIZNS1_21makeCommandLineParserERNS1_10ConfigDataEEUliE_EESaIvELN9__gnu_cxx12_Lock_policyE2EEEED2Ev
FN:71,75,_ZNSt15__allocated_ptrISaISt23_Sp_counted_ptr_inplaceIN5Catch5clara6detail12BoundFlagRefESaIvELN9__gnu_cxx12_Lock_policyE2EEEED2Ev
FN:71,75,_ZNSt15__allocated_ptrISaISt23_Sp_counted_ptr_inplaceIN5Catch5clara6detail13BoundValueRefINSt7__cxx1112basic_stringIcSt11char_traitsIcESaIcEEEEESaIvELN9__gnu_cxx12_Lock_policyE2EEEED2Ev
FN:71,75,_ZNSt15__allocated_ptrISaISt23_Sp_counted_ptr_inplaceIN5Catch5clara6detail13BoundValueRefISt6vectorINSt7__cxx1112basic_stringIcSt11char_traitsIcESaIcEEESaISB_EEEESaIvELN9__gnu_cxx12_Lock_policyE2EEEED2Ev
FN:71,75,_ZNSt15__allocated_ptrISaISt23_Sp_counted_ptr_inplaceIN5Catch5clara6detail13BoundValueRefIdEESaIvELN9__gnu_cxx12_Lock_policyE2EEEED2Ev
FN:71,75,_ZNSt15__allocated_ptrISaISt23_Sp_counted_ptr_inplaceIN5Catch5clara6detail13BoundValueRefIjEESaIvELN9__gnu_cxx12_Lock_policyE2EEEED2Ev
FN:71,75,_ZNSt15__allocated_ptrISaISt23_Sp_counted_ptr_inplaceIN5Catch5clara6detail13BoundValueRefIlEESaIvELN9__gnu_cxx12_Lock_policyE2EEEED2Ev
FN:71,75,_ZNSt15__allocated_ptrISaISt23_Sp_counted_ptr_inplaceIN5Catch5clara6detail15BoundFlagLambdaIZNS1_21makeCommandLineParserERNS1_10ConfigDataEEUlbE_EESaIvELN9__gnu_cxx12_Lock_policyE2EEEED2Ev
FN:71,75,_ZNSt15__allocated_ptrISaISt23_Sp_counted_ptr_inplaceIN5Catch5clara6detail15BoundFlagLambdaIZNS3_4HelpC4ERbEUlbE_EESaIvELN9__gnu_cxx12_Lock_policyE2EEEED2Ev
FN:71,75,_ZNSt15__allocated_ptrISaISt23_Sp_counted_ptr_inplaceIN5Catch6ConfigESaIvELN9__gnu_cxx12_Lock_policyE2EEEED2Ev
FN:71,75,_ZNSt15__allocated_ptrISaISt23_Sp_counted_ptr_inplaceIN5Catch8TestSpec10TagPatternESaIvELN9__gnu_cxx12_Lock_policyE2EEEED2Ev
FN:71,75,_ZNSt15__allocated_ptrISaISt23_Sp_counted_ptr_inplaceIN5Catch8TestSpec11NamePatternESaIvELN9__gnu_cxx12_Lock_policyE2EEEED2Ev
FN:71,75,_ZNSt15__allocated_ptrISaISt23_Sp_counted_ptr_inplaceIN5Catch8TestSpec15ExcludedPatternESaIvELN9__gnu_cxx12_Lock_policyE2EEEED2Ev
FN:71,75,_ZNSt15__allocated_ptrISaISt23_Sp_counted_ptr_inplaceINSt7__cxx1112basic_stringIcSt11char_traitsIcESaIcEEESaIvELN9__gnu_cxx12_Lock_policyE2EEEED2Ev
FN:71,75,_ZNSt15__allocated_ptrISaISt23_Sp_counted_ptr_inplaceINSt8__detail4_NFAINSt7__cxx1112regex_traitsIcEEEESaIvELN9__gnu_cxx12_Lock_policyE2EEEED2Ev
FN:79,83,_ZNSt15__allocated_ptrISaISt23_Sp_counted_ptr_inplaceIN5Catch10Generators16GeneratorTrackerESaIvELN9__gnu_cxx12_Lock_policyE2EEEEaSEDn
FN:79,83,_ZNSt15__allocated_ptrISaISt23_Sp_counted_ptr_inplaceIN5Catch16TestCaseTracking14SectionTrackerESaIvELN9__gnu_cxx12_Lock_policyE2EEEEaSEDn
FN:79,83,_ZNSt15__allocated_ptrISaISt23_Sp_counted_ptr_inplaceIN5Catch17ReporterRegistrarINS1_11XmlReporterEE15ReporterFactoryESaIvELN9__gnu_cxx12_Lock_policyE2EEEEaSEDn
FN:79,83,_ZNSt15__allocated_ptrISaISt23_Sp_counted_ptr_inplaceIN5Catch17ReporterRegistrarINS1_13JunitReporterEE15ReporterFactoryESaIvELN9__gnu_cxx12_Lock_policyE2EEEEaSEDn
FN:79,83,_ZNSt15__allocated_ptrISaISt23_Sp_counted_ptr_inplaceIN5Catch17ReporterRegistrarINS1_15CompactReporterEE15ReporterFactoryESaIvELN9__gnu_cxx12_Lock_policyE2EEEEaSEDn
FN:79,83,_ZNSt15__allocated_ptrISaISt23_Sp_counted_ptr_inplaceIN5Catch17ReporterRegistrarINS1_15ConsoleReporterEE15ReporterFactoryESaIvELN9__gnu_cxx12_Lock_policyE2EEEEaSEDn
FN:79,83,_ZNSt15__allocated_ptrISaISt23_Sp_counted_ptr_inplaceIN5Catch22CumulativeReporterBaseINS1_13JunitReporterEE11SectionNodeESaIvELN9__gnu_cxx12_Lock_policyE2EEEEaSEDn
FN:79,83,_ZNSt15__allocated_ptrISaISt23_Sp_counted_ptr_inplaceIN5Catch22CumulativeReporterBaseINS1_13JunitReporterEE4NodeINS1_12TestRunStatsENS5_INS1_14TestGroupStatsENS5_INS1_13TestCaseStatsENS4_11SectionNodeEEEEEEESaIvELN9__gnu_cxx12_Lock_policyE2EEEEaSEDn
FN:79,83,_ZNSt15__allocated_ptrISaISt23_Sp_counted_ptr_inplaceIN5Catch22CumulativeReporterBaseINS1_13JunitReporterEE4NodeINS1_13TestCaseStatsENS4_11SectionNodeEEESaIvELN9__gnu_cxx12_Lock_policyE2EEEEaSEDn
FN:79,83,_ZNSt15__allocated_ptrISaISt23_Sp_counted_ptr_inplaceIN5Catch22CumulativeReporterBaseINS1_13JunitReporterEE4NodeINS1_14TestGroupStatsENS5_INS1_13TestCaseStatsENS4_11SectionNodeEEEEESaIvELN9__gnu_cxx12_Lock_policyE2EEEEaSEDn
FN:79,83,_ZNSt15__allocated_ptrISaISt23_Sp_counted_ptr_inplaceIN5Catch5clara6detail11BoundLambdaIZNS1_21makeCommandLineParserERNS1_10ConfigDataEEUlRKNSt7__cxx1112basic_stringIcSt11char_traitsIcESaIcEEEE0_EESaIvELN9__gnu_cxx12_Lock_policyE2EEEEaSEDn
FN:79,83,_ZNSt15__allocated_ptrISaISt23_Sp_counted_ptr_inplaceIN5Catch5clara6detail11BoundLambdaIZNS1_21makeCommandLineParserERNS1_10ConfigDataEEUlRKNSt7__cxx1112basic_stringIcSt11char_traitsIcESaIcEEEE1_EESaIvELN9__gnu_cxx12_Lock_policyE2EEEEaSEDn
FN:79,83,_ZNSt15__allocated_ptrISaISt23_Sp_counted_ptr_inplaceIN5Catch5clara6detail11BoundLambdaIZNS1_21makeCommandLineParserERNS1_10ConfigDataEEUlRKNSt7__cxx1112basic_stringIcSt11char_traitsIcESaIcEEEE2_EESaIvELN9__gnu_cxx12_Lock_policyE2EEEEaSEDn
FN:79,83,_ZNSt15__allocated_ptrISaISt23_Sp_counted_ptr_inplaceIN5Catch5clara6detail11BoundLambdaIZNS1_21makeCommandLineParserERNS1_10ConfigDataEEUlRKNSt7__cxx1112basic_stringIcSt11char_traitsIcESaIcEEEE3_EESaIvELN9__gnu_cxx12_Lock_policyE2EEEEaSEDn
FN:79,83,_ZNSt15__allocated_ptrISaISt23_Sp_counted_ptr_inplaceIN5Catch5clara6detail11BoundLambdaIZNS1_21makeCommandLineParserERNS1_10ConfigDataEEUlRKNSt7__cxx1112basic_stringIcSt11char_traitsIcESaIcEEEE4_EESaIvELN9__gnu_cxx12_Lock_policyE2EEEEaSEDn
FN:79,83,_ZNSt15__allocated_ptrISaISt23_Sp_counted_ptr_inplaceIN5Catch5clara6detail11BoundLambdaIZNS1_21makeCommandLineParserERNS1_10ConfigDataEEUlRKNSt7__cxx1112basic_stringIcSt11char_traitsIcESaIcEEEE5_EESaIvELN9__gnu_cxx12_Lock_policyE2EEEEaSEDn
FN:79,83,_ZNSt15__allocated_ptrISaISt23_Sp_counted_ptr_inplaceIN5Catch5clara6detail11BoundLambdaIZNS1_21makeCommandLineParserERNS1_10ConfigDataEEUlRKNSt7__cxx1112basic_stringIcSt11char_traitsIcESaIcEEEE6_EESaIvELN9__gnu_cxx12_Lock_policyE2EEEEaSEDn
FN:79,83,_ZNSt15__allocated_ptrISaISt23_Sp_counted_ptr_inplaceIN5Catch5clara6detail11BoundLambdaIZNS1_21makeCommandLineParserERNS1_10ConfigDataEEUlRKNSt7__cxx1112basic_stringIcSt11char_traitsIcESaIcEEEE_EESaIvELN9__gnu_cxx12_Lock_policyE2EEEEaSEDn
FN:79,83,_ZNSt15__allocated_ptrISaISt23_Sp_counted_ptr_inplaceIN5Catch5clara6detail11BoundLambdaIZNS1_21makeCommandLineParserERNS1_10ConfigDataEEUlbE0_EESaIvELN9__gnu_cxx12_Lock_policyE2EEEEaSEDn
FN:79,83,_ZNSt15__allocated_ptrISaISt23_Sp_counted_ptr_inplaceIN5Catch5clara6detail11BoundLambdaIZNS1_21makeCommandLineParserERNS1_10ConfigDataEEUliE_EESaIvELN9__gnu_cxx12_Lock_policyE2EEEEaSEDn
FN:79,83,_ZNSt15__allocated_ptrISaISt23_Sp_counted_ptr_inplaceIN5Catch5clara6detail12BoundFlagRefESaIvELN9__gnu_cxx12_Lock_policyE2EEEEaSEDn
FN:79,83,_ZNSt15__allocated_ptrISaISt23_Sp_counted_ptr_inplaceIN5Catch5clara6detail13BoundValueRefINSt7__cxx1112basic_stringIcSt11char_traitsIcESaIcEEEEESaIvELN9__gnu_cxx12_Lock_policyE2EEEEaSEDn
FN:79,83,_ZNSt15__allocated_ptrISaISt23_Sp_counted_ptr_inplaceIN5Catch5clara6detail13BoundValueRefISt6vectorINSt7__cxx1112basic_stringIcSt11char_traitsIcESaIcEEESaISB_EEEESaIvELN9__gnu_cxx12_Lock_policyE2EEEEaSEDn
FN:79,83,_ZNSt15__allocated_ptrISaISt23_Sp_counted_ptr_inplaceIN5Catch5clara6detail13BoundValueRefIdEESaIvELN9__gnu_cxx12_Lock_policyE2EEEEaSEDn
FN:79,83,_ZNSt15__allocated_ptrISaISt23_Sp_counted_ptr_inplaceIN5Catch5clara6detail13BoundValueRefIjEESaIvELN9__gnu_cxx12_Lock_policyE2EEEEaSEDn
FN:79,83,_ZNSt15__allocated_ptrISaISt23_Sp_counted_ptr_inplaceIN5Catch5clara6detail13BoundValueRefIlEESaIvELN9__gnu_cxx12_Lock_policyE2EEEEaSEDn
FN:79,83,_ZNSt15__allocated_ptrISaISt23_Sp_counted_ptr_inplaceIN5Catch5clara6detail15BoundFlagLambdaIZNS1_21makeCommandLineParserERNS1_10ConfigDataEEUlbE_EESaIvELN9__gnu_cxx12_Lock_policyE2EEEEaSEDn
FN:79,83,_ZNSt15__allocated_ptrISaISt23_Sp_counted_ptr_inplaceIN5Catch5clara6detail15BoundFlagLambdaIZNS3_4HelpC4ERbEUlbE_EESaIvELN9__gnu_cxx12_Lock_policyE2EEEEaSEDn
FN:79,83,_ZNSt15__allocated_ptrISaISt23_Sp_counted_ptr_inplaceIN5Catch6ConfigESaIvELN9__gnu_cxx12_Lock_policyE2EEEEaSEDn
FN:79,83,_ZNSt15__allocated_ptrISaISt23_Sp_counted_ptr_inplaceIN5Catch8TestSpec10TagPatternESaIvELN9__gnu_cxx12_Lock_policyE2EEEEaSEDn
FN:79,83,_ZNSt15__allocated_ptrISaISt23_Sp_counted_ptr_inplaceIN5Catch8TestSpec11NamePatternESaIvELN9__gnu_cxx12_Lock_policyE2EEEEaSEDn
FN:79,83,_ZNSt15__allocated_ptrISaISt23_Sp_counted_ptr_inplaceIN5Catch8TestSpec15ExcludedPatternESaIvELN9__gnu_cxx12_Lock_policyE2EEEEaSEDn
FN:79,83,_ZNSt15__allocated_ptrISaISt23_Sp_counted_ptr_inplaceINSt7__cxx1112basic_stringIcSt11char_traitsIcESaIcEEESaIvELN9__gnu_cxx12_Lock_policyE2EEEEaSEDn
FN:79,83,_ZNSt15__allocated_ptrISaISt23_Sp_counted_ptr_inplaceINSt8__detail4_NFAINSt7__cxx1112regex_traitsIcEEEESaIvELN9__gnu_cxx12_Lock_policyE2EEEEaSEDn
FN:86,86,_ZNSt15__allocated_ptrISaISt23_Sp_counted_ptr_inplaceIN5Catch10Generators16GeneratorTrackerESaIvELN9__gnu_cxx12_Lock_policyE2EEEE3getEv
FN:86,86,_ZNSt15__allocated_ptrISaISt23_Sp_counted_ptr_inplaceIN5Catch16TestCaseTracking14SectionTrackerESaIvELN9__gnu_cxx12_Lock_policyE2EEEE3getEv
FN:86,86,_ZNSt15__allocated_ptrISaISt23_Sp_counted_ptr_inplaceIN5Catch17ReporterRegistrarINS1_11XmlReporterEE15ReporterFactoryESaIvELN9__gnu_cxx12_Lock_policyE2EEEE3getEv
FN:86,86,_ZNSt15__allocated_ptrISaISt23_Sp_counted_ptr_inplaceIN5Catch17ReporterRegistrarINS1_13JunitReporterEE15ReporterFactoryESaIvELN9__gnu_cxx12_Lock_policyE2EEEE3getEv
FN:86,86,_ZNSt15__allocated_ptrISaISt23_Sp_counted_ptr_inplaceIN5Catch17ReporterRegistrarINS1_15CompactReporterEE15ReporterFactoryESaIvELN9__gnu_cxx12_Lock_policyE2EEEE3getEv
FN:86,86,_ZNSt15__allocated_ptrISaISt23_Sp_counted_ptr_inplaceIN5Catch17ReporterRegistrarINS1_15ConsoleReporterEE15ReporterFactoryESaIvELN9__gnu_cxx12_Lock_policyE2EEEE3getEv
FN:86,86,_ZNSt15__allocated_ptrISaISt23_Sp_counted_ptr_inplaceIN5Catch22CumulativeReporterBaseINS1_13JunitReporterEE11SectionNodeESaIvELN9__gnu_cxx12_Lock_policyE2EEEE3getEv
FN:86,86,_ZNSt15__allocated_ptrISaISt23_Sp_counted_ptr_inplaceIN5Catch22CumulativeReporterBaseINS1_13JunitReporterEE4NodeINS1_12TestRunStatsENS5_INS1_14TestGroupStatsENS5_INS1_13TestCaseStatsENS4_11SectionNodeEEEEEEESaIvELN9__gnu_cxx12_Lock_policyE2EEEE3getEv
FN:86,86,_ZNSt15__allocated_ptrISaISt23_Sp_counted_ptr_inplaceIN5Catch22CumulativeReporterBaseINS1_13JunitReporterEE4NodeINS1_13TestCaseStatsENS4_11SectionNodeEEESaIvELN9__gnu_cxx12_Lock_policyE2EEEE3getEv
FN:86,86,_ZNSt15__allocated_ptrISaISt23_Sp_counted_ptr_inplaceIN5Catch22CumulativeReporterBaseINS1_13JunitReporterEE4NodeINS1_14TestGroupStatsENS5_INS1_13TestCaseStatsENS4_11SectionNodeEEEEESaIvELN9__gnu_cxx12_Lock_policyE2EEEE3getEv
FN:86,86,_ZNSt15__allocated_ptrISaISt23_Sp_counted_ptr_inplaceIN5Catch5clara6detail11BoundLambdaIZNS1_21makeCommandLineParserERNS1_10ConfigDataEEUlRKNSt7__cxx1112basic_stringIcSt11char_traitsIcESaIcEEEE0_EESaIvELN9__gnu_cxx12_Lock_policyE2EEEE3getEv
FN:86,86,_ZNSt15__allocated_ptrISaISt23_Sp_counted_ptr_inplaceIN5Catch5clara6detail11BoundLambdaIZNS1_21makeCommandLineParserERNS1_10ConfigDataEEUlRKNSt7__cxx1112basic_stringIcSt11char_traitsIcESaIcEEEE1_EESaIvELN9__gnu_cxx12_Lock_policyE2EEEE3getEv
FN:86,86,_ZNSt15__allocated_ptrISaISt23_Sp_counted_ptr_inplaceIN5Catch5clara6detail11BoundLambdaIZNS1_21makeCommandLineParserERNS1_10ConfigDataEEUlRKNSt7__cxx1112basic_stringIcSt11char_traitsIcESaIcEEEE2_EESaIvELN9__gnu_cxx12_Lock_policyE2EEEE3getEv
FN:86,86,_ZNSt15__allocated_ptrISaISt23_Sp_counted_ptr_inplaceIN5Catch5clara6detail11BoundLambdaIZNS1_21makeCommandLineParserERNS1_10ConfigDataEEUlRKNSt7__cxx1112basic_stringIcSt11char_traitsIcESaIcEEEE3_EESaIvELN9__gnu_cxx12_Lock_policyE2EEEE3getEv
FN:86,86,_ZNSt15__allocated_ptrISaISt23_Sp_counted_ptr_inplaceIN5Catch5clara6detail11BoundLambdaIZNS1_21makeCommandLineParserERNS1_10ConfigDataEEUlRKNSt7__cxx1112basic_stringIcSt11char_traitsIcESaIcEEEE4_EESaIvELN9__gnu_cxx12_Lock_policyE2EEEE3getEv
FN:86,86,_ZNSt15__allocated_ptrISaISt23_Sp_counted_ptr_inplaceIN5Catch5clara6detail11BoundLambdaIZNS1_21makeCommandLineParserERNS1_10ConfigDataEEUlRKNSt7__cxx1112basic_stringIcSt11char_traitsIcESaIcEEEE5_EESaIvELN9__gnu_cxx12_Lock_policyE2EEEE3getEv
FN:86,86,_ZNSt15__allocated_ptrISaISt23_Sp_counted_ptr_inplaceIN5Catch5clara6detail11BoundLambdaIZNS1_21makeCommandLineParserERNS1_10ConfigDataEEUlRKNSt7__cxx1112basic_stringIcSt11char_traitsIcESaIcEEEE6_EESaIvELN9__gnu_cxx12_Lock_policyE2EEEE3getEv
FN:86,86,_ZNSt15__allocated_ptrISaISt23_Sp_counted_ptr_inplaceIN5Catch5clara6detail11BoundLambdaIZNS1_21makeCommandLineParserERNS1_10ConfigDataEEUlRKNSt7__cxx1112basic_stringIcSt11char_traitsIcESaIcEEEE_EESaIvELN9__gnu_cxx12_Lock_policyE2EEEE3getEv
FN:86,86,_ZNSt15__allocated_ptrISaISt23_Sp_counted_ptr_inplaceIN5Catch5clara6detail11BoundLambdaIZNS1_21makeCommandLineParserERNS1_10ConfigDataEEUlbE0_EESaIvELN9__gnu_cxx12_Lock_policyE2EEEE3getEv
FN:86,86,_ZNSt15__allocated_ptrISaISt23_Sp_counted_ptr_inplaceIN5Catch5clara6detail11BoundLambdaIZNS1_21makeCommandLineParserERNS1_10ConfigDataEEUliE_EESaIvELN9__gnu_cxx12_Lock_policyE2EEEE3getEv
FN:86,86,_ZNSt15__allocated_ptrISaISt23_Sp_counted_ptr_inplaceIN5Catch5clara6detail12BoundFlagRefESaIvELN9__gnu_cxx12_Lock_policyE2EEEE3getEv
FN:86,86,_ZNSt15__allocated_ptrISaISt23_Sp_counted_ptr_inplaceIN5Catch5clara6detail13BoundValueRefINSt7__cxx1112basic_stringIcSt11char_traitsIcESaIcEEEEESaIvELN9__gnu_cxx12_Lock_policyE2EEEE3getEv
FN:86,86,_ZNSt15__allocated_ptrISaISt23_Sp_counted_ptr_inplaceIN5Catch5clara6detail13BoundValueRefISt6vectorINSt7__cxx1112basic_stringIcSt11char_traitsIcESaIcEEESaISB_EEEESaIvELN9__gnu_cxx12_Lock_policyE2EEEE3getEv
FN:86,86,_ZNSt15__allocated_ptrISaISt23_Sp_counted_ptr_inplaceIN5Catch5clara6detail13BoundValueRefIdEESaIvELN9__gnu_cxx12_Lock_policyE2EEEE3getEv
FN:86,86,_ZNSt15__allocated_ptrISaISt23_Sp_counted_ptr_inplaceIN5Catch5clara6detail13BoundValueRefIjEESaIvELN9__gnu_cxx12_Lock_policyE2EEEE3getEv
FN:86,86,_ZNSt15__allocated_ptrISaISt23_Sp_counted_ptr_inplaceIN5Catch5clara6detail13BoundValueRefIlEESaIvELN9__gnu_cxx12_Lock_policyE2EEEE3getEv
FN:86,86,_ZNSt15__allocated_ptrISaISt23_Sp_counted_ptr_inplaceIN5Catch5clara6detail15BoundFlagLambdaIZNS1_21makeCommandLineParserERNS1_10ConfigDataEEUlbE_EESaIvELN9__gnu_cxx12_Lock_policyE2EEEE3getEv
FN:86,86,_ZNSt15__allocated_ptrISaISt23_Sp_counted_ptr_inplaceIN5Catch5clara6detail15BoundFlagLambdaIZNS3_4HelpC4ERbEUlbE_EESaIvELN9__gnu_cxx12_Lock_policyE2EEEE3getEv
FN:86,86,_ZNSt15__allocated_ptrISaISt23_Sp_counted_ptr_inplaceIN5Catch6ConfigESaIvELN9__gnu_cxx12_Lock_policyE2EEEE3getEv
FN:86,86,_ZNSt15__allocated_ptrISaISt23_Sp_counted_ptr_inplaceIN5Catch8TestSpec10TagPatternESaIvELN9__gnu_cxx12_Lock_policyE2EEEE3getEv
FN:86,86,_ZNSt15__allocated_ptrISaISt23_Sp_counted_ptr_inplaceIN5Catch8TestSpec11NamePatternESaIvELN9__gnu_cxx12_Lock_policyE2EEEE3getEv
FN:86,86,_ZNSt15__allocated_ptrISaISt23_Sp_counted_ptr_inplaceIN5Catch8TestSpec15ExcludedPatternESaIvELN9__gnu_cxx12_Lock_policyE2EEEE3getEv
FN:86,86,_ZNSt15__allocated_ptrISaISt23_Sp_counted_ptr_inplaceINSt7__cxx1112basic_stringIcSt11char_traitsIcESaIcEEESaIvELN9__gnu_cxx12_Lock_policyE2EEEE3getEv
FN:86,86,_ZNSt15__allocated_ptrISaISt23_Sp_counted_ptr_inplaceINSt8__detail4_NFAINSt7__cxx1112regex_traitsIcEEEESaIvELN9__gnu_cxx12_Lock_policyE2EEEE3getEv
FN:96,99,_ZSt18__allocate_guardedISaISt23_Sp_counted_ptr_inplaceIN5Catch10Generators16GeneratorTrackerESaIvELN9__gnu_cxx12_Lock_policyE2EEEESt15__allocated_ptrIT_ERSA_
FN:96,99,_ZSt18__allocate_guardedISaISt23_Sp_counted_ptr_inplaceIN5Catch16TestCaseTracking14SectionTrackerESaIvELN9__gnu_cxx12_Lock_policyE2EEEESt15__allocated_ptrIT_ERSA_
FN:96,99,_ZSt18__allocate_guardedISaISt23_Sp_counted_ptr_inplaceIN5Catch17ReporterRegistrarINS1_11XmlReporterEE15ReporterFactoryESaIvELN9__gnu_cxx12_Lock_policyE2EEEESt15__allocated_ptrIT_ERSC_
FN:96,99,_ZSt18__allocate_guardedISaISt23_Sp_counted_ptr_inplaceIN5Catch17ReporterRegistrarINS1_13JunitReporterEE15ReporterFactoryESaIvELN9__gnu_cxx12_Lock_policyE2EEEESt15__allocated_ptrIT_ERSC_
FN:96,99,_ZSt18__allocate_guardedISaISt23_Sp_counted_ptr_inplaceIN5Catch17ReporterRegistrarINS1_15CompactReporterEE15ReporterFactoryESaIvELN9__gnu_cxx12_Lock_policyE2EEEESt15__allocated_ptrIT_ERSC_
FN:96,99,_ZSt18__allocate_guardedISaISt23_Sp_counted_ptr_inplaceIN5Catch17ReporterRegistrarINS1_15ConsoleReporterEE15ReporterFactoryESaIvELN9__gnu_cxx12_Lock_policyE2EEEESt15__allocated_ptrIT_ERSC_
FN:96,99,_ZSt18__allocate_guardedISaISt23_Sp_counted_ptr_inplaceIN5Catch22CumulativeReporterBaseINS1_13JunitReporterEE11SectionNodeESaIvELN9__gnu_cxx12_Lock_policyE2EEEESt15__allocated_ptrIT_ERSC_
FN:96,99,_ZSt18__allocate_guardedISaISt23_Sp_counted_ptr_inplaceIN5Catch22CumulativeReporterBaseINS1_13JunitReporterEE4NodeINS1_12TestRunStatsENS5_INS1_14TestGroupStatsENS5_INS1_13TestCaseStatsENS4_11SectionNodeEEEEEEESaIvELN9__gnu_cxx12_Lock_policyE2EEEESt15__allocated_ptrIT_ERSJ_
FN:96,99,_ZSt18__allocate_guardedISaISt23_Sp_counted_ptr_inplaceIN5Catch22CumulativeReporterBaseINS1_13JunitReporterEE4NodeINS1_13TestCaseStatsENS4_11SectionNodeEEESaIvELN9__gnu_cxx12_Lock_policyE2EEEESt15__allocated_ptrIT_ERSF_
FN:96,99,_ZSt18__allocate_guardedISaISt23_Sp_counted_ptr_inplaceIN5Catch22CumulativeReporterBaseINS1_13JunitReporterEE4NodeINS1_14TestGroupStatsENS5_INS1_13TestCaseStatsENS4_11SectionNodeEEEEESaIvELN9__gnu_cxx12_Lock_policyE2EEEESt15__allocated_ptrIT_ERSH_
FN:96,99,_ZSt18__allocate_guardedISaISt23_Sp_counted_ptr_inplaceIN5Catch5clara6detail11BoundLambdaIZNS1_21makeCommandLineParserERNS1_10ConfigDataEEUlRKNSt7__cxx1112basic_stringIcSt11char_traitsIcESaIcEEEE0_EESaIvELN9__gnu_cxx12_Lock_policyE2EEEESt15__allocated_ptrIT_ERSN_
FN:96,99,_ZSt18__allocate_guardedISaISt23_Sp_counted_ptr_inplaceIN5Catch5clara6detail11BoundLambdaIZNS1_21makeCommandLineParserERNS1_10ConfigDataEEUlRKNSt7__cxx1112basic_stringIcSt11char_traitsIcESaIcEEEE1_EESaIvELN9__gnu_cxx12_Lock_policyE2EEEESt15__allocated_ptrIT_ERSN_
FN:96,99,_ZSt18__allocate_guardedISaISt23_Sp_counted_ptr_inplaceIN5Catch5clara6detail11BoundLambdaIZNS1_21makeCommandLineParserERNS1_10ConfigDataEEUlRKNSt7__cxx1112basic_stringIcSt11char_traitsIcESaIcEEEE2_EESaIvELN9__gnu_cxx12_Lock_policyE2EEEESt15__allocated_ptrIT_ERSN_
FN:96,99,_ZSt18__allocate_guardedISaISt23_Sp_counted_ptr_inplaceIN5Catch5clara6detail11BoundLambdaIZNS1_21makeCommandLineParserERNS1_10ConfigDataEEUlRKNSt7__cxx1112basic_stringIcSt11char_traitsIcESaIcEEEE3_EESaIvELN9__gnu_cxx12_Lock_policyE2EEEESt15__allocated_ptrIT_ERSN_
FN:96,99,_ZSt18__allocate_guardedISaISt23_Sp_counted_ptr_inplaceIN5Catch5clara6detail11BoundLambdaIZNS1_21makeCommandLineParserERNS1_10ConfigDataEEUlRKNSt7__cxx1112basic_stringIcSt11char_traitsIcESaIcEEEE4_EESaIvELN9__gnu_cxx12_Lock_policyE2EEEESt15__allocated_ptrIT_ERSN_
FN:96,99,_ZSt18__allocate_guardedISaISt23_Sp_counted_ptr_inplaceIN5Catch5clara6detail11BoundLambdaIZNS1_21makeCommandLineParserERNS1_10ConfigDataEEUlRKNSt7__cxx1112basic_stringIcSt11char_traitsIcESaIcEEEE5_EESaIvELN9__gnu_cxx12_Lock_policyE2EEEESt15__allocated_ptrIT_ERSN_
FN:96,99,_ZSt18__allocate_guardedISaISt23_Sp_counted_ptr_inplaceIN5Catch5clara6detail11BoundLambdaIZNS1_21makeCommandLineParserERNS1_10ConfigDataEEUlRKNSt7__cxx1112basic_stringIcSt11char_traitsIcESaIcEEEE6_EESaIvELN9__gnu_cxx12_Lock_policyE2EEEESt15__allocated_ptrIT_ERSN_
FN:96,99,_ZSt18__allocate_guardedISaISt23_Sp_counted_ptr_inplaceIN5Catch5clara6detail11BoundLambdaIZNS1_21makeCommandLineParserERNS1_10ConfigDataEEUlRKNSt7__cxx1112basic_stringIcSt11char_traitsIcESaIcEEEE_EESaIvELN9__gnu_cxx12_Lock_policyE2EEEESt15__allocated_ptrIT_ERSN_
FN:96,99,_ZSt18__allocate_guardedISaISt23_Sp_counted_ptr_inplaceIN5Catch5clara6detail11BoundLambdaIZNS1_21makeCommandLineParserERNS1_10ConfigDataEEUlbE0_EESaIvELN9__gnu_cxx12_Lock_policyE2EEEESt15__allocated_ptrIT_ERSF_
FN:96,99,_ZSt18__allocate_guardedISaISt23_Sp_counted_ptr_inplaceIN5Catch5clara6detail11BoundLambdaIZNS1_21makeCommandLineParserERNS1_10ConfigDataEEUliE_EESaIvELN9__gnu_cxx12_Lock_policyE2EEEESt15__allocated_ptrIT_ERSF_
FN:96,99,_ZSt18__allocate_guardedISaISt23_Sp_counted_ptr_inplaceIN5Catch5clara6detail12BoundFlagRefESaIvELN9__gnu_cxx12_Lock_policyE2EEEESt15__allocated_ptrIT_ERSB_
FN:96,99,_ZSt18__allocate_guardedISaISt23_Sp_counted_ptr_inplaceIN5Catch5clara6detail13BoundValueRefINSt7__cxx1112basic_stringIcSt11char_traitsIcESaIcEEEEESaIvELN9__gnu_cxx12_Lock_policyE2EEEESt15__allocated_ptrIT_ERSI_
FN:96,99,_ZSt18__allocate_guardedISaISt23_Sp_counted_ptr_inplaceIN5Catch5clara6detail13BoundValueRefISt6vectorINSt7__cxx1112basic_stringIcSt11char_traitsIcESaIcEEESaISB_EEEESaIvELN9__gnu_cxx12_Lock_policyE2EEEESt15__allocated_ptrIT_ERSL_
FN:96,99,_ZSt18__allocate_guardedISaISt23_Sp_counted_ptr_inplaceIN5Catch5clara6detail13BoundValueRefIdEESaIvELN9__gnu_cxx12_Lock_policyE2EEEESt15__allocated_ptrIT_ERSC_
FN:96,99,_ZSt18__allocate_guardedISaISt23_Sp_counted_ptr_inplaceIN5Catch5clara6detail13BoundValueRefIjEESaIvELN9__gnu_cxx12_Lock_policyE2EEEESt15__allocated_ptrIT_ERSC_
FN:96,99,_ZSt18__allocate_guardedISaISt23_Sp_counted_ptr_inplaceIN5Catch5clara6detail13BoundValueRefIlEESaIvELN9__gnu_cxx12_Lock_policyE2EEEESt15__allocated_ptrIT_ERSC_
FN:96,99,_ZSt18__allocate_guardedISaISt23_Sp_counted_ptr_inplaceIN5Catch5clara6detail15BoundFlagLambdaIZNS1_21makeCommandLineParserERNS1_10ConfigDataEEUlbE_EESaIvELN9__gnu_cxx12_Lock_policyE2EEEESt15__allocated_ptrIT_ERSF_
FN:96,99,_ZSt18__allocate_guardedISaISt23_Sp_counted_ptr_inplaceIN5Catch5clara6detail15BoundFlagLambdaIZNS3_4HelpC4ERbEUlbE_EESaIvELN9__gnu_cxx12_Lock_policyE2EEEESt15__allocated_ptrIT_ERSF_
FN:96,99,_ZSt18__allocate_guardedISaISt23_Sp_counted_ptr_inplaceIN5Catch6ConfigESaIvELN9__gnu_cxx12_Lock_policyE2EEEESt15__allocated_ptrIT_ERS9_
FN:96,99,_ZSt18__allocate_guardedISaISt23_Sp_counted_ptr_inplaceIN5Catch8TestSpec10TagPatternESaIvELN9__gnu_cxx12_Lock_policyE2EEEESt15__allocated_ptrIT_ERSA_
FN:96,99,_ZSt18__allocate_guardedISaISt23_Sp_counted_ptr_inplaceIN5Catch8TestSpec11NamePatternESaIvELN9__gnu_cxx12_Lock_policyE2EEEESt15__allocated_ptrIT_ERSA_
FN:96,99,_ZSt18__allocate_guardedISaISt23_Sp_counted_ptr_inplaceIN5Catch8TestSpec15ExcludedPatternESaIvELN9__gnu_cxx12_Lock_policyE2EEEESt15__allocated_ptrIT_ERSA_
FN:96,99,_ZSt18__allocate_guardedISaISt23_Sp_counted_ptr_inplaceINSt7__cxx1112basic_stringIcSt11char_traitsIcESaIcEEESaIvELN9__gnu_cxx12_Lock_policyE2EEEESt15__allocated_ptrIT_ERSD_
FN:96,99,_ZSt18__allocate_guardedISaISt23_Sp_counted_ptr_inplaceINSt8__detail4_NFAINSt7__cxx1112regex_traitsIcEEEESaIvELN9__gnu_cxx12_Lock_policyE2EEEESt15__allocated_ptrIT_ERSD_
FNDA:0,_ZNSt15__allocated_ptrISaISt23_Sp_counted_ptr_inplaceIN5Catch10Generators16GeneratorTrackerESaIvELN9__gnu_cxx12_Lock_policyE2EEEEC2ERS8_PS7_
FNDA:236,_ZNSt15__allocated_ptrISaISt23_Sp_counted_ptr_inplaceIN5Catch16TestCaseTracking14SectionTrackerESaIvELN9__gnu_cxx12_Lock_policyE2EEEEC2ERS8_PS7_
FNDA:2,_ZNSt15__allocated_ptrISaISt23_Sp_counted_ptr_inplaceIN5Catch17ReporterRegistrarINS1_11XmlReporterEE15ReporterFactoryESaIvELN9__gnu_cxx12_Lock_policyE2EEEEC2ERSA_PS9_
FNDA:2,_ZNSt15__allocated_ptrISaISt23_Sp_counted_ptr_inplaceIN5Catch17ReporterRegistrarINS1_13JunitReporterEE15ReporterFactoryESaIvELN9__gnu_cxx12_Lock_policyE2EEEEC2ERSA_PS9_
FNDA:2,_ZNSt15__allocated_ptrISaISt23_Sp_counted_ptr_inplaceIN5Catch17ReporterRegistrarINS1_15CompactReporterEE15ReporterFactoryESaIvELN9__gnu_cxx12_Lock_policyE2EEEEC2ERSA_PS9_
FNDA:2,_ZNSt15__allocated_ptrISaISt23_Sp_counted_ptr_inplaceIN5Catch17ReporterRegistrarINS1_15ConsoleReporterEE15ReporterFactoryESaIvELN9__gnu_cxx12_Lock_policyE2EEEEC2ERSA_PS9_
FNDA:0,_ZNSt15__allocated_ptrISaISt23_Sp_counted_ptr_inplaceIN5Catch22CumulativeReporterBaseINS1_13JunitReporterEE11SectionNodeESaIvELN9__gnu_cxx12_Lock_policyE2EEEEC2ERSA_PS9_
FNDA:0,_ZNSt15__allocated_ptrISaISt23_Sp_counted_ptr_inplaceIN5Catch22CumulativeReporterBaseINS1_13JunitReporterEE4NodeINS1_12TestRunStatsENS5_INS1_14TestGroupStatsENS5_INS1_13TestCaseStatsENS4_11SectionNodeEEEEEEESaIvELN9__gnu_cxx12_Lock_policyE2EEEEC2ERSH_PSG_
FNDA:0,_ZNSt15__allocated_ptrISaISt23_Sp_counted_ptr_inplaceIN5Catch22CumulativeReporterBaseINS1_13JunitReporterEE4NodeINS1_13TestCaseStatsENS4_11SectionNodeEEESaIvELN9__gnu_cxx12_Lock_policyE2EEEEC2ERSD_PSC_
FNDA:0,_ZNSt15__allocated_ptrISaISt23_Sp_counted_ptr_inplaceIN5Catch22CumulativeReporterBaseINS1_13JunitReporterEE4NodeINS1_14TestGroupStatsENS5_INS1_13TestCaseStatsENS4_11SectionNodeEEEEESaIvELN9__gnu_cxx12_Lock_policyE2EEEEC2ERSF_PSE_
FNDA:2,_ZNSt15__allocated_ptrISaISt23_Sp_counted_ptr_inplaceIN5Catch5clara6detail11BoundLambdaIZNS1_21makeCommandLineParserERNS1_10ConfigDataEEUlRKNSt7__cxx1112basic_stringIcSt11char_traitsIcESaIcEEEE0_EESaIvELN9__gnu_cxx12_Lock_policyE2EEEEC2ERSL_PSK_
FNDA:2,_ZNSt15__allocated_ptrISaISt23_Sp_counted_ptr_inplaceIN5Catch5clara6detail11BoundLambdaIZNS1_21makeCommandLineParserERNS1_10ConfigDataEEUlRKNSt7__cxx1112basic_stringIcSt11char_traitsIcESaIcEEEE1_EESaIvELN9__gnu_cxx12_Lock_policyE2EEEEC2ERSL_PSK_
FNDA:2,_ZNSt15__allocated_ptrISaISt23_Sp_counted_ptr_inplaceIN5Catch5clara6detail11BoundLambdaIZNS1_21makeCommandLineParserERNS1_10ConfigDataEEUlRKNSt7__cxx1112basic_stringIcSt11char_traitsIcESaIcEEEE2_EESaIvELN9__gnu_cxx12_Lock_policyE2EEEEC2ERSL_PSK_
FNDA:2,_ZNSt15__allocated_ptrISaISt23_Sp_counted_ptr_inplaceIN5Catch5clara6detail11BoundLambdaIZNS1_21makeCommandLineParserERNS1_10ConfigDataEEUlRKNSt7__cxx1112basic_stringIcSt11char_traitsIcESaIcEEEE3_EESaIvELN9__gnu_cxx12_Lock_policyE2EEEEC2ERSL_PSK_
FNDA:2,_ZNSt15__allocated_ptrISaISt23_Sp_counted_ptr_inplaceIN5Catch5clara6detail11BoundLambdaIZNS1_21makeCommandLineParserERNS1_10ConfigDataEEUlRKNSt7__cxx1112basic_stringIcSt11char_traitsIcESaIcEEEE4_EESaIvELN9__gnu_cxx12_Lock_policyE2EEEEC2ERSL_PSK_
FNDA:2,_ZNSt15__allocated_ptrISaISt23_Sp_counted_ptr_inplaceIN5Catch5clara6detail11BoundLambdaIZNS1_21makeCommandLineParserERNS1_10ConfigDataEEUlRKNSt7__cxx1112basic_stringIcSt11char_traitsIcESaIcEEEE5_EESaIvELN9__gnu_cxx12_Lock_policyE2EEEEC2ERSL_PSK_
FNDA:2,_ZNSt15__allocated_ptrISaISt23_Sp_counted_ptr_inplaceIN5Catch5clara6detail11BoundLambdaIZNS1_21makeCommandLineParserERNS1_10ConfigDataEEUlRKNSt7__cxx1112basic_stringIcSt11char_traitsIcESaIcEEEE6_EESaIvELN9__gnu_cxx12_Lock_policyE2EEEEC2ERSL_PSK_
FNDA:2,_ZNSt15__allocated_ptrISaISt23_Sp_counted_ptr_inplaceIN5Catch5clara6detail11BoundLambdaIZNS1_21makeCommandLineParserERNS1_10ConfigDataEEUlRKNSt7__cxx1112basic_stringIcSt11char_traitsIcESaIcEEEE_EESaIvELN9__gnu_cxx12_Lock_policyE2EEEEC2ERSL_PSK_
FNDA:2,_ZNSt15__allocated_ptrISaISt23_Sp_counted_ptr_inplaceIN5Catch5clara6detail11BoundLambdaIZNS1_21makeCommandLineParserERNS1_10ConfigDataEEUlbE0_EESaIvELN9__gnu_cxx12_Lock_policyE2EEEEC2ERSD_PSC_
FNDA:2,_ZNSt15__allocated_ptrISaISt23_Sp_counted_ptr_inplaceIN5Catch5clara6detail11BoundLambdaIZNS1_21makeCommandLineParserERNS1_10ConfigDataEEUliE_EESaIvELN9__gnu_cxx12_Lock_policyE2EEEEC2ERSD_PSC_
FNDA:22,_ZNSt15__allocated_ptrISaISt23_Sp_counted_ptr_inplaceIN5Catch5clara6detail12BoundFlagRefESaIvELN9__gnu_cxx12_Lock_policyE2EEEEC2ERS9_PS8_
FNDA:6,_ZNSt15__allocated_ptrISaISt23_Sp_counted_ptr_inplaceIN5Catch5clara6detail13BoundValueRefINSt7__cxx1112basic_stringIcSt11char_traitsIcESaIcEEEEESaIvELN9__gnu_cxx12_Lock_policyE2EEEEC2ERSG_PSF_
FNDA:4,_ZNSt15__allocated_ptrISaISt23_Sp_counted_ptr_inplaceIN5Catch5clara6detail13BoundValueRefISt6vectorINSt7__cxx1112basic_stringIcSt11char_traitsIcESaIcEEESaISB_EEEESaIvELN9__gnu_cxx12_Lock_policyE2EEEEC2ERSJ_PSI_
FNDA:4,_ZNSt15__allocated_ptrISaISt23_Sp_counted_ptr_inplaceIN5Catch5clara6detail13BoundValueRefIdEESaIvELN9__gnu_cxx12_Lock_policyE2EEEEC2ERSA_PS9_
FNDA:4,_ZNSt15__allocated_ptrISaISt23_Sp_counted_ptr_inplaceIN5Catch5clara6detail13BoundValueRefIjEESaIvELN9__gnu_cxx12_Lock_policyE2EEEEC2ERSA_PS9_
FNDA:2,_ZNSt15__allocated_ptrISaISt23_Sp_counted_ptr_inplaceIN5Catch5clara6detail13BoundValueRefIlEESaIvELN9__gnu_cxx12_Lock_policyE2EEEEC2ERSA_PS9_
FNDA:2,_ZNSt15__allocated_ptrISaISt23_Sp_counted_ptr_inplaceIN5Catch5clara6detail15BoundFlagLambdaIZNS1_21makeCommandLineParserERNS1_10ConfigDataEEUlbE_EESaIvELN9__gnu_cxx12_Lock_policyE2EEEEC2ERSD_PSC_
FNDA:2,_ZNSt15__allocated_ptrISaISt23_Sp_counted_ptr_inplaceIN5Catch5clara6detail15BoundFlagLambdaIZNS3_4HelpC4ERbEUlbE_EESaIvELN9__gnu_cxx12_Lock_policyE2EEEEC2ERSD_PSC_
FNDA:2,_ZNSt15__allocated_ptrISaISt23_Sp_counted_ptr_inplaceIN5Catch6ConfigESaIvELN9__gnu_cxx12_Lock_policyE2EEEEC2ERS7_PS6_
FNDA:0,_ZNSt15__allocated_ptrISaISt23_Sp_counted_ptr_inplaceIN5Catch8TestSpec10TagPatternESaIvELN9__gnu_cxx12_Lock_policyE2EEEEC2ERS8_PS7_
FNDA:0,_ZNSt15__allocated_ptrISaISt23_Sp_counted_ptr_inplaceIN5Catch8TestSpec11NamePatternESaIvELN9__gnu_cxx12_Lock_policyE2EEEEC2ERS8_PS7_
FNDA:0,_ZNSt15__allocated_ptrISaISt23_Sp_counted_ptr_inplaceIN5Catch8TestSpec15ExcludedPatternESaIvELN9__gnu_cxx12_Lock_policyE2EEEEC2ERS8_PS7_
FNDA:6,_ZNSt15__allocated_ptrISaISt23_Sp_counted_ptr_inplaceINSt7__cxx1112basic_stringIcSt11char_traitsIcESaIcEEESaIvELN9__gnu_cxx12_Lock_policyE2EEEEC2ERSB_PSA_
FNDA:0,_ZNSt15__allocated_ptrISaISt23_Sp_counted_ptr_inplaceINSt8__detail4_NFAINSt7__cxx1112regex_traitsIcEEEESaIvELN9__gnu_cxx12_Lock_policyE2EEEEC2ERSB_PSA_
FNDA:0,_ZNSt15__allocated_ptrISaISt23_Sp_counted_ptr_inplaceIN5Catch10Generators16GeneratorTrackerESaIvELN9__gnu_cxx12_Lock_policyE2EEEED2Ev
FNDA:236,_ZNSt15__allocated_ptrISaISt23_Sp_counted_ptr_inplaceIN5Catch16TestCaseTracking14SectionTrackerESaIvELN9__gnu_cxx12_Lock_policyE2EEEED2Ev
FNDA:2,_ZNSt15__allocated_ptrISaISt23_Sp_counted_ptr_inplaceIN5Catch17ReporterRegistrarINS1_11XmlReporterEE15ReporterFactoryESaIvELN9__gnu_cxx12_Lock_policyE2EEEED2Ev
FNDA:2,_ZNSt15__allocated_ptrISaISt23_Sp_counted_ptr_inplaceIN5Catch17ReporterRegistrarINS1_13JunitReporterEE15ReporterFactoryESaIvELN9__gnu_cxx12_Lock_policyE2EEEED2Ev
FNDA:2,_ZNSt15__allocated_ptrISaISt23_Sp_counted_ptr_inplaceIN5Catch17ReporterRegistrarINS1_15CompactReporterEE15ReporterFactoryESaIvELN9__gnu_cxx12_Lock_policyE2EEEED2Ev
FNDA:2,_ZNSt15__allocated_ptrISaISt23_Sp_counted_ptr_inplaceIN5Catch17ReporterRegistrarINS1_15ConsoleReporterEE15ReporterFactoryESaIvELN9__gnu_cxx12_Lock_policyE2EEEED2Ev
FNDA:0,_ZNSt15__allocated_ptrISaISt23_Sp_counted_ptr_inplaceIN5Catch22CumulativeReporterBaseINS1_13JunitReporterEE11SectionNodeESaIvELN9__gnu_cxx12_Lock_policyE2EEEED2Ev
FNDA:0,_ZNSt15__allocated_ptrISaISt23_Sp_counted_ptr_inplaceIN5Catch22CumulativeReporterBaseINS1_13JunitReporterEE4NodeINS1_12TestRunStatsENS5_INS1_14TestGroupStatsENS5_INS1_13TestCaseStatsENS4_11SectionNodeEEEEEEESaIvELN9__gnu_cxx12_Lock_policyE2EEEED2Ev
FNDA:0,_ZNSt15__allocated_ptrISaISt23_Sp_counted_ptr_inplaceIN5Catch22CumulativeReporterBaseINS1_13JunitReporterEE4NodeINS1_13TestCaseStatsENS4_11SectionNodeEEESaIvELN9__gnu_cxx12_Lock_policyE2EEEED2Ev
FNDA:0,_ZNSt15__allocated_ptrISaISt23_Sp_counted_ptr_inplaceIN5Catch22CumulativeReporterBaseINS1_13JunitReporterEE4NodeINS1_14TestGroupStatsENS5_INS1_13TestCaseStatsENS4_11SectionNodeEEEEESaIvELN9__gnu_cxx12_Lock_policyE2EEEED2Ev
FNDA:2,_ZNSt15__allocated_ptrISaISt23_Sp_counted_ptr_inplaceIN5Catch5clara6detail11BoundLambdaIZNS1_21makeCommandLineParserERNS1_10ConfigDataEEUlRKNSt7__cxx1112basic_stringIcSt11char_traitsIcESaIcEEEE0_EESaIvELN9__gnu_cxx12_Lock_policyE2EEEED2Ev
FNDA:2,_ZNSt15__allocated_ptrISaISt23_Sp_counted_ptr_inplaceIN5Catch5clara6detail11BoundLambdaIZNS1_21makeCommandLineParserERNS1_10ConfigDataEEUlRKNSt7__cxx1112basic_stringIcSt11char_traitsIcESaIcEEEE1_EESaIvELN9__gnu_cxx12_Lock_policyE2EEEED2Ev
FNDA:2,_ZNSt15__allocated_ptrISaISt23_Sp_counted_ptr_inplaceIN5Catch5clara6detail11BoundLambdaIZNS1_21makeCommandLineParserERNS1_10ConfigDataEEUlRKNSt7__cxx1112basic_stringIcSt11char_traitsIcESaIcEEEE2_EESaIvELN9__gnu_cxx12_Lock_policyE2EEEED2Ev
FNDA:2,_ZNSt15__allocated_ptrISaISt23_Sp_counted_ptr_inplaceIN5Catch5clara6detail11BoundLambdaIZNS1_21makeCommandLineParserERNS1_10ConfigDataEEUlRKNSt7__cxx1112basic_stringIcSt11char_traitsIcESaIcEEEE3_EESaIvELN9__gnu_cxx12_Lock_policyE2EEEED2Ev
FNDA:2,_ZNSt15__allocated_ptrISaISt23_Sp_counted_ptr_inplaceIN5Catch5clara6detail11BoundLambdaIZNS1_21makeCommandLineParserERNS1_10ConfigDataEEUlRKNSt7__cxx1112basic_stringIcSt11char_traitsIcESaIcEEEE4_EESaIvELN9__gnu_cxx12_Lock_policyE2EEEED2Ev
FNDA:2,_ZNSt15__allocated_ptrISaISt23_Sp_counted_ptr_inplaceIN5Catch5clara6detail11BoundLambdaIZNS1_21makeCommandLineParserERNS1_10ConfigDataEEUlRKNSt7__cxx1112basic_stringIcSt11char_traitsIcESaIcEEEE5_EESaIvELN9__gnu_cxx12_Lock_policyE2EEEED2Ev
FNDA:2,_ZNSt15__allocated_ptrISaISt23_Sp_counted_ptr_inplaceIN5Catch5clara6detail11BoundLambdaIZNS1_21makeCommandLineParserERNS1_10ConfigDataEEUlRKNSt7__cxx1112basic_stringIcSt11char_traitsIcESaIcEEEE6_EESaIvELN9__gnu_cxx12_Lock_policyE2EEEED2Ev
FNDA:2,_ZNSt15__allocated_ptrISaISt23_Sp_counted_ptr_inplaceIN5Catch5clara6detail11BoundLambdaIZNS1_21makeCommandLineParserERNS1_10ConfigDataEEUlRKNSt7__cxx1112basic_stringIcSt11char_traitsIcESaIcEEEE_EESaIvELN9__gnu_cxx12_Lock_policyE2EEEED2Ev
FNDA:2,_ZNSt15__allocated_ptrISaISt23_Sp_counted_ptr_inplaceIN5Catch5clara6detail11BoundLambdaIZNS1_21makeCommandLineParserERNS1_10ConfigDataEEUlbE0_EESaIvELN9__gnu_cxx12_Lock_policyE2EEEED2Ev
FNDA:2,_ZNSt15__allocated_ptrISaISt23_Sp_counted_ptr_inplaceIN5Catch5clara6detail11BoundLambdaIZNS1_21makeCommandLineParserERNS1_10ConfigDataEEUliE_EESaIvELN9__gnu_cxx12_Lock_policyE2EEEED2Ev
FNDA:22,_ZNSt15__allocated_ptrISaISt23_Sp_counted_ptr_inplaceIN5Catch5clara6detail12BoundFlagRefESaIvELN9__gnu_cxx12_Lock_policyE2EEEED2Ev
FNDA:6,_ZNSt15__allocated_ptrISaISt23_Sp_counted_ptr_inplaceIN5Catch5clara6detail13BoundValueRefINSt7__cxx1112basic_stringIcSt11char_traitsIcESaIcEEEEESaIvELN9__gnu_cxx12_Lock_policyE2EEEED2Ev
FNDA:4,_ZNSt15__allocated_ptrISaISt23_Sp_counted_ptr_inplaceIN5Catch5clara6detail13BoundValueRefISt6vectorINSt7__cxx1112basic_stringIcSt11char_traitsIcESaIcEEESaISB_EEEESaIvELN9__gnu_cxx12_Lock_policyE2EEEED2Ev
FNDA:4,_ZNSt15__allocated_ptrISaISt23_Sp_counted_ptr_inplaceIN5Catch5clara6detail13BoundValueRefIdEESaIvELN9__gnu_cxx12_Lock_policyE2EEEED2Ev
FNDA:4,_ZNSt15__allocated_ptrISaISt23_Sp_counted_ptr_inplaceIN5Catch5clara6detail13BoundValueRefIjEESaIvELN9__gnu_cxx12_Lock_policyE2EEEED2Ev
FNDA:2,_ZNSt15__allocated_ptrISaISt23_Sp_counted_ptr_inplaceIN5Catch5clara6detail13BoundValueRefIlEESaIvELN9__gnu_cxx12_Lock_policyE2EEEED2Ev
FNDA:2,_ZNSt15__allocated_ptrISaISt23_Sp_counted_ptr_inplaceIN5Catch5clara6detail15BoundFlagLambdaIZNS1_21makeCommandLineParserERNS1_10ConfigDataEEUlbE_EESaIvELN9__gnu_cxx12_Lock_policyE2EEEED2Ev
FNDA:2,_ZNSt15__allocated_ptrISaISt23_Sp_counted_ptr_inplaceIN5Catch5clara6detail15BoundFlagLambdaIZNS3_4HelpC4ERbEUlbE_EESaIvELN9__gnu_cxx12_Lock_policyE2EEEED2Ev
FNDA:2,_ZNSt15__allocated_ptrISaISt23_Sp_counted_ptr_inplaceIN5Catch6ConfigESaIvELN9__gnu_cxx12_Lock_policyE2EEEED2Ev
FNDA:0,_ZNSt15__allocated_ptrISaISt23_Sp_counted_ptr_inplaceIN5Catch8TestSpec10TagPatternESaIvELN9__gnu_cxx12_Lock_policyE2EEEED2Ev
FNDA:0,_ZNSt15__allocated_ptrISaISt23_Sp_counted_ptr_inplaceIN5Catch8TestSpec11NamePatternESaIvELN9__gnu_cxx12_Lock_policyE2EEEED2Ev
FNDA:0,_ZNSt15__allocated_ptrISaISt23_Sp_counted_ptr_inplaceIN5Catch8TestSpec15ExcludedPatternESaIvELN9__gnu_cxx12_Lock_policyE2EEEED2Ev
FNDA:6,_ZNSt15__allocated_ptrISaISt23_Sp_counted_ptr_inplaceINSt7__cxx1112basic_stringIcSt11char_traitsIcESaIcEEESaIvELN9__gnu_cxx12_Lock_policyE2EEEED2Ev
FNDA:0,_ZNSt15__allocated_ptrISaISt23_Sp_counted_ptr_inplaceINSt8__detail4_NFAINSt7__cxx1112regex_traitsIcEEEESaIvELN9__gnu_cxx12_Lock_policyE2EEEED2Ev
FNDA:0,_ZNSt15__allocated_ptrISaISt23_Sp_counted_ptr_inplaceIN5Catch10Generators16GeneratorTrackerESaIvELN9__gnu_cxx12_Lock_policyE2EEEEaSEDn
FNDA:118,_ZNSt15__allocated_ptrISaISt23_Sp_counted_ptr_inplaceIN5Catch16TestCaseTracking14SectionTrackerESaIvELN9__gnu_cxx12_Lock_policyE2EEEEaSEDn
FNDA:1,_ZNSt15__allocated_ptrISaISt23_Sp_counted_ptr_inplaceIN5Catch17ReporterRegistrarINS1_11XmlReporterEE15ReporterFactoryESaIvELN9__gnu_cxx12_Lock_policyE2EEEEaSEDn
FNDA:1,_ZNSt15__allocated_ptrISaISt23_Sp_counted_ptr_inplaceIN5Catch17ReporterRegistrarINS1_13JunitReporterEE15ReporterFactoryESaIvELN9__gnu_cxx12_Lock_policyE2EEEEaSEDn
FNDA:1,_ZNSt15__allocated_ptrISaISt23_Sp_counted_ptr_inplaceIN5Catch17ReporterRegistrarINS1_15CompactReporterEE15ReporterFactoryESaIvELN9__gnu_cxx12_Lock_policyE2EEEEaSEDn
FNDA:1,_ZNSt15__allocated_ptrISaISt23_Sp_counted_ptr_inplaceIN5Catch17ReporterRegistrarINS1_15ConsoleReporterEE15ReporterFactoryESaIvELN9__gnu_cxx12_Lock_policyE2EEEEaSEDn
FNDA:0,_ZNSt15__allocated_ptrISaISt23_Sp_counted_ptr_inplaceIN5Catch22CumulativeReporterBaseINS1_13JunitReporterEE11SectionNodeESaIvELN9__gnu_cxx12_Lock_policyE2EEEEaSEDn
FNDA:0,_ZNSt15__allocated_ptrISaISt23_Sp_counted_ptr_inplaceIN5Catch22CumulativeReporterBaseINS1_13JunitReporterEE4NodeINS1_12TestRunStatsENS5_INS1_14TestGroupStatsENS5_INS1_13TestCaseStatsENS4_11SectionNodeEEEEEEESaIvELN9__gnu_cxx12_Lock_policyE2EEEEaSEDn
FNDA:0,_ZNSt15__allocated_ptrISaISt23_Sp_counted_ptr_inplaceIN5Catch22CumulativeReporterBaseINS1_13JunitReporterEE4NodeINS1_13TestCaseStatsENS4_11SectionNodeEEESaIvELN9__gnu_cxx12_Lock_policyE2EEEEaSEDn
FNDA:0,_ZNSt15__allocated_ptrISaISt23_Sp_counted_ptr_inplaceIN5Catch22CumulativeReporterBaseINS1_13JunitReporterEE4NodeINS1_14TestGroupStatsENS5_INS1_13TestCaseStatsENS4_11SectionNodeEEEEESaIvELN9__gnu_cxx12_Lock_policyE2EEEEaSEDn
FNDA:1,_ZNSt15__allocated_ptrISaISt23_Sp_counted_ptr_inplaceIN5Catch5clara6detail11BoundLambdaIZNS1_21makeCommandLineParserERNS1_10ConfigDataEEUlRKNSt7__cxx1112basic_stringIcSt11char_traitsIcESaIcEEEE0_EESaIvELN9__gnu_cxx12_Lock_policyE2EEEEaSEDn
FNDA:1,_ZNSt15__allocated_ptrISaISt23_Sp_counted_ptr_inplaceIN5Catch5clara6detail11BoundLambdaIZNS1_21makeCommandLineParserERNS1_10ConfigDataEEUlRKNSt7__cxx1112basic_stringIcSt11char_traitsIcESaIcEEEE1_EESaIvELN9__gnu_cxx12_Lock_policyE2EEEEaSEDn
FNDA:1,_ZNSt15__allocated_ptrISaISt23_Sp_counted_ptr_inplaceIN5Catch5clara6detail11BoundLambdaIZNS1_21makeCommandLineParserERNS1_10ConfigDataEEUlRKNSt7__cxx1112basic_stringIcSt11char_traitsIcESaIcEEEE2_EESaIvELN9__gnu_cxx12_Lock_policyE2EEEEaSEDn
FNDA:1,_ZNSt15__allocated_ptrISaISt23_Sp_counted_ptr_inplaceIN5Catch5clara6detail11BoundLambdaIZNS1_21makeCommandLineParserERNS1_10ConfigDataEEUlRKNSt7__cxx1112basic_stringIcSt11char_traitsIcESaIcEEEE3_EESaIvELN9__gnu_cxx12_Lock_policyE2EEEEaSEDn
FNDA:1,_ZNSt15__allocated_ptrISaISt23_Sp_counted_ptr_inplaceIN5Catch5clara6detail11BoundLambdaIZNS1_21makeCommandLineParserERNS1_10ConfigDataEEUlRKNSt7__cxx1112basic_stringIcSt11char_traitsIcESaIcEEEE4_EESaIvELN9__gnu_cxx12_Lock_policyE2EEEEaSEDn
FNDA:1,_ZNSt15__allocated_ptrISaISt23_Sp_counted_ptr_inplaceIN5Catch5clara6detail11BoundLambdaIZNS1_21makeCommandLineParserERNS1_10ConfigDataEEUlRKNSt7__cxx1112basic_stringIcSt11char_traitsIcESaIcEEEE5_EESaIvELN9__gnu_cxx12_Lock_policyE2EEEEaSEDn
FNDA:1,_ZNSt15__allocated_ptrISaISt23_Sp_counted_ptr_inplaceIN5Catch5clara6detail11BoundLambdaIZNS1_21makeCommandLineParserERNS1_10ConfigDataEEUlRKNSt7__cxx1112basic_stringIcSt11char_traitsIcESaIcEEEE6_EESaIvELN9__gnu_cxx12_Lock_policyE2EEEEaSEDn
FNDA:1,_ZNSt15__allocated_ptrISaISt23_Sp_counted_ptr_inplaceIN5Catch5clara6detail11BoundLambdaIZNS1_21makeCommandLineParserERNS1_10ConfigDataEEUlRKNSt7__cxx1112basic_stringIcSt11char_traitsIcESaIcEEEE_EESaIvELN9__gnu_cxx12_Lock_policyE2EEEEaSEDn
FNDA:1,_ZNSt15__allocated_ptrISaISt23_Sp_counted_ptr_inplaceIN5Catch5clara6detail11BoundLambdaIZNS1_21makeCommandLineParserERNS1_10ConfigDataEEUlbE0_EESaIvELN9__gnu_cxx12_Lock_policyE2EEEEaSEDn
FNDA:1,_ZNSt15__allocated_ptrISaISt23_Sp_counted_ptr_inplaceIN5Catch5clara6detail11BoundLambdaIZNS1_21makeCommandLineParserERNS1_10ConfigDataEEUliE_EESaIvELN9__gnu_cxx12_Lock_policyE2EEEEaSEDn
FNDA:11,_ZNSt15__allocated_ptrISaISt23_Sp_counted_ptr_inplaceIN5Catch5clara6detail12BoundFlagRefESaIvELN9__gnu_cxx12_Lock_policyE2EEEEaSEDn
FNDA:3,_ZNSt15__allocated_ptrISaISt23_Sp_counted_ptr_inplaceIN5Catch5clara6detail13BoundValueRefINSt7__cxx1112basic_stringIcSt11char_traitsIcESaIcEEEEESaIvELN9__gnu_cxx12_Lock_policyE2EEEEaSEDn
FNDA:2,_ZNSt15__allocated_ptrISaISt23_Sp_counted_ptr_inplaceIN5Catch5clara6detail13BoundValueRefISt6vectorINSt7__cxx1112basic_stringIcSt11char_traitsIcESaIcEEESaISB_EEEESaIvELN9__gnu_cxx12_Lock_policyE2EEEEaSEDn
FNDA:2,_ZNSt15__allocated_ptrISaISt23_Sp_counted_ptr_inplaceIN5Catch5clara6detail13BoundValueRefIdEESaIvELN9__gnu_cxx12_Lock_policyE2EEEEaSEDn
FNDA:2,_ZNSt15__allocated_ptrISaISt23_Sp_counted_ptr_inplaceIN5Catch5clara6detail13BoundValueRefIjEESaIvELN9__gnu_cxx12_Lock_policyE2EEEEaSEDn
FNDA:1,_ZNSt15__allocated_ptrISaISt23_Sp_counted_ptr_inplaceIN5Catch5clara6detail13BoundValueRefIlEESaIvELN9__gnu_cxx12_Lock_policyE2EEEEaSEDn
FNDA:1,_ZNSt15__allocated_ptrISaISt23_Sp_counted_ptr_inplaceIN5Catch5clara6detail15BoundFlagLambdaIZNS1_21makeCommandLineParserERNS1_10ConfigDataEEUlbE_EESaIvELN9__gnu_cxx12_Lock_policyE2EEEEaSEDn
FNDA:1,_ZNSt15__allocated_ptrISaISt23_Sp_counted_ptr_inplaceIN5Catch5clara6detail15BoundFlagLambdaIZNS3_4HelpC4ERbEUlbE_EESaIvELN9__gnu_cxx12_Lock_policyE2EEEEaSEDn
FNDA:1,_ZNSt15__allocated_ptrISaISt23_Sp_counted_ptr_inplaceIN5Catch6ConfigESaIvELN9__gnu_cxx12_Lock_policyE2EEEEaSEDn
FNDA:0,_ZNSt15__allocated_ptrISaISt23_Sp_counted_ptr_inplaceIN5Catch8TestSpec10TagPatternESaIvELN9__gnu_cxx12_Lock_policyE2EEEEaSEDn
FNDA:0,_ZNSt15__allocated_ptrISaISt23_Sp_counted_ptr_inplaceIN5Catch8TestSpec11NamePatternESaIvELN9__gnu_cxx12_Lock_policyE2EEEEaSEDn
FNDA:0,_ZNSt15__allocated_ptrISaISt23_Sp_counted_ptr_inplaceIN5Catch8TestSpec15ExcludedPatternESaIvELN9__gnu_cxx12_Lock_policyE2EEEEaSEDn
FNDA:3,_ZNSt15__allocated_ptrISaISt23_Sp_counted_ptr_inplaceINSt7__cxx1112basic_stringIcSt11char_traitsIcESaIcEEESaIvELN9__gnu_cxx12_Lock_policyE2EEEEaSEDn
FNDA:0,_ZNSt15__allocated_ptrISaISt23_Sp_counted_ptr_inplaceINSt8__detail4_NFAINSt7__cxx1112regex_traitsIcEEEESaIvELN9__gnu_cxx12_Lock_policyE2EEEEaSEDn
FNDA:0,_ZNSt15__allocated_ptrISaISt23_Sp_counted_ptr_inplaceIN5Catch10Generators16GeneratorTrackerESaIvELN9__gnu_cxx12_Lock_policyE2EEEE3getEv
FNDA:118,_ZNSt15__allocated_ptrISaISt23_Sp_counted_ptr_inplaceIN5Catch16TestCaseTracking14SectionTrackerESaIvELN9__gnu_cxx12_Lock_policyE2EEEE3getEv
FNDA:1,_ZNSt15__allocated_ptrISaISt23_Sp_counted_ptr_inplaceIN5Catch17ReporterRegistrarINS1_11XmlReporterEE15ReporterFactoryESaIvELN9__gnu_cxx12_Lock_policyE2EEEE3getEv
FNDA:1,_ZNSt15__allocated_ptrISaISt23_Sp_counted_ptr_inplaceIN5Catch17ReporterRegistrarINS1_13JunitReporterEE15ReporterFactoryESaIvELN9__gnu_cxx12_Lock_policyE2EEEE3getEv
FNDA:1,_ZNSt15__allocated_ptrISaISt23_Sp_counted_ptr_inplaceIN5Catch17ReporterRegistrarINS1_15CompactReporterEE15ReporterFactoryESaIvELN9__gnu_cxx12_Lock_policyE2EEEE3getEv
FNDA:1,_ZNSt15__allocated_ptrISaISt23_Sp_counted_ptr_inplaceIN5Catch17ReporterRegistrarINS1_15ConsoleReporterEE15ReporterFactoryESaIvELN9__gnu_cxx12_Lock_policyE2EEEE3getEv
FNDA:0,_ZNSt15__allocated_ptrISaISt23_Sp_counted_ptr_inplaceIN5Catch22CumulativeReporterBaseINS1_13JunitReporterEE11SectionNodeESaIvELN9__gnu_cxx12_Lock_policyE2EEEE3getEv
FNDA:0,_ZNSt15__allocated_ptrISaISt23_Sp_counted_ptr_inplaceIN5Catch22CumulativeReporterBaseINS1_13JunitReporterEE4NodeINS1_12TestRunStatsENS5_INS1_14TestGroupStatsENS5_INS1_13TestCaseStatsENS4_11SectionNodeEEEEEEESaIvELN9__gnu_cxx12_Lock_policyE2EEEE3getEv
FNDA:0,_ZNSt15__allocated_ptrISaISt23_Sp_counted_ptr_inplaceIN5Catch22CumulativeReporterBaseINS1_13JunitReporterEE4NodeINS1_13TestCaseStatsENS4_11SectionNodeEEESaIvELN9__gnu_cxx12_Lock_policyE2EEEE3getEv
FNDA:0,_ZNSt15__allocated_ptrISaISt23_Sp_counted_ptr_inplaceIN5Catch22CumulativeReporterBaseINS1_13JunitReporterEE4NodeINS1_14TestGroupStatsENS5_INS1_13TestCaseStatsENS4_11SectionNodeEEEEESaIvELN9__gnu_cxx12_Lock_policyE2EEEE3getEv
FNDA:1,_ZNSt15__allocated_ptrISaISt23_Sp_counted_ptr_inplaceIN5Catch5clara6detail11BoundLambdaIZNS1_21makeCommandLineParserERNS1_10ConfigDataEEUlRKNSt7__cxx1112basic_stringIcSt11char_traitsIcESaIcEEEE0_EESaIvELN9__gnu_cxx12_Lock_policyE2EEEE3getEv
FNDA:1,_ZNSt15__allocated_ptrISaISt23_Sp_counted_ptr_inplaceIN5Catch5clara6detail11BoundLambdaIZNS1_21makeCommandLineParserERNS1_10ConfigDataEEUlRKNSt7__cxx1112basic_stringIcSt11char_traitsIcESaIcEEEE1_EESaIvELN9__gnu_cxx12_Lock_policyE2EEEE3getEv
FNDA:1,_ZNSt15__allocated_ptrISaISt23_Sp_counted_ptr_inplaceIN5Catch5clara6detail11BoundLambdaIZNS1_21makeCommandLineParserERNS1_10ConfigDataEEUlRKNSt7__cxx1112basic_stringIcSt11char_traitsIcESaIcEEEE2_EESaIvELN9__gnu_cxx12_Lock_policyE2EEEE3getEv
FNDA:1,_ZNSt15__allocated_ptrISaISt23_Sp_counted_ptr_inplaceIN5Catch5clara6detail11BoundLambdaIZNS1_21makeCommandLineParserERNS1_10ConfigDataEEUlRKNSt7__cxx1112basic_stringIcSt11char_traitsIcESaIcEEEE3_EESaIvELN9__gnu_cxx12_Lock_policyE2EEEE3getEv
FNDA:1,_ZNSt15__allocated_ptrISaISt23_Sp_counted_ptr_inplaceIN5Catch5clara6detail11BoundLambdaIZNS1_21makeCommandLineParserERNS1_10ConfigDataEEUlRKNSt7__cxx1112basic_stringIcSt11char_traitsIcESaIcEEEE4_EESaIvELN9__gnu_cxx12_Lock_policyE2EEEE3getEv
FNDA:1,_ZNSt15__allocated_ptrISaISt23_Sp_counted_ptr_inplaceIN5Catch5clara6detail11BoundLambdaIZNS1_21makeCommandLineParserERNS1_10ConfigDataEEUlRKNSt7__cxx1112basic_stringIcSt11char_traitsIcESaIcEEEE5_EESaIvELN9__gnu_cxx12_Lock_policyE2EEEE3getEv
FNDA:1,_ZNSt15__allocated_ptrISaISt23_Sp_counted_ptr_inplaceIN5Catch5clara6detail11BoundLambdaIZNS1_21makeCommandLineParserERNS1_10ConfigDataEEUlRKNSt7__cxx1112basic_stringIcSt11char_traitsIcESaIcEEEE6_EESaIvELN9__gnu_cxx12_Lock_policyE2EEEE3getEv
FNDA:1,_ZNSt15__allocated_ptrISaISt23_Sp_counted_ptr_inplaceIN5Catch5clara6detail11BoundLambdaIZNS1_21makeCommandLineParserERNS1_10ConfigDataEEUlRKNSt7__cxx1112basic_stringIcSt11char_traitsIcESaIcEEEE_EESaIvELN9__gnu_cxx12_Lock_policyE2EEEE3getEv
FNDA:1,_ZNSt15__allocated_ptrISaISt23_Sp_counted_ptr_inplaceIN5Catch5clara6detail11BoundLambdaIZNS1_21makeCommandLineParserERNS1_10ConfigDataEEUlbE0_EESaIvELN9__gnu_cxx12_Lock_policyE2EEEE3getEv
FNDA:1,_ZNSt15__allocated_ptrISaISt23_Sp_counted_ptr_inplaceIN5Catch5clara6detail11BoundLambdaIZNS1_21makeCommandLineParserERNS1_10ConfigDataEEUliE_EESaIvELN9__gnu_cxx12_Lock_policyE2EEEE3getEv
FNDA:11,_ZNSt15__allocated_ptrISaISt23_Sp_counted_ptr_inplaceIN5Catch5clara6detail12BoundFlagRefESaIvELN9__gnu_cxx12_Lock_policyE2EEEE3getEv
FNDA:3,_ZNSt15__allocated_ptrISaISt23_Sp_counted_ptr_inplaceIN5Catch5clara6detail13BoundValueRefINSt7__cxx1112basic_stringIcSt11char_traitsIcESaIcEEEEESaIvELN9__gnu_cxx12_Lock_policyE2EEEE3getEv
FNDA:2,_ZNSt15__allocated_ptrISaISt23_Sp_counted_ptr_inplaceIN5Catch5clara6detail13BoundValueRefISt6vectorINSt7__cxx1112basic_stringIcSt11char_traitsIcESaIcEEESaISB_EEEESaIvELN9__gnu_cxx12_Lock_policyE2EEEE3getEv
FNDA:2,_ZNSt15__allocated_ptrISaISt23_Sp_counted_ptr_inplaceIN5Catch5clara6detail13BoundValueRefIdEESaIvELN9__gnu_cxx12_Lock_policyE2EEEE3getEv
FNDA:2,_ZNSt15__allocated_ptrISaISt23_Sp_counted_ptr_inplaceIN5Catch5clara6detail13BoundValueRefIjEESaIvELN9__gnu_cxx12_Lock_policyE2EEEE3getEv
FNDA:1,_ZNSt15__allocated_ptrISaISt23_Sp_counted_ptr_inplaceIN5Catch5clara6detail13BoundValueRefIlEESaIvELN9__gnu_cxx12_Lock_policyE2EEEE3getEv
FNDA:1,_ZNSt15__allocated_ptrISaISt23_Sp_counted_ptr_inplaceIN5Catch5clara6detail15BoundFlagLambdaIZNS1_21makeCommandLineParserERNS1_10ConfigDataEEUlbE_EESaIvELN9__gnu_cxx12_Lock_policyE2EEEE3getEv
FNDA:1,_ZNSt15__allocated_ptrISaISt23_Sp_counted_ptr_inplaceIN5Catch5clara6detail15BoundFlagLambdaIZNS3_4HelpC4ERbEUlbE_EESaIvELN9__gnu_cxx12_Lock_policyE2EEEE3getEv
FNDA:1,_ZNSt15__allocated_ptrISaISt23_Sp_counted_ptr_inplaceIN5Catch6ConfigESaIvELN9__gnu_cxx12_Lock_policyE2EEEE3getEv
FNDA:0,_ZNSt15__allocated_ptrISaISt23_Sp_counted_ptr_inplaceIN5Catch8TestSpec10TagPatternESaIvELN9__gnu_cxx12_Lock_policyE2EEEE3getEv
FNDA:0,_ZNSt15__allocated_ptrISaISt23_Sp_counted_ptr_inplaceIN5Catch8TestSpec11NamePatternESaIvELN9__gnu_cxx12_Lock_policyE2EEEE3getEv
FNDA:0,_ZNSt15__allocated_ptrISaISt23_Sp_counted_ptr_inplaceIN5Catch8TestSpec15ExcludedPatternESaIvELN9__gnu_cxx12_Lock_policyE2EEEE3getEv
FNDA:3,_ZNSt15__allocated_ptrISaISt23_Sp_counted_ptr_inplaceINSt7__cxx1112basic_stringIcSt11char_traitsIcESaIcEEESaIvELN9__gnu_cxx12_Lock_policyE2EEEE3getEv
FNDA:0,_ZNSt15__allocated_ptrISaISt23_Sp_counted_ptr_inplaceINSt8__detail4_NFAINSt7__cxx1112regex_traitsIcEEEESaIvELN9__gnu_cxx12_Lock_policyE2EEEE3getEv
FNDA:0,_ZSt18__allocate_guardedISaISt23_Sp_counted_ptr_inplaceIN5Catch10Generators16GeneratorTrackerESaIvELN9__gnu_cxx12_Lock_policyE2EEEESt15__allocated_ptrIT_ERSA_
FNDA:118,_ZSt18__allocate_guardedISaISt23_Sp_counted_ptr_inplaceIN5Catch16TestCaseTracking14SectionTrackerESaIvELN9__gnu_cxx12_Lock_policyE2EEEESt15__allocated_ptrIT_ERSA_
FNDA:1,_ZSt18__allocate_guardedISaISt23_Sp_counted_ptr_inplaceIN5Catch17ReporterRegistrarINS1_11XmlReporterEE15ReporterFactoryESaIvELN9__gnu_cxx12_Lock_policyE2EEEESt15__allocated_ptrIT_ERSC_
FNDA:1,_ZSt18__allocate_guardedISaISt23_Sp_counted_ptr_inplaceIN5Catch17ReporterRegistrarINS1_13JunitReporterEE15ReporterFactoryESaIvELN9__gnu_cxx12_Lock_policyE2EEEESt15__allocated_ptrIT_ERSC_
FNDA:1,_ZSt18__allocate_guardedISaISt23_Sp_counted_ptr_inplaceIN5Catch17ReporterRegistrarINS1_15CompactReporterEE15ReporterFactoryESaIvELN9__gnu_cxx12_Lock_policyE2EEEESt15__allocated_ptrIT_ERSC_
FNDA:1,_ZSt18__allocate_guardedISaISt23_Sp_counted_ptr_inplaceIN5Catch17ReporterRegistrarINS1_15ConsoleReporterEE15ReporterFactoryESaIvELN9__gnu_cxx12_Lock_policyE2EEEESt15__allocated_ptrIT_ERSC_
FNDA:0,_ZSt18__allocate_guardedISaISt23_Sp_counted_ptr_inplaceIN5Catch22CumulativeReporterBaseINS1_13JunitReporterEE11SectionNodeESaIvELN9__gnu_cxx12_Lock_policyE2EEEESt15__allocated_ptrIT_ERSC_
FNDA:0,_ZSt18__allocate_guardedISaISt23_Sp_counted_ptr_inplaceIN5Catch22CumulativeReporterBaseINS1_13JunitReporterEE4NodeINS1_12TestRunStatsENS5_INS1_14TestGroupStatsENS5_INS1_13TestCaseStatsENS4_11SectionNodeEEEEEEESaIvELN9__gnu_cxx12_Lock_policyE2EEEESt15__allocated_ptrIT_ERSJ_
FNDA:0,_ZSt18__allocate_guardedISaISt23_Sp_counted_ptr_inplaceIN5Catch22CumulativeReporterBaseINS1_13JunitReporterEE4NodeINS1_13TestCaseStatsENS4_11SectionNodeEEESaIvELN9__gnu_cxx12_Lock_policyE2EEEESt15__allocated_ptrIT_ERSF_
FNDA:0,_ZSt18__allocate_guardedISaISt23_Sp_counted_ptr_inplaceIN5Catch22CumulativeReporterBaseINS1_13JunitReporterEE4NodeINS1_14TestGroupStatsENS5_INS1_13TestCaseStatsENS4_11SectionNodeEEEEESaIvELN9__gnu_cxx12_Lock_policyE2EEEESt15__allocated_ptrIT_ERSH_
FNDA:1,_ZSt18__allocate_guardedISaISt23_Sp_counted_ptr_inplaceIN5Catch5clara6detail11BoundLambdaIZNS1_21makeCommandLineParserERNS1_10ConfigDataEEUlRKNSt7__cxx1112basic_stringIcSt11char_traitsIcESaIcEEEE0_EESaIvELN9__gnu_cxx12_Lock_policyE2EEEESt15__allocated_ptrIT_ERSN_
FNDA:1,_ZSt18__allocate_guardedISaISt23_Sp_counted_ptr_inplaceIN5Catch5clara6detail11BoundLambdaIZNS1_21makeCommandLineParserERNS1_10ConfigDataEEUlRKNSt7__cxx1112basic_stringIcSt11char_traitsIcESaIcEEEE1_EESaIvELN9__gnu_cxx12_Lock_policyE2EEEESt15__allocated_ptrIT_ERSN_
FNDA:1,_ZSt18__allocate_guardedISaISt23_Sp_counted_ptr_inplaceIN5Catch5clara6detail11BoundLambdaIZNS1_21makeCommandLineParserERNS1_10ConfigDataEEUlRKNSt7__cxx1112basic_stringIcSt11char_traitsIcESaIcEEEE2_EESaIvELN9__gnu_cxx12_Lock_policyE2EEEESt15__allocated_ptrIT_ERSN_
FNDA:1,_ZSt18__allocate_guardedISaISt23_Sp_counted_ptr_inplaceIN5Catch5clara6detail11BoundLambdaIZNS1_21makeCommandLineParserERNS1_10ConfigDataEEUlRKNSt7__cxx1112basic_stringIcSt11char_traitsIcESaIcEEEE3_EESaIvELN9__gnu_cxx12_Lock_policyE2EEEESt15__allocated_ptrIT_ERSN_
FNDA:1,_ZSt18__allocate_guardedISaISt23_Sp_counted_ptr_inplaceIN5Catch5clara6detail11BoundLambdaIZNS1_21makeCommandLineParserERNS1_10ConfigDataEEUlRKNSt7__cxx1112basic_stringIcSt11char_traitsIcESaIcEEEE4_EESaIvELN9__gnu_cxx12_Lock_policyE2EEEESt15__allocated_ptrIT_ERSN_
FNDA:1,_ZSt18__allocate_guardedISaISt23_Sp_counted_ptr_inplaceIN5Catch5clara6detail11BoundLambdaIZNS1_21makeCommandLineParserERNS1_10ConfigDataEEUlRKNSt7__cxx1112basic_stringIcSt11char_traitsIcESaIcEEEE5_EESaIvELN9__gnu_cxx12_Lock_policyE2EEEESt15__allocated_ptrIT_ERSN_
FNDA:1,_ZSt18__allocate_guardedISaISt23_Sp_counted_ptr_inplaceIN5Catch5clara6detail11BoundLambdaIZNS1_21makeCommandLineParserERNS1_10ConfigDataEEUlRKNSt7__cxx1112basic_stringIcSt11char_traitsIcESaIcEEEE6_EESaIvELN9__gnu_cxx12_Lock_policyE2EEEESt15__allocated_ptrIT_ERSN_
FNDA:1,_ZSt18__allocate_guardedISaISt23_Sp_counted_ptr_inplaceIN5Catch5clara6detail11BoundLambdaIZNS1_21makeCommandLineParserERNS1_10ConfigDataEEUlRKNSt7__cxx1112basic_stringIcSt11char_traitsIcESaIcEEEE_EESaIvELN9__gnu_cxx12_Lock_policyE2EEEESt15__allocated_ptrIT_ERSN_
FNDA:1,_ZSt18__allocate_guardedISaISt23_Sp_counted_ptr_inplaceIN5Catch5clara6detail11BoundLambdaIZNS1_21makeCommandLineParserERNS1_10ConfigDataEEUlbE0_EESaIvELN9__gnu_cxx12_Lock_policyE2EEEESt15__allocated_ptrIT_ERSF_
FNDA:1,_ZSt18__allocate_guardedISaISt23_Sp_counted_ptr_inplaceIN5Catch5clara6detail11BoundLambdaIZNS1_21makeCommandLineParserERNS1_10ConfigDataEEUliE_EESaIvELN9__gnu_cxx12_Lock_policyE2EEEESt15__allocated_ptrIT_ERSF_
FNDA:11,_ZSt18__allocate_guardedISaISt23_Sp_counted_ptr_inplaceIN5Catch5clara6detail12BoundFlagRefESaIvELN9__gnu_cxx12_Lock_policyE2EEEESt15__allocated_ptrIT_ERSB_
FNDA:3,_ZSt18__allocate_guardedISaISt23_Sp_counted_ptr_inplaceIN5Catch5clara6detail13BoundValueRefINSt7__cxx1112basic_stringIcSt11char_traitsIcESaIcEEEEESaIvELN9__gnu_cxx12_Lock_policyE2EEEESt15__allocated_ptrIT_ERSI_
FNDA:2,_ZSt18__allocate_guardedISaISt23_Sp_counted_ptr_inplaceIN5Catch5clara6detail13BoundValueRefISt6vectorINSt7__cxx1112basic_stringIcSt11char_traitsIcESaIcEEESaISB_EEEESaIvELN9__gnu_cxx12_Lock_policyE2EEEESt15__allocated_ptrIT_ERSL_
FNDA:2,_ZSt18__allocate_guardedISaISt23_Sp_counted_ptr_inplaceIN5Catch5clara6detail13BoundValueRefIdEESaIvELN9__gnu_cxx12_Lock_policyE2EEEESt15__allocated_ptrIT_ERSC_
FNDA:2,_ZSt18__allocate_guardedISaISt23_Sp_counted_ptr_inplaceIN5Catch5clara6detail13BoundValueRefIjEESaIvELN9__gnu_cxx12_Lock_policyE2EEEESt15__allocated_ptrIT_ERSC_
FNDA:1,_ZSt18__allocate_guardedISaISt23_Sp_counted_ptr_inplaceIN5Catch5clara6detail13BoundValueRefIlEESaIvELN9__gnu_cxx12_Lock_policyE2EEEESt15__allocated_ptrIT_ERSC_
FNDA:1,_ZSt18__allocate_guardedISaISt23_Sp_counted_ptr_inplaceIN5Catch5clara6detail15BoundFlagLambdaIZNS1_21makeCommandLineParserERNS1_10ConfigDataEEUlbE_EESaIvELN9__gnu_cxx12_Lock_policyE2EEEESt15__allocated_ptrIT_ERSF_
FNDA:1,_ZSt18__allocate_guardedISaISt23_Sp_counted_ptr_inplaceIN5Catch5clara6detail15BoundFlagLambdaIZNS3_4HelpC4ERbEUlbE_EESaIvELN9__gnu_cxx12_Lock_policyE2EEEESt15__allocated_ptrIT_ERSF_
FNDA:1,_ZSt18__allocate_guardedISaISt23_Sp_counted_ptr_inplaceIN5Catch6ConfigESaIvELN9__gnu_cxx12_Lock_policyE2EEEESt15__allocated_ptrIT_ERS9_
FNDA:0,_ZSt18__allocate_guardedISaISt23_Sp_counted_ptr_inplaceIN5Catch8TestSpec10TagPatternESaIvELN9__gnu_cxx12_Lock_policyE2EEEESt15__allocated_ptrIT_ERSA_
FNDA:0,_ZSt18__allocate_guardedISaISt23_Sp_counted_ptr_inplaceIN5Catch8TestSpec11NamePatternESaIvELN9__gnu_cxx12_Lock_policyE2EEEESt15__allocated_ptrIT_ERSA_
FNDA:0,_ZSt18__allocate_guardedISaISt23_Sp_counted_ptr_inplaceIN5Catch8TestSpec15ExcludedPatternESaIvELN9__gnu_cxx12_Lock_policyE2EEEESt15__allocated_ptrIT_ERSA_
FNDA:3,_ZSt18__allocate_guardedISaISt23_Sp_counted_ptr_inplaceINSt7__cxx1112basic_stringIcSt11char_traitsIcESaIcEEESaIvELN9__gnu_cxx12_Lock_policyE2EEEESt15__allocated_ptrIT_ERSD_
FNDA:0,_ZSt18__allocate_guardedISaISt23_Sp_counted_ptr_inplaceINSt8__detail4_NFAINSt7__cxx1112regex_traitsIcEEEESaIvELN9__gnu_cxx12_Lock_policyE2EEEESt15__allocated_ptrIT_ERSD_
FNF:170
FNH:125
DA:53,318
DA:54,318
DA:55,318
DA:71,318
DA:73,318
DA:74,159
DA:75,318
DA:79,159
DA:81,159
DA:82,159
DA:86,159
DA:96,159
DA:98,159
LF:13
LH:13
end_of_record
TN:
SF:/usr/include/c++/13/bits/allocator.h
FNF:0
FNH:0
DA:163,849
DA:168,4624
DA:178,319
DA:184,2636
DA:217,0
DA:223,0
LF:6
LH:4
end_of_record
TN:
SF:/usr/include/c++/13/bits/basic_string.h
FN:3528,3541,_ZSt12__str_concatINSt7__cxx1112basic_stringIcSt11char_traitsIcESaIcEEEET_PKNS6_10value_typeENS6_9size_typeES9_SA_RKNS6_14allocator_typeE
FN:3553,3560,_ZStplIcSt11char_traitsIcESaIcEENSt7__cxx1112basic_stringIT_T0_T1_EERKS8_SA_
FN:3571,3579,_ZStplIcSt11char_traitsIcESaIcEENSt7__cxx1112basic_stringIT_T0_T1_EEPKS5_RKS8_
FN:3590,3596,_ZStplIcSt11char_traitsIcESaIcEENSt7__cxx1112basic_stringIT_T0_T1_EES5_RKS8_
FN:3607,3615,_ZStplIcSt11char_traitsIcESaIcEENSt7__cxx1112basic_stringIT_T0_T1_EERKS8_PKS5_
FN:3625,3631,_ZStplIcSt11char_traitsIcESaIcEENSt7__cxx1112basic_stringIT_T0_T1_EERKS8_S5_
FN:3637,3639,_ZStplIcSt11char_traitsIcESaIcEENSt7__cxx1112basic_stringIT_T0_T1_EEOS8_RKS8_
FN:3651,3669,_ZStplIcSt11char_traitsIcESaIcEENSt7__cxx1112basic_stringIT_T0_T1_EEOS8_S9_
FN:3674,3676,_ZStplIcSt11char_traitsIcESaIcEENSt7__cxx1112basic_stringIT_T0_T1_EEPKS5_OS8_
FN:3688,3690,_ZStplIcSt11char_traitsIcESaIcEENSt7__cxx1112basic_stringIT_T0_T1_EEOS8_PKS5_
FN:3695,3697,_ZStplIcSt11char_traitsIcESaIcEENSt7__cxx1112basic_stringIT_T0_T1_EEOS8_S5_
FN:3710,3716,_ZSteqIcSt11char_traitsIcESaIcEEbRKNSt7__cxx1112basic_stringIT_T0_T1_EESA_
FN:3727,3732,_ZSteqIcSt11char_traitsIcESaIcEEbRKNSt7__cxx1112basic_stringIT_T0_T1_EEPKS5_
FN:3774,3776,_ZSteqIcSt11char_traitsIcESaIcEEbPKT_RKNSt7__cxx1112basic_stringIS3_T0_T1_EE
FN:3788,3791,_ZStneIcSt11char_traitsIcESaIcEEbRKNSt7__cxx1112basic_stringIT_T0_T1_EESA_
FN:3815,3817,_ZStneIcSt11char_traitsIcESaIcEEbRKNSt7__cxx1112basic_stringIT_T0_T1_EEPKS5_
FN:3829,3832,_ZStltIcSt11char_traitsIcESaIcEEbRKNSt7__cxx1112basic_stringIT_T0_T1_EESA_
FN:3911,3914,_ZStleIcSt11char_traitsIcESaIcEEbRKNSt7__cxx1112basic_stringIT_T0_T1_EESA_
FN:3994,3997,_ZSt4swapIcSt11char_traitsIcESaIcEEvRNSt7__cxx1112basic_stringIT_T0_T1_EES9_
FN:760,770,_ZNSt7__cxx1112basic_stringIcSt11char_traitsIcESaIcEEC2IN9__gnu_cxx17__normal_iteratorIPcS4_EEvEET_SA_RKS3_
FN:760,770,_ZNSt7__cxx1112basic_stringIcSt11char_traitsIcESaIcEEC2IPcvEET_S7_RKS3_
FNDA:0,_ZSt12__str_concatINSt7__cxx1112basic_stringIcSt11char_traitsIcESaIcEEEET_PKNS6_10value_typeENS6_9size_typeES9_SA_RKNS6_14allocator_typeE
FNDA:0,_ZStplIcSt11char_traitsIcESaIcEENSt7__cxx1112basic_stringIT_T0_T1_EERKS8_SA_
FNDA:0,_ZStplIcSt11char_traitsIcESaIcEENSt7__cxx1112basic_stringIT_T0_T1_EEPKS5_RKS8_
FNDA:0,_ZStplIcSt11char_traitsIcESaIcEENSt7__cxx1112basic_stringIT_T0_T1_EES5_RKS8_
FNDA:0,_ZStplIcSt11char_traitsIcESaIcEENSt7__cxx1112basic_stringIT_T0_T1_EERKS8_PKS5_
FNDA:0,_ZStplIcSt11char_traitsIcESaIcEENSt7__cxx1112basic_stringIT_T0_T1_EERKS8_S5_
FNDA:0,_ZStplIcSt11char_traitsIcESaIcEENSt7__cxx1112basic_stringIT_T0_T1_EEOS8_RKS8_
FNDA:0,_ZStplIcSt11char_traitsIcESaIcEENSt7__cxx1112basic_stringIT_T0_T1_EEOS8_S9_
FNDA:0,_ZStplIcSt11char_traitsIcESaIcEENSt7__cxx1112basic_stringIT_T0_T1_EEPKS5_OS8_
FNDA:0,_ZStplIcSt11char_traitsIcESaIcEENSt7__cxx1112basic_stringIT_T0_T1_EEOS8_PKS5_
FNDA:0,_ZStplIcSt11char_traitsIcESaIcEENSt7__cxx1112basic_stringIT_T0_T1_EEOS8_S5_
FNDA:1,_ZSteqIcSt11char_traitsIcESaIcEEbRKNSt7__cxx1112basic_stringIT_T0_T1_EESA_
FNDA:860,_ZSteqIcSt11char_traitsIcESaIcEEbRKNSt7__cxx1112basic_stringIT_T0_T1_EEPKS5_
FNDA:2,_ZSteqIcSt11char_traitsIcESaIcEEbPKT_RKNSt7__cxx1112basic_stringIS3_T0_T1_EE
FNDA:0,_ZStneIcSt11char_traitsIcESaIcEEbRKNSt7__cxx1112basic_stringIT_T0_T1_EESA_
FNDA:0,_ZStneIcSt11char_traitsIcESaIcEEbRKNSt7__cxx1112basic_stringIT_T0_T1_EEPKS5_
FNDA:417,_ZStltIcSt11char_traitsIcESaIcEEbRKNSt7__cxx1112basic_stringIT_T0_T1_EESA_
FNDA:0,_ZStleIcSt11char_traitsIcESaIcEEbRKNSt7__cxx1112basic_stringIT_T0_T1_EESA_
FNDA:0,_ZSt4swapIcSt11char_traitsIcESaIcEEvRNSt7__cxx1112basic_stringIT_T0_T1_EES9_
FNDA:0,_ZNSt7__cxx1112basic_stringIcSt11char_traitsIcESaIcEEC2IN9__gnu_cxx17__normal_iteratorIPcS4_EEvEET_SA_RKS3_
FNDA:0,_ZNSt7__cxx1112basic_stringIcSt11char_traitsIcESaIcEEC2IPcvEET_S7_RKS3_
FNF:21
FNH:4
DA:355,4414
DA:760,0
DA:762,0
DA:765,0
DA:770,0
DA:3528,0
DA:3536,0
DA:3537,0
DA:3538,0
DA:3539,0
DA:3540,0
DA:3541,0
DA:3553,0
DA:3559,0
DA:3571,0
DA:3578,0
DA:3590,0
DA:3595,0
DA:3607,0
DA:3614,0
DA:3625,0
DA:3630,0
DA:3637,0
DA:3639,0
DA:3651,0
DA:3656,0
DA:3657,0
DA:3658,0
DA:3659,0
DA:3660,0
DA:3661,0
DA:3664,0
DA:3665,0
DA:3666,0
DA:3668,0
DA:3674,0
DA:3676,0
DA:3688,0
DA:3690,0
DA:3695,0
DA:3697,0
DA:3710,1
DA:3714,1
DA:3715,1
DA:3727,860
DA:3730,860
DA:3731,860
DA:3774,2
DA:3776,2
DA:3788,0
DA:3791,0
DA:3815,0
DA:3817,0
DA:3829,417
DA:3832,417
DA:3911,0
DA:3914,0
DA:3994,0
DA:3997,0
LF:59
LH:11
end_of_record
TN:
SF:/usr/include/c++/13/bits/basic_string.tcc
FN:221,252,_ZNSt7__cxx1112basic_stringIcSt11char_traitsIcESaIcEE12_M_constructIN9__gnu_cxx17__normal_iteratorIPcS4_EEEEvT_SA_St20forward_iterator_tag
FN:221,252,_ZNSt7__cxx1112basic_stringIcSt11char_traitsIcESaIcEE12_M_constructIPKcEEvT_S8_St20forward_iterator_tag
FN:221,252,_ZNSt7__cxx1112basic_stringIcSt11char_traitsIcESaIcEE12_M_constructIPcEEvT_S7_St20forward_iterator_tag
FN:221,252,_ZNSt7__cxx1112basic_stringIwSt11char_traitsIwESaIwEE12_M_constructIPKwEEvT_S8_St20forward_iterator_tag
FN:239,239,_ZZNSt7__cxx1112basic_stringIcSt11char_traitsIcESaIcEE12_M_constructIN9__gnu_cxx17__normal_iteratorIPcS4_EEEEvT_SA_St20forward_iterator_tagEN6_GuardC2EPS4_
FN:239,239,_ZZNSt7__cxx1112basic_stringIcSt11char_traitsIcESaIcEE12_M_constructIPKcEEvT_S8_St20forward_iterator_tagEN6_GuardC2EPS4_
FN:239,239,_ZZNSt7__cxx1112basic_stringIcSt11char_traitsIcESaIcEE12_M_constructIPcEEvT_S7_St20forward_iterator_tagEN6_GuardC2EPS4_
FN:239,239,_ZZNSt7__cxx1112basic_stringIwSt11char_traitsIwESaIwEE12_M_constructIPKwEEvT_S8_St20forward_iterator_tagEN6_GuardC2EPS4_
FN:242,242,_ZZNSt7__cxx1112basic_stringIcSt11char_traitsIcESaIcEE12_M_constructIN9__gnu_cxx17__normal_iteratorIPcS4_EEEEvT_SA_St20forward_iterator_tagEN6_GuardD2Ev
FN:242,242,_ZZNSt7__cxx1112basic_stringIcSt11char_traitsIcESaIcEE12_M_constructIPKcEEvT_S8_St20forward_iterator_tagEN6_GuardD2Ev
FN:242,242,_ZZNSt7__cxx1112basic_stringIcSt11char_traitsIcESaIcEE12_M_constructIPcEEvT_S7_St20forward_iterator_tagEN6_GuardD2Ev
FN:242,242,_ZZNSt7__cxx1112basic_stringIwSt11char_traitsIwESaIwEE12_M_constructIPKwEEvT_S8_St20forward_iterator_tagEN6_GuardD2Ev
FNDA:0,_ZNSt7__cxx1112basic_stringIcSt11char_traitsIcESaIcEE12_M_constructIN9__gnu_cxx17__normal_iteratorIPcS4_EEEEvT_SA_St20forward_iterator_tag
FNDA:0,_ZNSt7__cxx1112basic_stringIcSt11char_traitsIcESaIcEE12_M_constructIPKcEEvT_S8_St20forward_iterator_tag
FNDA:6986,_ZNSt7__cxx1112basic_stringIcSt11char_traitsIcESaIcEE12_M_constructIPcEEvT_S7_St20forward_iterator_tag
FNDA:0,_ZNSt7__cxx1112basic_stringIwSt11char_traitsIwESaIwEE12_M_constructIPKwEEvT_S8_St20forward_iterator_tag
FNDA:0,_ZZNSt7__cxx1112basic_stringIcSt11char_traitsIcESaIcEE12_M_constructIN9__gnu_cxx17__normal_iteratorIPcS4_EEEEvT_SA_St20forward_iterator_tagEN6_GuardC2EPS4_
FNDA:0,_ZZNSt7__cxx1112basic_stringIcSt11char_traitsIcESaIcEE12_M_constructIPKcEEvT_S8_St20forward_iterator_tagEN6_GuardC2EPS4_
FNDA:6986,_ZZNSt7__cxx1112basic_stringIcSt11char_traitsIcESaIcEE12_M_constructIPcEEvT_S7_St20forward_iterator_tagEN6_GuardC2EPS4_
FNDA:0,_ZZNSt7__cxx1112basic_stringIwSt11char_traitsIwESaIwEE12_M_constructIPKwEEvT_S8_St20forward_iterator_tagEN6_GuardC2EPS4_
FNDA:0,_ZZNSt7__cxx1112basic_stringIcSt11char_traitsIcESaIcEE12_M_constructIN9__gnu_cxx17__normal_iteratorIPcS4_EEEEvT_SA_St20forward_iterator_tagEN6_GuardD2Ev
FNDA:0,_ZZNSt7__cxx1112basic_stringIcSt11char_traitsIcESaIcEE12_M_constructIPKcEEvT_S8_St20forward_iterator_tagEN6_GuardD2Ev
FNDA:6986,_ZZNSt7__cxx1112basic_stringIcSt11char_traitsIcESaIcEE12_M_constructIPcEEvT_S7_St20forward_iterator_tagEN6_GuardD2Ev
FNDA:0,_ZZNSt7__cxx1112basic_stringIwSt11char_traitsIwESaIwEE12_M_constructIPKwEEvT_S8_St20forward_iterator_tagEN6_GuardD2Ev
FNF:12
FNH:3
DA:221,6986
DA:225,6986
DA:227,6986
DA:229,2572
DA:230,2572
DA:239,6986
DA:242,6986
DA:245,6986
DA:247,6986
DA:249,6986
DA:251,6986
DA:252,6986
LF:12
LH:12
end_of_record
TN:
SF:/usr/include/c++/13/bits/char_traits.h
FN:374,390,_ZNSt11char_traitsIcE7compareEPKcS2_m
FN:393,400,_ZNSt11char_traitsIcE6lengthEPKc
FN:427,436,_ZNSt11char_traitsIcE4copyEPcPKcm
FN:451,452,_ZNSt11char_traitsIcE12to_char_typeERKi
FN:461,462,_ZNSt11char_traitsIcE11eq_int_typeERKiS2_
FN:466,467,_ZNSt11char_traitsIcE3eofEv
FN:524,531,_ZNSt11char_traitsIwE6lengthEPKw
FNDA:27,_ZNSt11char_traitsIcE7compareEPKcS2_m
FNDA:860,_ZNSt11char_traitsIcE6lengthEPKc
FNDA:0,_ZNSt11char_traitsIcE4copyEPcPKcm
FNDA:29,_ZNSt11char_traitsIcE12to_char_typeERKi
FNDA:130,_ZNSt11char_traitsIcE11eq_int_typeERKiS2_
FNDA:16,_ZNSt11char_traitsIcE3eofEv
FNDA:0,_ZNSt11char_traitsIwE6lengthEPKw
FNF:7
FNH:5
DA:374,27
DA:376,27
DA:377,0
DA:389,27
DA:393,860
DA:399,860
DA:427,0
DA:429,0
DA:430,0
DA:435,0
DA:451,29
DA:452,29
DA:461,130
DA:462,130
DA:466,16
DA:467,16
DA:524,0
DA:530,0
LF:18
LH:11
end_of_record
TN:
SF:/usr/include/c++/13/bits/chrono.h
FN:196,200,_ZNSt6chrono20__duration_cast_implINS_8durationIlSt5ratioILl1ELl1000000000EEEES2_ILl1ELl1EElLb1ELb1EE6__castIlS3_EES4_RKNS1_IT_T0_EE
FN:273,291,_ZNSt6chrono13duration_castINS_8durationIlSt5ratioILl1ELl1000000000EEEElS3_EENSt9enable_ifIXsrNS_13__is_durationIT_EE5valueES7_E4typeERKNS1_IT0_T1_EE
FN:573,574,_ZNSt6chrono8durationIlSt5ratioILl1ELl1000000000EEEC1IlvEERKT_
FN:573,574,_ZNSt6chrono8durationIlSt5ratioILl1ELl1000EEEC2IlvEERKT_
FN:589,590,_ZNKSt6chrono8durationIlSt5ratioILl1ELl1000000000EEE5countEv
FN:949,950,_ZNKSt6chrono10time_pointINS_3_V212system_clockENS_8durationIlSt5ratioILl1ELl1000000000EEEEE16time_since_epochEv
FNDA:118,_ZNSt6chrono20__duration_cast_implINS_8durationIlSt5ratioILl1ELl1000000000EEEES2_ILl1ELl1EElLb1ELb1EE6__castIlS3_EES4_RKNS1_IT_T0_EE
FNDA:118,_ZNSt6chrono13duration_castINS_8durationIlSt5ratioILl1ELl1000000000EEEElS3_EENSt9enable_ifIXsrNS_13__is_durationIT_EE5valueES7_E4typeERKNS1_IT0_T1_EE
FNDA:118,_ZNSt6chrono8durationIlSt5ratioILl1ELl1000000000EEEC1IlvEERKT_
FNDA:0,_ZNSt6chrono8durationIlSt5ratioILl1ELl1000EEEC2IlvEERKT_
FNDA:236,_ZNKSt6chrono8durationIlSt5ratioILl1ELl1000000000EEE5countEv
FNDA:118,_ZNKSt6chrono10time_pointINS_3_V212system_clockENS_8durationIlSt5ratioILl1ELl1000000000EEEEE16time_since_epochEv
FNF:6
FNH:5
DA:196,118
DA:199,118
DA:273,118
DA:287,118
DA:573,118
DA:574,118
DA:589,236
DA:590,236
DA:949,118
DA:950,118
LF:10
LH:10
end_of_record
TN:
SF:/usr/include/c++/13/bits/cpp_type_traits.h
FN:607,608,_ZSt12__miter_baseIN9__gnu_cxx17__normal_iteratorIPKN5Catch5clara6detail3ArgESt6vectorIS5_SaIS5_EEEEET_SC_
FN:607,608,_ZSt12__miter_baseIN9__gnu_cxx17__normal_iteratorIPKN5Catch5clara6detail3OptESt6vectorIS5_SaIS5_EEEEET_SC_
FN:607,608,_ZSt12__miter_baseIN9__gnu_cxx17__normal_iteratorIPKNSt7__cxx1112basic_stringIcSt11char_traitsIcESaIcEEESt6vectorIS7_SaIS7_EEEEET_SE_
FN:607,608,_ZSt12__miter_baseIN9__gnu_cxx17__normal_iteratorIPKNSt7__cxx119sub_matchINS1_IPKcNS2_12basic_stringIcSt11char_traitsIcESaIcEEEEEEESt6vectorISC_SaISC_EEEEET_SJ_
FN:607,608,_ZSt12__miter_baseIN9__gnu_cxx17__normal_iteratorIPKPKN5Catch8TestCaseESt6vectorIS5_SaIS5_EEEEET_SC_
FN:607,608,_ZSt12__miter_baseIN9__gnu_cxx17__normal_iteratorIPKcSt6vectorIcSaIcEEEEET_S8_
FN:607,608,_ZSt12__miter_baseIN9__gnu_cxx17__normal_iteratorIPN5Catch11MessageInfoESt6vectorIS3_SaIS3_EEEEET_S9_
FN:607,608,_ZSt12__miter_baseIN9__gnu_cxx17__normal_iteratorIPN5Catch5clara6detail11HelpColumnsESt6vectorIS5_SaIS5_EEEEET_SB_
FN:607,608,_ZSt12__miter_baseIN9__gnu_cxx17__normal_iteratorIPN5Catch5clara6detail5TokenESt6vectorIS5_SaIS5_EEEEET_SB_
FN:607,608,_ZSt12__miter_baseIN9__gnu_cxx17__normal_iteratorIPN5Catch8TestCaseESt6vectorIS3_SaIS3_EEEEET_S9_
FN:607,608,_ZSt12__miter_baseIN9__gnu_cxx17__normal_iteratorIPNSt7__cxx1112basic_stringIcSt11char_traitsIcESaIcEEESt6vectorIS7_SaIS7_EEEEET_SD_
FN:607,608,_ZSt12__miter_baseIN9__gnu_cxx17__normal_iteratorIPSt4pairImPKN5Catch8TestCaseEESt6vectorIS7_SaIS7_EEEEET_SD_
FN:607,608,_ZSt12__miter_baseIN9__gnu_cxx17__normal_iteratorIPcSt6vectorIcSaIcEEEEET_S7_
FN:607,608,_ZSt12__miter_baseIPKNSt7__cxx1112basic_stringIcSt11char_traitsIcESaIcEEEET_S8_
FN:607,608,_ZSt12__miter_baseIPKcET_S2_
FN:607,608,_ZSt12__miter_baseIPN5Catch5clara6detail11HelpColumnsEET_S5_
FN:607,608,_ZSt12__miter_baseIPN5Catch5clara6detail3ArgEET_S5_
FN:607,608,_ZSt12__miter_baseIPN5Catch5clara6detail3OptEET_S5_
FN:607,608,_ZSt12__miter_baseIPNSt7__cxx1112basic_stringIcSt11char_traitsIcESaIcEEEET_S7_
FN:607,608,_ZSt12__miter_baseIPNSt7__cxx119sub_matchIN9__gnu_cxx17__normal_iteratorIPKcNS0_12basic_stringIcSt11char_traitsIcESaIcEEEEEEEET_SE_
FN:607,608,_ZSt12__miter_baseIPPKN5Catch8TestCaseEET_S5_
FN:607,608,_ZSt12__miter_baseIPPN5Catch10ISingletonEET_S4_
FN:607,608,_ZSt12__miter_baseIPPN5Catch16TestCaseTracking8ITrackerEET_S5_
FN:607,608,_ZSt12__miter_baseIPPNSt8__detail9_StateSeqINSt7__cxx1112regex_traitsIcEEEEET_S8_
FN:607,608,_ZSt12__miter_baseIPPcET_S2_
FN:607,608,_ZSt12__miter_baseIPPlET_S2_
FN:607,608,_ZSt12__miter_baseIPcET_S1_
FN:607,608,_ZSt12__miter_baseIPmET_S1_
FNDA:0,_ZSt12__miter_baseIN9__gnu_cxx17__normal_iteratorIPKN5Catch5clara6detail3ArgESt6vectorIS5_SaIS5_EEEEET_SC_
FNDA:0,_ZSt12__miter_baseIN9__gnu_cxx17__normal_iteratorIPKN5Catch5clara6detail3OptESt6vectorIS5_SaIS5_EEEEET_SC_
FNDA:0,_ZSt12__miter_baseIN9__gnu_cxx17__normal_iteratorIPKNSt7__cxx1112basic_stringIcSt11char_traitsIcESaIcEEESt6vectorIS7_SaIS7_EEEEET_SE_
FNDA:0,_ZSt12__miter_baseIN9__gnu_cxx17__normal_iteratorIPKNSt7__cxx119sub_matchINS1_IPKcNS2_12basic_stringIcSt11char_traitsIcESaIcEEEEEEESt6vectorISC_SaISC_EEEEET_SJ_
FNDA:0,_ZSt12__miter_baseIN9__gnu_cxx17__normal_iteratorIPKPKN5Catch8TestCaseESt6vectorIS5_SaIS5_EEEEET_SC_
FNDA:0,_ZSt12__miter_baseIN9__gnu_cxx17__normal_iteratorIPKcSt6vectorIcSaIcEEEEET_S8_
FNDA:0,_ZSt12__miter_baseIN9__gnu_cxx17__normal_iteratorIPN5Catch11MessageInfoESt6vectorIS3_SaIS3_EEEEET_S9_
FNDA:0,_ZSt12__miter_baseIN9__gnu_cxx17__normal_iteratorIPN5Catch5clara6detail11HelpColumnsESt6vectorIS5_SaIS5_EEEEET_SB_
FNDA:0,_ZSt12__miter_baseIN9__gnu_cxx17__normal_iteratorIPN5Catch5clara6detail5TokenESt6vectorIS5_SaIS5_EEEEET_SB_
FNDA:0,_ZSt12__miter_baseIN9__gnu_cxx17__normal_iteratorIPN5Catch8TestCaseESt6vectorIS3_SaIS3_EEEEET_S9_
FNDA:0,_ZSt12__miter_baseIN9__gnu_cxx17__normal_iteratorIPNSt7__cxx1112basic_stringIcSt11char_traitsIcESaIcEEESt6vectorIS7_SaIS7_EEEEET_SD_
FNDA:0,_ZSt12__miter_baseIN9__gnu_cxx17__normal_iteratorIPSt4pairImPKN5Catch8TestCaseEESt6vectorIS7_SaIS7_EEEEET_SD_
FNDA:0,_ZSt12__miter_baseIN9__gnu_cxx17__normal_iteratorIPcSt6vectorIcSaIcEEEEET_S7_
FNDA:0,_ZSt12__miter_baseIPKNSt7__cxx1112basic_stringIcSt11char_traitsIcESaIcEEEET_S8_
FNDA:0,_ZSt12__miter_baseIPKcET_S2_
FNDA:0,_ZSt12__miter_baseIPN5Catch5clara6detail11HelpColumnsEET_S5_
FNDA:0,_ZSt12__miter_baseIPN5Catch5clara6detail3ArgEET_S5_
FNDA:0,_ZSt12__miter_baseIPN5Catch5clara6detail3OptEET_S5_
FNDA:0,_ZSt12__miter_baseIPNSt7__cxx1112basic_stringIcSt11char_traitsIcESaIcEEEET_S7_
FNDA:0,_ZSt12__miter_baseIPNSt7__cxx119sub_matchIN9__gnu_cxx17__normal_iteratorIPKcNS0_12basic_stringIcSt11char_traitsIcESaIcEEEEEEEET_SE_
FNDA:0,_ZSt12__miter_baseIPPKN5Catch8TestCaseEET_S5_
FNDA:0,_ZSt12__miter_baseIPPN5Catch10ISingletonEET_S4_
FNDA:0,_ZSt12__miter_baseIPPN5Catch16TestCaseTracking8ITrackerEET_S5_
FNDA:0,_ZSt12__miter_baseIPPNSt8__detail9_StateSeqINSt7__cxx1112regex_traitsIcEEEEET_S8_
FNDA:0,_ZSt12__miter_baseIPPcET_S2_
FNDA:0,_ZSt12__miter_baseIPPlET_S2_
FNDA:0,_ZSt12__miter_baseIPcET_S1_
FNDA:0,_ZSt12__miter_baseIPmET_S1_
FNF:28
FNH:0
DA:607,0
DA:608,0
LF:2
LH:0
end_of_record
TN:
SF:/usr/include/c++/13/bits/deque.tcc
FN:164,180,_ZNSt5dequeINSt8__detail9_StateSeqINSt7__cxx1112regex_traitsIcEEEESaIS5_EE12emplace_backIJS5_EEEvDpOT_
FN:484,516,_ZNSt5dequeINSt8__detail9_StateSeqINSt7__cxx1112regex_traitsIcEEEESaIS5_EE16_M_push_back_auxIJRKS5_EEEvDpOT_
FN:484,516,_ZNSt5dequeINSt8__detail9_StateSeqINSt7__cxx1112regex_traitsIcEEEESaIS5_EE16_M_push_back_auxIJS5_EEEvDpOT_
FN:484,516,_ZNSt5dequeIcSaIcEE16_M_push_back_auxIJRKcEEEvDpOT_
FN:484,516,_ZNSt5dequeIlSaIlEE16_M_push_back_auxIJRKlEEEvDpOT_
FN:560,568,_ZNSt5dequeINSt8__detail9_StateSeqINSt7__cxx1112regex_traitsIcEEEESaIS5_EE15_M_pop_back_auxEv
FN:560,568,_ZNSt5dequeIcSaIcEE15_M_pop_back_auxEv
FN:560,568,_ZNSt5dequeIlSaIlEE15_M_pop_back_auxEv
FN:931,973,_ZNSt5dequeINSt8__detail9_StateSeqINSt7__cxx1112regex_traitsIcEEEESaIS5_EE17_M_reallocate_mapEmb
FN:931,973,_ZNSt5dequeIcSaIcEE17_M_reallocate_mapEmb
FN:931,973,_ZNSt5dequeIlSaIlEE17_M_reallocate_mapEmb
FNDA:0,_ZNSt5dequeINSt8__detail9_StateSeqINSt7__cxx1112regex_traitsIcEEEESaIS5_EE12emplace_backIJS5_EEEvDpOT_
FNDA:0,_ZNSt5dequeINSt8__detail9_StateSeqINSt7__cxx1112regex_traitsIcEEEESaIS5_EE16_M_push_back_auxIJRKS5_EEEvDpOT_
FNDA:0,_ZNSt5dequeINSt8__detail9_StateSeqINSt7__cxx1112regex_traitsIcEEEESaIS5_EE16_M_push_back_auxIJS5_EEEvDpOT_
FNDA:0,_ZNSt5dequeIcSaIcEE16_M_push_back_auxIJRKcEEEvDpOT_
FNDA:0,_ZNSt5dequeIlSaIlEE16_M_push_back_auxIJRKlEEEvDpOT_
FNDA:0,_ZNSt5dequeINSt8__detail9_StateSeqINSt7__cxx1112regex_traitsIcEEEESaIS5_EE15_M_pop_back_auxEv
FNDA:0,_ZNSt5dequeIcSaIcEE15_M_pop_back_auxEv
FNDA:0,_ZNSt5dequeIlSaIlEE15_M_pop_back_auxEv
FNDA:0,_ZNSt5dequeINSt8__detail9_StateSeqINSt7__cxx1112regex_traitsIcEEEESaIS5_EE17_M_reallocate_mapEmb
FNDA:0,_ZNSt5dequeIcSaIcEE17_M_reallocate_mapEmb
FNDA:0,_ZNSt5dequeIlSaIlEE17_M_reallocate_mapEmb
FNF:11
FNH:0
DA:164,0
DA:167,0
DA:168,0
DA:170,0
DA:173,0
DA:176,0
DA:180,0
DA:484,0
DA:492,0
DA:493,0
DA:496,0
DA:497,0
DA:501,0
DA:507,0
DA:509,0
DA:516,0
DA:560,0
DA:563,0
DA:564,0
DA:565,0
DA:566,0
DA:568,0
DA:931,0
DA:934,0
DA:935,0
DA:936,0
DA:939,0
DA:941,0
DA:942,0
DA:943,0
DA:944,0
DA:945,0
DA:946,0
DA:949,0
DA:950,0
DA:951,0
DA:955,0
DA:956,0
DA:959,0
DA:960,0
DA:961,0
DA:962,0
DA:963,0
DA:965,0
DA:967,0
DA:968,0
DA:971,0
DA:972,0
DA:973,0
LF:49
LH:0
end_of_record
TN:
SF:/usr/include/c++/13/bits/exception_ptr.h
FN:119,121,_ZNSt15__exception_ptr13exception_ptrC2EDn
FN:123,125,_ZNSt15__exception_ptr13exception_ptrC2EOS0_
FN:172,174,_ZNSt15__exception_ptreqERKNS_13exception_ptrES2_
FN:195,201,_ZNSt15__exception_ptr13exception_ptrC2ERKS0_
FN:205,209,_ZNSt15__exception_ptr13exception_ptrD2Ev
FNDA:0,_ZNSt15__exception_ptr13exception_ptrC2EDn
FNDA:0,_ZNSt15__exception_ptr13exception_ptrC2EOS0_
FNDA:0,_ZNSt15__exception_ptreqERKNS_13exception_ptrES2_
FNDA:0,_ZNSt15__exception_ptr13exception_ptrC2ERKS0_
FNDA:0,_ZNSt15__exception_ptr13exception_ptrD2Ev
FNF:5
FNH:0
DA:119,0
DA:120,0
DA:121,0
DA:123,0
DA:124,0
DA:125,0
DA:172,0
DA:174,0
DA:195,0
DA:196,0
DA:197,0
DA:199,0
DA:200,0
DA:201,0
DA:205,0
DA:207,0
DA:208,0
DA:209,0
LF:18
LH:0
end_of_record
TN:
SF:/usr/include/c++/13/bits/invoke.h
FN:129,140,_ZSt10__invoke_rIbRNSt8__detail11_AnyMatcherINSt7__cxx1112regex_traitsIcEELb0ELb0ELb0EEEJcEENSt9enable_ifIXntsrSt7is_voidIT_E5valueES9_E4typeEOT0_DpOT1_
FN:129,140,_ZSt10__invoke_rIbRNSt8__detail11_AnyMatcherINSt7__cxx1112regex_traitsIcEELb0ELb0ELb1EEEJcEENSt9enable_ifIXntsrSt7is_voidIT_E5valueES9_E4typeEOT0_DpOT1_
FN:129,140,_ZSt10__invoke_rIbRNSt8__detail11_AnyMatcherINSt7__cxx1112regex_traitsIcEELb0ELb1ELb0EEEJcEENSt9enable_ifIXntsrSt7is_voidIT_E5valueES9_E4typeEOT0_DpOT1_
FN:129,140,_ZSt10__invoke_rIbRNSt8__detail11_AnyMatcherINSt7__cxx1112regex_traitsIcEELb0ELb1ELb1EEEJcEENSt9enable_ifIXntsrSt7is_voidIT_E5valueES9_E4typeEOT0_DpOT1_
FN:129,140,_ZSt10__invoke_rIbRNSt8__detail11_AnyMatcherINSt7__cxx1112regex_traitsIcEELb1ELb0ELb0EEEJcEENSt9enable_ifIXntsrSt7is_voidIT_E5valueES9_E4typeEOT0_DpOT1_
FN:129,140,_ZSt10__invoke_rIbRNSt8__detail11_AnyMatcherINSt7__cxx1112regex_traitsIcEELb1ELb0ELb1EEEJcEENSt9enable_ifIXntsrSt7is_voidIT_E5valueES9_E4typeEOT0_DpOT1_
FN:129,140,_ZSt10__invoke_rIbRNSt8__detail11_AnyMatcherINSt7__cxx1112regex_traitsIcEELb1ELb1ELb0EEEJcEENSt9enable_ifIXntsrSt7is_voidIT_E5valueES9_E4typeEOT0_DpOT1_
FN:129,140,_ZSt10__invoke_rIbRNSt8__detail11_AnyMatcherINSt7__cxx1112regex_traitsIcEELb1ELb1ELb1EEEJcEENSt9enable_ifIXntsrSt7is_voidIT_E5valueES9_E4typeEOT0_DpOT1_
FN:129,140,_ZSt10__invoke_rIbRNSt8__detail12_CharMatcherINSt7__cxx1112regex_traitsIcEELb0ELb0EEEJcEENSt9enable_ifIXntsrSt7is_voidIT_E5valueES9_E4typeEOT0_DpOT1_
FN:129,140,_ZSt10__invoke_rIbRNSt8__detail12_CharMatcherINSt7__cxx1112regex_traitsIcEELb0ELb1EEEJcEENSt9enable_ifIXntsrSt7is_voidIT_E5valueES9_E4typeEOT0_DpOT1_
FN:129,140,_ZSt10__invoke_rIbRNSt8__detail12_CharMatcherINSt7__cxx1112regex_traitsIcEELb1ELb0EEEJcEENSt9enable_ifIXntsrSt7is_voidIT_E5valueES9_E4typeEOT0_DpOT1_
FN:129,140,_ZSt10__invoke_rIbRNSt8__detail12_CharMatcherINSt7__cxx1112regex_traitsIcEELb1ELb1EEEJcEENSt9enable_ifIXntsrSt7is_voidIT_E5valueES9_E4typeEOT0_DpOT1_
FN:129,140,_ZSt10__invoke_rIbRNSt8__detail15_BracketMatcherINSt7__cxx1112regex_traitsIcEELb0ELb0EEEJcEENSt9enable_ifIXntsrSt7is_voidIT_E5valueES9_E4typeEOT0_DpOT1_
FN:129,140,_ZSt10__invoke_rIbRNSt8__detail15_BracketMatcherINSt7__cxx1112regex_traitsIcEELb0ELb1EEEJcEENSt9enable_ifIXntsrSt7is_voidIT_E5valueES9_E4typeEOT0_DpOT1_
FN:129,140,_ZSt10__invoke_rIbRNSt8__detail15_BracketMatcherINSt7__cxx1112regex_traitsIcEELb1ELb0EEEJcEENSt9enable_ifIXntsrSt7is_voidIT_E5valueES9_E4typeEOT0_DpOT1_
FN:129,140,_ZSt10__invoke_rIbRNSt8__detail15_BracketMatcherINSt7__cxx1112regex_traitsIcEELb1ELb1EEEJcEENSt9enable_ifIXntsrSt7is_voidIT_E5valueES9_E4typeEOT0_DpOT1_
FN:60,61,_ZSt13__invoke_implIbRNSt8__detail11_AnyMatcherINSt7__cxx1112regex_traitsIcEELb0ELb0ELb0EEEJcEET_St14__invoke_otherOT0_DpOT1_
FN:60,61,_ZSt13__invoke_implIbRNSt8__detail11_AnyMatcherINSt7__cxx1112regex_traitsIcEELb0ELb0ELb1EEEJcEET_St14__invoke_otherOT0_DpOT1_
FN:60,61,_ZSt13__invoke_implIbRNSt8__detail11_AnyMatcherINSt7__cxx1112regex_traitsIcEELb0ELb1ELb0EEEJcEET_St14__invoke_otherOT0_DpOT1_
FN:60,61,_ZSt13__invoke_implIbRNSt8__detail11_AnyMatcherINSt7__cxx1112regex_traitsIcEELb0ELb1ELb1EEEJcEET_St14__invoke_otherOT0_DpOT1_
FN:60,61,_ZSt13__invoke_implIbRNSt8__detail11_AnyMatcherINSt7__cxx1112regex_traitsIcEELb1ELb0ELb0EEEJcEET_St14__invoke_otherOT0_DpOT1_
FN:60,61,_ZSt13__invoke_implIbRNSt8__detail11_AnyMatcherINSt7__cxx1112regex_traitsIcEELb1ELb0ELb1EEEJcEET_St14__invoke_otherOT0_DpOT1_
FN:60,61,_ZSt13__invoke_implIbRNSt8__detail11_AnyMatcherINSt7__cxx1112regex_traitsIcEELb1ELb1ELb0EEEJcEET_St14__invoke_otherOT0_DpOT1_
FN:60,61,_ZSt13__invoke_implIbRNSt8__detail11_AnyMatcherINSt7__cxx1112regex_traitsIcEELb1ELb1ELb1EEEJcEET_St14__invoke_otherOT0_DpOT1_
FN:60,61,_ZSt13__invoke_implIbRNSt8__detail12_CharMatcherINSt7__cxx1112regex_traitsIcEELb0ELb0EEEJcEET_St14__invoke_otherOT0_DpOT1_
FN:60,61,_ZSt13__invoke_implIbRNSt8__detail12_CharMatcherINSt7__cxx1112regex_traitsIcEELb0ELb1EEEJcEET_St14__invoke_otherOT0_DpOT1_
FN:60,61,_ZSt13__invoke_implIbRNSt8__detail12_CharMatcherINSt7__cxx1112regex_traitsIcEELb1ELb0EEEJcEET_St14__invoke_otherOT0_DpOT1_
FN:60,61,_ZSt13__invoke_implIbRNSt8__detail12_CharMatcherINSt7__cxx1112regex_traitsIcEELb1ELb1EEEJcEET_St14__invoke_otherOT0_DpOT1_
FN:60,61,_ZSt13__invoke_implIbRNSt8__detail15_BracketMatcherINSt7__cxx1112regex_traitsIcEELb0ELb0EEEJcEET_St14__invoke_otherOT0_DpOT1_
FN:60,61,_ZSt13__invoke_implIbRNSt8__detail15_BracketMatcherINSt7__cxx1112regex_traitsIcEELb0ELb1EEEJcEET_St14__invoke_otherOT0_DpOT1_
FN:60,61,_ZSt13__invoke_implIbRNSt8__detail15_BracketMatcherINSt7__cxx1112regex_traitsIcEELb1ELb0EEEJcEET_St14__invoke_otherOT0_DpOT1_
FN:60,61,_ZSt13__invoke_implIbRNSt8__detail15_BracketMatcherINSt7__cxx1112regex_traitsIcEELb1ELb1EEEJcEET_St14__invoke_otherOT0_DpOT1_
FNDA:0,_ZSt10__invoke_rIbRNSt8__detail11_AnyMatcherINSt7__cxx1112regex_traitsIcEELb0ELb0ELb0EEEJcEENSt9enable_ifIXntsrSt7is_voidIT_E5valueES9_E4typeEOT0_DpOT1_
FNDA:0,_ZSt10__invoke_rIbRNSt8__detail11_AnyMatcherINSt7__cxx1112regex_traitsIcEELb0ELb0ELb1EEEJcEENSt9enable_ifIXntsrSt7is_voidIT_E5valueES9_E4typeEOT0_DpOT1_
FNDA:0,_ZSt10__invoke_rIbRNSt8__detail11_AnyMatcherINSt7__cxx1112regex_traitsIcEELb0ELb1ELb0EEEJcEENSt9enable_ifIXntsrSt7is_voidIT_E5valueES9_E4typeEOT0_DpOT1_
FNDA:0,_ZSt10__invoke_rIbRNSt8__detail11_AnyMatcherINSt7__cxx1112regex_traitsIcEELb0ELb1ELb1EEEJcEENSt9enable_ifIXntsrSt7is_voidIT_E5valueES9_E4typeEOT0_DpOT1_
FNDA:0,_ZSt10__invoke_rIbRNSt8__detail11_AnyMatcherINSt7__cxx1112regex_traitsIcEELb1ELb0ELb0EEEJcEENSt9enable_ifIXntsrSt7is_voidIT_E5valueES9_E4typeEOT0_DpOT1_
FNDA:0,_ZSt10__invoke_rIbRNSt8__detail11_AnyMatcherINSt7__cxx1112regex_traitsIcEELb1ELb0ELb1EEEJcEENSt9enable_ifIXntsrSt7is_voidIT_E5valueES9_E4typeEOT0_DpOT1_
FNDA:0,_ZSt10__invoke_rIbRNSt8__detail11_AnyMatcherINSt7__cxx1112regex_traitsIcEELb1ELb1ELb0EEEJcEENSt9enable_ifIXntsrSt7is_voidIT_E5valueES9_E4typeEOT0_DpOT1_
FNDA:0,_ZSt10__invoke_rIbRNSt8__detail11_AnyMatcherINSt7__cxx1112regex_traitsIcEELb1ELb1ELb1EEEJcEENSt9enable_ifIXntsrSt7is_voidIT_E5valueES9_E4typeEOT0_DpOT1_
FNDA:0,_ZSt10__invoke_rIbRNSt8__detail12_CharMatcherINSt7__cxx1112regex_traitsIcEELb0ELb0EEEJcEENSt9enable_ifIXntsrSt7is_voidIT_E5valueES9_E4typeEOT0_DpOT1_
FNDA:0,_ZSt10__invoke_rIbRNSt8__detail12_CharMatcherINSt7__cxx1112regex_traitsIcEELb0ELb1EEEJcEENSt9enable_ifIXntsrSt7is_voidIT_E5valueES9_E4typeEOT0_DpOT1_
FNDA:0,_ZSt10__invoke_rIbRNSt8__detail12_CharMatcherINSt7__cxx1112regex_traitsIcEELb1ELb0EEEJcEENSt9enable_ifIXntsrSt7is_voidIT_E5valueES9_E4typeEOT0_DpOT1_
FNDA:0,_ZSt10__invoke_rIbRNSt8__detail12_CharMatcherINSt7__cxx1112regex_traitsIcEELb1ELb1EEEJcEENSt9enable_ifIXntsrSt7is_voidIT_E5valueES9_E4typeEOT0_DpOT1_
FNDA:0,_ZSt10__invoke_rIbRNSt8__detail15_BracketMatcherINSt7__cxx1112regex_traitsIcEELb0ELb0EEEJcEENSt9enable_ifIXntsrSt7is_voidIT_E5valueES9_E4typeEOT0_DpOT1_
FNDA:0,_ZSt10__invoke_rIbRNSt8__detail15_BracketMatcherINSt7__cxx1112regex_traitsIcEELb0ELb1EEEJcEENSt9enable_ifIXntsrSt7is_voidIT_E5valueES9_E4typeEOT0_DpOT1_
FNDA:0,_ZSt10__invoke_rIbRNSt8__detail15_BracketMatcherINSt7__cxx1112regex_traitsIcEELb1ELb0EEEJcEENSt9enable_ifIXntsrSt7is_voidIT_E5valueES9_E4typeEOT0_DpOT1_
FNDA:0,_ZSt10__invoke_rIbRNSt8__detail15_BracketMatcherINSt7__cxx1112regex_traitsIcEELb1ELb1EEEJcEENSt9enable_ifIXntsrSt7is_voidIT_E5valueES9_E4typeEOT0_DpOT1_
FNDA:0,_ZSt13__invoke_implIbRNSt8__detail11_AnyMatcherINSt7__cxx1112regex_traitsIcEELb0ELb0ELb0EEEJcEET_St14__invoke_otherOT0_DpOT1_
FNDA:0,_ZSt13__invoke_implIbRNSt8__detail11_AnyMatcherINSt7__cxx1112regex_traitsIcEELb0ELb0ELb1EEEJcEET_St14__invoke_otherOT0_DpOT1_
FNDA:0,_ZSt13__invoke_implIbRNSt8__detail11_AnyMatcherINSt7__cxx1112regex_traitsIcEELb0ELb1ELb0EEEJcEET_St14__invoke_otherOT0_DpOT1_
FNDA:0,_ZSt13__invoke_implIbRNSt8__detail11_AnyMatcherINSt7__cxx1112regex_traitsIcEELb0ELb1ELb1EEEJcEET_St14__invoke_otherOT0_DpOT1_
FNDA:0,_ZSt13__invoke_implIbRNSt8__detail11_AnyMatcherINSt7__cxx1112regex_traitsIcEELb1ELb0ELb0EEEJcEET_St14__invoke_otherOT0_DpOT1_
FNDA:0,_ZSt13__invoke_implIbRNSt8__detail11_AnyMatcherINSt7__cxx1112regex_traitsIcEELb1ELb0ELb1EEEJcEET_St14__invoke_otherOT0_DpOT1_
FNDA:0,_ZSt13__invoke_implIbRNSt8__detail11_AnyMatcherINSt7__cxx1112regex_traitsIcEELb1ELb1ELb0EEEJcEET_St14__invoke_otherOT0_DpOT1_
FNDA:0,_ZSt13__invoke_implIbRNSt8__detail11_AnyMatcherINSt7__cxx1112regex_traitsIcEELb1ELb1ELb1EEEJcEET_St14__invoke_otherOT0_DpOT1_
FNDA:0,_ZSt13__invoke_implIbRNSt8__detail12_CharMatcherINSt7__cxx1112regex_traitsIcEELb0ELb0EEEJcEET_St14__invoke_otherOT0_DpOT1_
FNDA:0,_ZSt13__invoke_implIbRNSt8__detail12_CharMatcherINSt7__cxx1112regex_traitsIcEELb0ELb1EEEJcEET_St14__invoke_otherOT0_DpOT1_
FNDA:0,_ZSt13__invoke_implIbRNSt8__detail12_CharMatcherINSt7__cxx1112regex_traitsIcEELb1ELb0EEEJcEET_St14__invoke_otherOT0_DpOT1_
FNDA:0,_ZSt13__invoke_implIbRNSt8__detail12_CharMatcherINSt7__cxx1112regex_traitsIcEELb1ELb1EEEJcEET_St14__invoke_otherOT0_DpOT1_
FNDA:0,_ZSt13__invoke_implIbRNSt8__detail15_BracketMatcherINSt7__cxx1112regex_traitsIcEELb0ELb0EEEJcEET_St14__invoke_otherOT0_DpOT1_
FNDA:0,_ZSt13__invoke_implIbRNSt8__detail15_BracketMatcherINSt7__cxx1112regex_traitsIcEELb0ELb1EEEJcEET_St14__invoke_otherOT0_DpOT1_
FNDA:0,_ZSt13__invoke_implIbRNSt8__detail15_BracketMatcherINSt7__cxx1112regex_traitsIcEELb1ELb0EEEJcEET_St14__invoke_otherOT0_DpOT1_
FNDA:0,_ZSt13__invoke_implIbRNSt8__detail15_BracketMatcherINSt7__cxx1112regex_traitsIcEELb1ELb1EEEJcEET_St14__invoke_otherOT0_DpOT1_
FNF:32
FNH:0
DA:60,0
DA:61,0
DA:129,0
DA:138,0
DA:139,0
LF:5
LH:0
end_of_record
TN:
SF:/usr/include/c++/13/bits/ios_base.h
FN:1001,1005,_ZSt9uppercaseRSt8ios_base
FN:103,104,_ZStaNRSt13_Ios_FmtflagsS_
FN:1042,1046,_ZSt4leftRSt8ios_base
FN:1067,1071,_ZSt3hexRSt8ios_base
FN:1075,1079,_ZSt3octRSt8ios_base
FN:1084,1088,_ZSt5fixedRSt8ios_base
FN:1092,1096,_ZSt10scientificRSt8ios_base
FN:130,131,_ZStorSt13_Ios_OpenmodeS_
FN:662,663,_ZNKSt8ios_base5flagsEv
FN:673,678,_ZNSt8ios_base5flagsESt13_Ios_Fmtflags
FN:689,694,_ZNSt8ios_base4setfESt13_Ios_Fmtflags
FN:706,712,_ZNSt8ios_base4setfESt13_Ios_FmtflagsS0_
FN:806,807,_ZNKSt8ios_base6getlocEv
FN:83,84,_ZStanSt13_Ios_FmtflagsS_
FN:87,88,_ZStorSt13_Ios_FmtflagsS_
FN:95,96,_ZStcoSt13_Ios_Fmtflags
FN:99,100,_ZStoRRSt13_Ios_FmtflagsS_
FNDA:0,_ZSt9uppercaseRSt8ios_base
FNDA:0,_ZStaNRSt13_Ios_FmtflagsS_
FNDA:0,_ZSt4leftRSt8ios_base
FNDA:0,_ZSt3hexRSt8ios_base
FNDA:0,_ZSt3octRSt8ios_base
FNDA:0,_ZSt5fixedRSt8ios_base
FNDA:0,_ZSt10scientificRSt8ios_base
FNDA:7,_ZStorSt13_Ios_OpenmodeS_
FNDA:0,_ZNKSt8ios_base5flagsEv
FNDA:0,_ZNSt8ios_base5flagsESt13_Ios_Fmtflags
FNDA:0,_ZNSt8ios_base4setfESt13_Ios_Fmtflags
FNDA:0,_ZNSt8ios_base4setfESt13_Ios_FmtflagsS0_
FNDA:2,_ZNKSt8ios_base6getlocEv
FNDA:0,_ZStanSt13_Ios_FmtflagsS_
FNDA:0,_ZStorSt13_Ios_FmtflagsS_
FNDA:0,_ZStcoSt13_Ios_Fmtflags
FNDA:0,_ZStoRRSt13_Ios_FmtflagsS_
FNF:17
FNH:2
DA:83,0
DA:84,0
DA:87,0
DA:88,0
DA:95,0
DA:96,0
DA:99,0
DA:100,0
DA:103,0
DA:104,0
DA:130,7
DA:131,7
DA:662,0
DA:663,0
DA:673,0
DA:675,0
DA:676,0
DA:677,0
DA:689,0
DA:691,0
DA:692,0
DA:693,0
DA:706,0
DA:708,0
DA:709,0
DA:710,0
DA:711,0
DA:806,2
DA:807,2
DA:1001,0
DA:1003,0
DA:1004,0
DA:1042,0
DA:1044,0
DA:1045,0
DA:1067,0
DA:1069,0
DA:1070,0
DA:1075,0
DA:1077,0
DA:1078,0
DA:1084,0
DA:1086,0
DA:1087,0
DA:1092,0
DA:1094,0
DA:1095,0
LF:47
LH:4
end_of_record
TN:
SF:/usr/include/c++/13/bits/locale_classes.tcc
FN:192,203,_ZSt9use_facetIKSt5ctypeIcEERKT_RKSt6locale
FN:92,147,_ZSt15__try_use_facetIKSt5ctypeIcEEPKT_RKSt6locale
FNDA:0,_ZSt9use_facetIKSt5ctypeIcEERKT_RKSt6locale
FNDA:0,_ZSt15__try_use_facetIKSt5ctypeIcEEPKT_RKSt6locale
FNF:2
FNH:0
DA:92,0
DA:94,0
DA:95,0
DA:139,0
DA:140,0
DA:143,0
DA:192,0
DA:200,0
DA:201,0
DA:202,0
LF:10
LH:0
end_of_record
TN:
SF:/usr/include/c++/13/bits/locale_facets.h
FN:810,811,_ZNKSt5ctypeIcE7toupperEc
FN:843,844,_ZNKSt5ctypeIcE7tolowerEc
FN:860,861,_ZNKSt5ctypeIcE7tolowerEPcPKc
FN:880,886,_ZNKSt5ctypeIcE5widenEc
FN:939,947,_ZNKSt5ctypeIcE6narrowEcc
FNDA:0,_ZNKSt5ctypeIcE7toupperEc
FNDA:0,_ZNKSt5ctypeIcE7tolowerEc
FNDA:0,_ZNKSt5ctypeIcE7tolowerEPcPKc
FNDA:0,_ZNKSt5ctypeIcE5widenEc
FNDA:0,_ZNKSt5ctypeIcE6narrowEcc
FNF:5
FNH:0
DA:810,0
DA:811,0
DA:843,0
DA:844,0
DA:860,0
DA:861,0
DA:880,0
DA:882,0
DA:883,0
DA:884,0
DA:885,0
DA:939,0
DA:941,0
DA:942,0
DA:943,0
DA:944,0
DA:945,0
DA:946,0
LF:18
LH:0
end_of_record
TN:
SF:/usr/include/c++/13/bits/move.h
FN:189,200,_ZSt4swapIN5Catch8TestCaseEENSt9enable_ifIXsrSt6__and_IJSt6__not_ISt15__is_tuple_likeIT_EESt21is_move_constructibleIS6_ESt18is_move_assignableIS6_EEE5valueEvE4typeERS6_SG_
FN:189,200,_ZSt4swapIPFbRKSt9_Any_dataOcEENSt9enable_ifIXsrSt6__and_IJSt6__not_ISt15__is_tuple_likeIT_EESt21is_move_constructibleISA_ESt18is_move_assignableISA_EEE5valueEvE4typeERSA_SK_
FN:189,200,_ZSt4swapIPFbRSt9_Any_dataRKS0_St18_Manager_operationEENSt9enable_ifIXsrSt6__and_IJSt6__not_ISt15__is_tuple_likeIT_EESt21is_move_constructibleISB_ESt18is_move_assignableISB_EEE5valueEvE4typeERSB_SL_
FN:189,200,_ZSt4swapIPKN5Catch8TestCaseEENSt9enable_ifIXsrSt6__and_IJSt6__not_ISt15__is_tuple_likeIT_EESt21is_move_constructibleIS8_ESt18is_move_assignableIS8_EEE5valueEvE4typeERS8_SI_
FN:189,200,_ZSt4swapIPKNSt8__detail4_NFAINSt7__cxx1112regex_traitsIcEEEEENSt9enable_ifIXsrSt6__and_IJSt6__not_ISt15__is_tuple_likeIT_EESt21is_move_constructibleISC_ESt18is_move_assignableISC_EEE5valueEvE4typeERSC_SM_
FN:189,200,_ZSt4swapIPN5Catch10Generators16GeneratorTrackerEENSt9enable_ifIXsrSt6__and_IJSt6__not_ISt15__is_tuple_likeIT_EESt21is_move_constructibleIS8_ESt18is_move_assignableIS8_EEE5valueEvE4typeERS8_SI_
FN:189,200,_ZSt4swapIPN5Catch12ITestInvokerEENSt9enable_ifIXsrSt6__and_IJSt6__not_ISt15__is_tuple_likeIT_EESt21is_move_constructibleIS7_ESt18is_move_assignableIS7_EEE5valueEvE4typeERS7_SH_
FN:189,200,_ZSt4swapIPN5Catch16TestCaseTracking14SectionTrackerEENSt9enable_ifIXsrSt6__and_IJSt6__not_ISt15__is_tuple_likeIT_EESt21is_move_constructibleIS8_ESt18is_move_assignableIS8_EEE5valueEvE4typeERS8_SI_
FN:189,200,_ZSt4swapIPN5Catch16TestCaseTracking8ITrackerEENSt9enable_ifIXsrSt6__and_IJSt6__not_ISt15__is_tuple_likeIT_EESt21is_move_constructibleIS8_ESt18is_move_assignableIS8_EEE5valueEvE4typeERS8_SI_
FN:189,200,_ZSt4swapIPN5Catch22CumulativeReporterBaseINS0_13JunitReporterEE11SectionNodeEENSt9enable_ifIXsrSt6__and_IJSt6__not_ISt15__is_tuple_likeIT_EESt21is_move_constructibleISA_ESt18is_move_assignableISA_EEE5valueEvE4typeERSA_SK_
FN:189,200,_ZSt4swapIPN5Catch5clara6detail17BoundValueRefBaseEENSt9enable_ifIXsrSt6__and_IJSt6__not_ISt15__is_tuple_likeIT_EESt21is_move_constructibleIS9_ESt18is_move_assignableIS9_EEE5valueEvE4typeERS9_SJ_
FN:189,200,_ZSt4swapIPN5Catch6ConfigEENSt9enable_ifIXsrSt6__and_IJSt6__not_ISt15__is_tuple_likeIT_EESt21is_move_constructibleIS7_ESt18is_move_assignableIS7_EEE5valueEvE4typeERS7_SH_
FN:189,200,_ZSt4swapIPN5Catch8TestSpec7PatternEENSt9enable_ifIXsrSt6__and_IJSt6__not_ISt15__is_tuple_likeIT_EESt21is_move_constructibleIS8_ESt18is_move_assignableIS8_EEE5valueEvE4typeERS8_SI_
FN:189,200,_ZSt4swapIPNSt7__cxx1112basic_stringIcSt11char_traitsIcESaIcEEEENSt9enable_ifIXsrSt6__and_IJSt6__not_ISt15__is_tuple_likeIT_EESt21is_move_constructibleISB_ESt18is_move_assignableISB_EEE5valueEvE4typeERSB_SL_
FN:189,200,_ZSt4swapISt6localeENSt9enable_ifIXsrSt6__and_IJSt6__not_ISt15__is_tuple_likeIT_EESt21is_move_constructibleIS5_ESt18is_move_assignableIS5_EEE5valueEvE4typeERS5_SF_
FN:189,200,_ZSt4swapISt9_Any_dataENSt9enable_ifIXsrSt6__and_IJSt6__not_ISt15__is_tuple_likeIT_EESt21is_move_constructibleIS5_ESt18is_move_assignableIS5_EEE5valueEvE4typeERS5_SF_
FN:189,200,_ZSt4swapIcENSt9enable_ifIXsrSt6__and_IJSt6__not_ISt15__is_tuple_likeIT_EESt21is_move_constructibleIS4_ESt18is_move_assignableIS4_EEE5valueEvE4typeERS4_SE_
FN:189,200,_ZSt4swapIlENSt9enable_ifIXsrSt6__and_IJSt6__not_ISt15__is_tuple_likeIT_EESt21is_move_constructibleIS4_ESt18is_move_assignableIS4_EEE5valueEvE4typeERS4_SE_
FN:189,200,_ZSt4swapImENSt9enable_ifIXsrSt6__and_IJSt6__not_ISt15__is_tuple_likeIT_EESt21is_move_constructibleIS4_ESt18is_move_assignableIS4_EEE5valueEvE4typeERS4_SE_
FN:51,52,_ZSt11__addressofIKNSt8__detail11_AnyMatcherINSt7__cxx1112regex_traitsIcEELb0ELb0ELb0EEEEPT_RS7_
FN:51,52,_ZSt11__addressofIKNSt8__detail11_AnyMatcherINSt7__cxx1112regex_traitsIcEELb0ELb0ELb1EEEEPT_RS7_
FN:51,52,_ZSt11__addressofIKNSt8__detail11_AnyMatcherINSt7__cxx1112regex_traitsIcEELb0ELb1ELb0EEEEPT_RS7_
FN:51,52,_ZSt11__addressofIKNSt8__detail11_AnyMatcherINSt7__cxx1112regex_traitsIcEELb0ELb1ELb1EEEEPT_RS7_
FN:51,52,_ZSt11__addressofIKNSt8__detail11_AnyMatcherINSt7__cxx1112regex_traitsIcEELb1ELb0ELb0EEEEPT_RS7_
FN:51,52,_ZSt11__addressofIKNSt8__detail11_AnyMatcherINSt7__cxx1112regex_traitsIcEELb1ELb0ELb1EEEEPT_RS7_
FN:51,52,_ZSt11__addressofIKNSt8__detail11_AnyMatcherINSt7__cxx1112regex_traitsIcEELb1ELb1ELb0EEEEPT_RS7_
FN:51,52,_ZSt11__addressofIKNSt8__detail11_AnyMatcherINSt7__cxx1112regex_traitsIcEELb1ELb1ELb1EEEEPT_RS7_
FN:51,52,_ZSt11__addressofIKNSt8__detail12_CharMatcherINSt7__cxx1112regex_traitsIcEELb0ELb0EEEEPT_RS7_
FN:51,52,_ZSt11__addressofIKNSt8__detail12_CharMatcherINSt7__cxx1112regex_traitsIcEELb0ELb1EEEEPT_RS7_
FN:51,52,_ZSt11__addressofIKNSt8__detail12_CharMatcherINSt7__cxx1112regex_traitsIcEELb1ELb0EEEEPT_RS7_
FN:51,52,_ZSt11__addressofIKNSt8__detail12_CharMatcherINSt7__cxx1112regex_traitsIcEELb1ELb1EEEEPT_RS7_
FN:51,52,_ZSt11__addressofIKSt6vectorIN5Catch5clara6detail3ArgESaIS4_EEEPT_RS8_
FN:51,52,_ZSt11__addressofIKSt6vectorIN5Catch5clara6detail3OptESaIS4_EEEPT_RS8_
FN:51,52,_ZSt11__addressofIKSt6vectorINSt7__cxx1112basic_stringIcSt11char_traitsIcESaIcEEESaIS6_EEEPT_RSA_
FN:51,52,_ZSt11__addressofIKSt6vectorINSt7__cxx119sub_matchIN9__gnu_cxx17__normal_iteratorIPKcNS1_12basic_stringIcSt11char_traitsIcESaIcEEEEEEESaISD_EEEPT_RSH_
FN:51,52,_ZSt11__addressofIN5Catch11MessageInfoEEPT_RS2_
FN:51,52,_ZSt11__addressofIN5Catch11SectionInfoEEPT_RS2_
FN:51,52,_ZSt11__addressofIN5Catch12_GLOBAL__N_110ColumnInfoEEPT_RS3_
FN:51,52,_ZSt11__addressofIN5Catch13ScopedMessageEEPT_RS2_
FN:51,52,_ZSt11__addressofIN5Catch13SummaryColumnEEPT_RS2_
FN:51,52,_ZSt11__addressofIN5Catch14AssertionStatsEEPT_RS2_
FN:51,52,_ZSt11__addressofIN5Catch14SectionEndInfoEEPT_RS2_
FN:51,52,_ZSt11__addressofIN5Catch5clara6detail11HelpColumnsEEPT_RS4_
FN:51,52,_ZSt11__addressofIN5Catch5clara6detail3ArgEEPT_RS4_
FN:51,52,_ZSt11__addressofIN5Catch5clara6detail3OptEEPT_RS4_
FN:51,52,_ZSt11__addressofIN5Catch5clara6detail5TokenEEPT_RS4_
FN:51,52,_ZSt11__addressofIN5Catch5clara8TextFlow6Column8iteratorEEPT_RS5_
FN:51,52,_ZSt11__addressofIN5Catch5clara8TextFlow6ColumnEEPT_RS4_
FN:51,52,_ZSt11__addressofIN5Catch8TestCaseEEPT_RS2_
FN:51,52,_ZSt11__addressofIN5Catch8TestSpec11FilterMatchEEPT_RS3_
FN:51,52,_ZSt11__addressofIN5Catch8TestSpec6FilterEEPT_RS3_
FN:51,52,_ZSt11__addressofIN5Catch9StringRefEEPT_RS2_
FN:51,52,_ZSt11__addressofINSt15__exception_ptr13exception_ptrEEPT_RS2_
FN:51,52,_ZSt11__addressofINSt7__cxx1112basic_stringIcSt11char_traitsIcESaIcEEEEPT_RS6_
FN:51,52,_ZSt11__addressofINSt7__cxx1112regex_traitsIcE10_RegexMaskEEPT_RS4_
FN:51,52,_ZSt11__addressofINSt7__cxx119sub_matchIN9__gnu_cxx17__normal_iteratorIPKcNS0_12basic_stringIcSt11char_traitsIcESaIcEEEEEEEEPT_RSD_
FN:51,52,_ZSt11__addressofINSt8__detail6_StateIcEEEPT_RS3_
FN:51,52,_ZSt11__addressofISaISt23_Sp_counted_ptr_inplaceIN5Catch10Generators16GeneratorTrackerESaIvELN9__gnu_cxx12_Lock_policyE2EEEEPT_RS9_
FN:51,52,_ZSt11__addressofISaISt23_Sp_counted_ptr_inplaceIN5Catch16TestCaseTracking14SectionTrackerESaIvELN9__gnu_cxx12_Lock_policyE2EEEEPT_RS9_
FN:51,52,_ZSt11__addressofISaISt23_Sp_counted_ptr_inplaceIN5Catch17ReporterRegistrarINS1_11XmlReporterEE15ReporterFactoryESaIvELN9__gnu_cxx12_Lock_policyE2EEEEPT_RSB_
FN:51,52,_ZSt11__addressofISaISt23_Sp_counted_ptr_inplaceIN5Catch17ReporterRegistrarINS1_13JunitReporterEE15ReporterFactoryESaIvELN9__gnu_cxx12_Lock_policyE2EEEEPT_RSB_
FN:51,52,_ZSt11__addressofISaISt23_Sp_counted_ptr_inplaceIN5Catch17ReporterRegistrarINS1_15CompactReporterEE15ReporterFactoryESaIvELN9__gnu_cxx12_Lock_policyE2EEEEPT_RSB_
FN:51,52,_ZSt11__addressofISaISt23_Sp_counted_ptr_inplaceIN5Catch17ReporterRegistrarINS1_15ConsoleReporterEE15ReporterFactoryESaIvELN9__gnu_cxx12_Lock_policyE2EEEEPT_RSB_
FN:51,52,_ZSt11__addressofISaISt23_Sp_counted_ptr_inplaceIN5Catch22CumulativeReporterBaseINS1_13JunitReporterEE11SectionNodeESaIvELN9__gnu_cxx12_Lock_policyE2EEEEPT_RSB_
FN:51,52,_ZSt11__addressofISaISt23_Sp_counted_ptr_inplaceIN5Catch22CumulativeReporterBaseINS1_13JunitReporterEE4NodeINS1_12TestRunStatsENS5_INS1_14TestGroupStatsENS5_INS1_13TestCaseStatsENS4_11SectionNodeEEEEEEESaIvELN9__gnu_cxx12_Lock_policyE2EEEEPT_RSI_
FN:51,52,_ZSt11__addressofISaISt23_Sp_counted_ptr_inplaceIN5Catch22CumulativeReporterBaseINS1_13JunitReporterEE4NodeINS1_13TestCaseStatsENS4_11SectionNodeEEESaIvELN9__gnu_cxx12_Lock_policyE2EEEEPT_RSE_
FN:51,52,_ZSt11__addressofISaISt23_Sp_counted_ptr_inplaceIN5Catch22CumulativeReporterBaseINS1_13JunitReporterEE4NodeINS1_14TestGroupStatsENS5_INS1_13TestCaseStatsENS4_11SectionNodeEEEEESaIvELN9__gnu_cxx12_Lock_policyE2EEEEPT_RSG_
FN:51,52,_ZSt11__addressofISaISt23_Sp_counted_ptr_inplaceIN5Catch5clara6detail11BoundLambdaIZNS1_21makeCommandLineParserERNS1_10ConfigDataEEUlRKNSt7__cxx1112basic_stringIcSt11char_traitsIcESaIcEEEE0_EESaIvELN9__gnu_cxx12_Lock_policyE2EEEEPT_RSM_
FN:51,52,_ZSt11__addressofISaISt23_Sp_counted_ptr_inplaceIN5Catch5clara6detail11BoundLambdaIZNS1_21makeCommandLineParserERNS1_10ConfigDataEEUlRKNSt7__cxx1112basic_stringIcSt11char_traitsIcESaIcEEEE1_EESaIvELN9__gnu_cxx12_Lock_policyE2EEEEPT_RSM_
FN:51,52,_ZSt11__addressofISaISt23_Sp_counted_ptr_inplaceIN5Catch5clara6detail11BoundLambdaIZNS1_21makeCommandLineParserERNS1_10ConfigDataEEUlRKNSt7__cxx1112basic_stringIcSt11char_traitsIcESaIcEEEE2_EESaIvELN9__gnu_cxx12_Lock_policyE2EEEEPT_RSM_
FN:51,52,_ZSt11__addressofISaISt23_Sp_counted_ptr_inplaceIN5Catch5clara6detail11BoundLambdaIZNS1_21makeCommandLineParserERNS1_10ConfigDataEEUlRKNSt7__cxx1112basic_stringIcSt11char_traitsIcESaIcEEEE3_EESaIvELN9__gnu_cxx12_Lock_policyE2EEEEPT_RSM_
FN:51,52,_ZSt11__addressofISaISt23_Sp_counted_ptr_inplaceIN5Catch5clara6detail11BoundLambdaIZNS1_21makeCommandLineParserERNS1_10ConfigDataEEUlRKNSt7__cxx1112basic_stringIcSt11char_traitsIcESaIcEEEE4_EESaIvELN9__gnu_cxx12_Lock_policyE2EEEEPT_RSM_
FN:51,52,_ZSt11__addressofISaISt23_Sp_counted_ptr_inplaceIN5Catch5clara6detail11BoundLambdaIZNS1_21makeCommandLineParserERNS1_10ConfigDataEEUlRKNSt7__cxx1112basic_stringIcSt11char_traitsIcESaIcEEEE5_EESaIvELN9__gnu_cxx12_Lock_policyE2EEEEPT_RSM_
FN:51,52,_ZSt11__addressofISaISt23_Sp_counted_ptr_inplaceIN5Catch5clara6detail11BoundLambdaIZNS1_21makeCommandLineParserERNS1_10ConfigDataEEUlRKNSt7__cxx1112basic_stringIcSt11char_traitsIcESaIcEEEE6_EESaIvELN9__gnu_cxx12_Lock_policyE2EEEEPT_RSM_
FN:51,52,_ZSt11__addressofISaISt23_Sp_counted_ptr_inplaceIN5Catch5clara6detail11BoundLambdaIZNS1_21makeCommandLineParserERNS1_10ConfigDataEEUlRKNSt7__cxx1112basic_stringIcSt11char_traitsIcESaIcEEEE_EESaIvELN9__gnu_cxx12_Lock_policyE2EEEEPT_RSM_
FN:51,52,_ZSt11__addressofISaISt23_Sp_counted_ptr_inplaceIN5Catch5clara6detail11BoundLambdaIZNS1_21makeCommandLineParserERNS1_10ConfigDataEEUlbE0_EESaIvELN9__gnu_cxx12_Lock_policyE2EEEEPT_RSE_
FN:51,52,_ZSt11__addressofISaISt23_Sp_counted_ptr_inplaceIN5Catch5clara6detail11BoundLambdaIZNS1_21makeCommandLineParserERNS1_10ConfigDataEEUliE_EESaIvELN9__gnu_cxx12_Lock_policyE2EEEEPT_RSE_
FN:51,52,_ZSt11__addressofISaISt23_Sp_counted_ptr_inplaceIN5Catch5clara6detail12BoundFlagRefESaIvELN9__gnu_cxx12_Lock_policyE2EEEEPT_RSA_
FN:51,52,_ZSt11__addressofISaISt23_Sp_counted_ptr_inplaceIN5Catch5clara6detail13BoundValueRefINSt7__cxx1112basic_stringIcSt11char_traitsIcESaIcEEEEESaIvELN9__gnu_cxx12_Lock_policyE2EEEEPT_RSH_
FN:51,52,_ZSt11__addressofISaISt23_Sp_counted_ptr_inplaceIN5Catch5clara6detail13BoundValueRefISt6vectorINSt7__cxx1112basic_stringIcSt11char_traitsIcESaIcEEESaISB_EEEESaIvELN9__gnu_cxx12_Lock_policyE2EEEEPT_RSK_
FN:51,52,_ZSt11__addressofISaISt23_Sp_counted_ptr_inplaceIN5Catch5clara6detail13BoundValueRefIdEESaIvELN9__gnu_cxx12_Lock_policyE2EEEEPT_RSB_
FN:51,52,_ZSt11__addressofISaISt23_Sp_counted_ptr_inplaceIN5Catch5clara6detail13BoundValueRefIjEESaIvELN9__gnu_cxx12_Lock_policyE2EEEEPT_RSB_
FN:51,52,_ZSt11__addressofISaISt23_Sp_counted_ptr_inplaceIN5Catch5clara6detail13BoundValueRefIlEESaIvELN9__gnu_cxx12_Lock_policyE2EEEEPT_RSB_
FN:51,52,_ZSt11__addressofISaISt23_Sp_counted_ptr_inplaceIN5Catch5clara6detail15BoundFlagLambdaIZNS1_21makeCommandLineParserERNS1_10ConfigDataEEUlbE_EESaIvELN9__gnu_cxx12_Lock_policyE2EEEEPT_RSE_
FN:51,52,_ZSt11__addressofISaISt23_Sp_counted_ptr_inplaceIN5Catch5clara6detail15BoundFlagLambdaIZNS3_4HelpC4ERbEUlbE_EESaIvELN9__gnu_cxx12_Lock_policyE2EEEEPT_RSE_
FN:51,52,_ZSt11__addressofISaISt23_Sp_counted_ptr_inplaceIN5Catch6ConfigESaIvELN9__gnu_cxx12_Lock_policyE2EEEEPT_RS8_
FN:51,52,_ZSt11__addressofISaISt23_Sp_counted_ptr_inplaceIN5Catch8TestSpec10TagPatternESaIvELN9__gnu_cxx12_Lock_policyE2EEEEPT_RS9_
FN:51,52,_ZSt11__addressofISaISt23_Sp_counted_ptr_inplaceIN5Catch8TestSpec11NamePatternESaIvELN9__gnu_cxx12_Lock_policyE2EEEEPT_RS9_
FN:51,52,_ZSt11__addressofISaISt23_Sp_counted_ptr_inplaceIN5Catch8TestSpec15ExcludedPatternESaIvELN9__gnu_cxx12_Lock_policyE2EEEEPT_RS9_
FN:51,52,_ZSt11__addressofISaISt23_Sp_counted_ptr_inplaceINSt7__cxx1112basic_stringIcSt11char_traitsIcESaIcEEESaIvELN9__gnu_cxx12_Lock_policyE2EEEEPT_RSC_
FN:51,52,_ZSt11__addressofISaISt23_Sp_counted_ptr_inplaceINSt8__detail4_NFAINSt7__cxx1112regex_traitsIcEEEESaIvELN9__gnu_cxx12_Lock_policyE2EEEEPT_RSC_
FN:51,52,_ZSt11__addressofISt10shared_ptrIN5Catch16IReporterFactoryEEEPT_RS4_
FN:51,52,_ZSt11__addressofISt10shared_ptrIN5Catch16TestCaseTracking8ITrackerEEEPT_RS5_
FN:51,52,_ZSt11__addressofISt10shared_ptrIN5Catch22CumulativeReporterBaseINS1_13JunitReporterEE11SectionNodeEEEPT_RS7_
FN:51,52,_ZSt11__addressofISt10shared_ptrIN5Catch22CumulativeReporterBaseINS1_13JunitReporterEE4NodeINS1_12TestRunStatsENS5_INS1_14TestGroupStatsENS5_INS1_13TestCaseStatsENS4_11SectionNodeEEEEEEEEEPT_RSE_
FN:51,52,_ZSt11__addressofISt10shared_ptrIN5Catch22CumulativeReporterBaseINS1_13JunitReporterEE4NodeINS1_13TestCaseStatsENS4_11SectionNodeEEEEEPT_RSA_
FN:51,52,_ZSt11__addressofISt10shared_ptrIN5Catch22CumulativeReporterBaseINS1_13JunitReporterEE4NodeINS1_14TestGroupStatsENS5_INS1_13TestCaseStatsENS4_11SectionNodeEEEEEEEPT_RSC_
FN:51,52,_ZSt11__addressofISt10shared_ptrIN5Catch8TestSpec7PatternEEEPT_RS5_
FN:51,52,_ZSt11__addressofISt10unique_ptrIKN5Catch20IExceptionTranslatorESt14default_deleteIS3_EEEPT_RS7_
FN:51,52,_ZSt11__addressofISt10unique_ptrIN5Catch18IStreamingReporterESt14default_deleteIS2_EEEPT_RS6_
FN:51,52,_ZSt11__addressofISt10unique_ptrIN5Catch6Detail8EnumInfoESt14default_deleteIS3_EEEPT_RS7_
FN:51,52,_ZSt11__addressofISt10unique_ptrINSt7__cxx1119basic_ostringstreamIcSt11char_traitsIcESaIcEEESt14default_deleteIS6_EEEPT_RSA_
FN:51,52,_ZSt11__addressofISt4pairIN9__gnu_cxx17__normal_iteratorIPKcNSt7__cxx1112basic_stringIcSt11char_traitsIcESaIcEEEEEiEEPT_RSD_
FN:51,52,_ZSt11__addressofISt4pairINSt7__cxx1112basic_stringIcSt11char_traitsIcESaIcEEES6_EEPT_RS8_
FN:51,52,_ZSt11__addressofISt4pairIccEEPT_RS2_
FN:51,52,_ZSt11__addressofISt4pairIiN5Catch9StringRefEEEPT_RS4_
FN:51,52,_ZSt11__addressofISt4pairIlSt6vectorINSt7__cxx119sub_matchIN9__gnu_cxx17__normal_iteratorIPKcNS2_12basic_stringIcSt11char_traitsIcESaIcEEEEEEESaISE_EEEEPT_RSI_
FN:51,52,_ZSt11__addressofISt4pairImPKN5Catch8TestCaseEEEPT_RS6_
FN:51,52,_ZSt11__addressofISt6vectorISt10shared_ptrIN5Catch22CumulativeReporterBaseINS2_13JunitReporterEE11SectionNodeEESaIS7_EEEPT_RSA_
FN:70,71,_ZSt7forwardIDnEOT_RNSt16remove_referenceIS0_E4typeE
FN:70,71,_ZSt7forwardIN5Catch11MessageInfoEEOT_RNSt16remove_referenceIS2_E4typeE
FN:70,71,_ZSt7forwardIN5Catch11SectionInfoEEOT_RNSt16remove_referenceIS2_E4typeE
FN:70,71,_ZSt7forwardIN5Catch13ScopedMessageEEOT_RNSt16remove_referenceIS2_E4typeE
FN:70,71,_ZSt7forwardIN5Catch13SummaryColumnEEOT_RNSt16remove_referenceIS2_E4typeE
FN:70,71,_ZSt7forwardIN5Catch14SectionEndInfoEEOT_RNSt16remove_referenceIS2_E4typeE
FN:70,71,_ZSt7forwardIN5Catch16TestCaseTracking15NameAndLocationEEOT_RNSt16remove_referenceIS3_E4typeE
FN:70,71,_ZSt7forwardIN5Catch5clara6detail11HelpColumnsEEOT_RNSt16remove_referenceIS4_E4typeE
FN:70,71,_ZSt7forwardIN5Catch5clara6detail3ArgEEOT_RNSt16remove_referenceIS4_E4typeE
FN:70,71,_ZSt7forwardIN5Catch5clara6detail3OptEEOT_RNSt16remove_referenceIS4_E4typeE
FN:70,71,_ZSt7forwardIN5Catch5clara6detail5TokenEEOT_RNSt16remove_referenceIS4_E4typeE
FN:70,71,_ZSt7forwardIN5Catch5clara8TextFlow6Column8iteratorEEOT_RNSt16remove_referenceIS5_E4typeE
FN:70,71,_ZSt7forwardIN5Catch5clara8TextFlow6ColumnEEOT_RNSt16remove_referenceIS4_E4typeE
FN:70,71,_ZSt7forwardIN5Catch7TagInfoEEOT_RNSt16remove_referenceIS2_E4typeE
FN:70,71,_ZSt7forwardIN5Catch8TagAliasEEOT_RNSt16remove_referenceIS2_E4typeE
FN:70,71,_ZSt7forwardIN5Catch8TestCaseEEOT_RNSt16remove_referenceIS2_E4typeE
FN:70,71,_ZSt7forwardIN5Catch8TestSpec6FilterEEOT_RNSt16remove_referenceIS3_E4typeE
FN:70,71,_ZSt7forwardIN5Catch9StringRefEEOT_RNSt16remove_referenceIS2_E4typeE
FN:70,71,_ZSt7forwardINSt15__exception_ptr13exception_ptrEEOT_RNSt16remove_referenceIS2_E4typeE
FN:70,71,_ZSt7forwardINSt7__cxx1112basic_stringIcSt11char_traitsIcESaIcEEEEOT_RNSt16remove_referenceIS6_E4typeE
FN:70,71,_ZSt7forwardINSt7__cxx1112regex_traitsIcE10_RegexMaskEEOT_RNSt16remove_referenceIS4_E4typeE
FN:70,71,_ZSt7forwardINSt8__detail11_AnyMatcherINSt7__cxx1112regex_traitsIcEELb0ELb0ELb0EEEEOT_RNSt16remove_referenceIS6_E4typeE
FN:70,71,_ZSt7forwardINSt8__detail11_AnyMatcherINSt7__cxx1112regex_traitsIcEELb0ELb0ELb1EEEEOT_RNSt16remove_referenceIS6_E4typeE
FN:70,71,_ZSt7forwardINSt8__detail11_AnyMatcherINSt7__cxx1112regex_traitsIcEELb0ELb1ELb0EEEEOT_RNSt16remove_referenceIS6_E4typeE
FN:70,71,_ZSt7forwardINSt8__detail11_AnyMatcherINSt7__cxx1112regex_traitsIcEELb0ELb1ELb1EEEEOT_RNSt16remove_referenceIS6_E4typeE
FN:70,71,_ZSt7forwardINSt8__detail11_AnyMatcherINSt7__cxx1112regex_traitsIcEELb1ELb0ELb0EEEEOT_RNSt16remove_referenceIS6_E4typeE
FN:70,71,_ZSt7forwardINSt8__detail11_AnyMatcherINSt7__cxx1112regex_traitsIcEELb1ELb0ELb1EEEEOT_RNSt16remove_referenceIS6_E4typeE
FN:70,71,_ZSt7forwardINSt8__detail11_AnyMatcherINSt7__cxx1112regex_traitsIcEELb1ELb1ELb0EEEEOT_RNSt16remove_referenceIS6_E4typeE
FN:70,71,_ZSt7forwardINSt8__detail11_AnyMatcherINSt7__cxx1112regex_traitsIcEELb1ELb1ELb1EEEEOT_RNSt16remove_referenceIS6_E4typeE
FN:70,71,_ZSt7forwardINSt8__detail12_CharMatcherINSt7__cxx1112regex_traitsIcEELb0ELb0EEEEOT_RNSt16remove_referenceIS6_E4typeE
FN:70,71,_ZSt7forwardINSt8__detail12_CharMatcherINSt7__cxx1112regex_traitsIcEELb0ELb1EEEEOT_RNSt16remove_referenceIS6_E4typeE
FN:70,71,_ZSt7forwardINSt8__detail12_CharMatcherINSt7__cxx1112regex_traitsIcEELb1ELb0EEEEOT_RNSt16remove_referenceIS6_E4typeE
FN:70,71,_ZSt7forwardINSt8__detail12_CharMatcherINSt7__cxx1112regex_traitsIcEELb1ELb1EEEEOT_RNSt16remove_referenceIS6_E4typeE
FN:70,71,_ZSt7forwardINSt8__detail15_BracketMatcherINSt7__cxx1112regex_traitsIcEELb0ELb0EEEEOT_RNSt16remove_referenceIS6_E4typeE
FN:70,71,_ZSt7forwardINSt8__detail15_BracketMatcherINSt7__cxx1112regex_traitsIcEELb0ELb1EEEEOT_RNSt16remove_referenceIS6_E4typeE
FN:70,71,_ZSt7forwardINSt8__detail15_BracketMatcherINSt7__cxx1112regex_traitsIcEELb1ELb0EEEEOT_RNSt16remove_referenceIS6_E4typeE
FN:70,71,_ZSt7forwardINSt8__detail15_BracketMatcherINSt7__cxx1112regex_traitsIcEELb1ELb1EEEEOT_RNSt16remove_referenceIS6_E4typeE
FN:70,71,_ZSt7forwardINSt8__detail6_StateIcEEEOT_RNSt16remove_referenceIS3_E4typeE
FN:70,71,_ZSt7forwardINSt8__detail9_StateSeqINSt7__cxx1112regex_traitsIcEEEEEOT_RNSt16remove_referenceIS6_E4typeE
FN:70,71,_ZSt7forwardIPKN5Catch8TestCaseEEOT_RNSt16remove_referenceIS4_E4typeE
FN:70,71,_ZSt7forwardIPN5Catch16TestCaseTracking8ITrackerEEOT_RNSt16remove_referenceIS4_E4typeE
FN:70,71,_ZSt7forwardIRA13_KcEOT_RNSt16remove_referenceIS3_E4typeE
FN:70,71,_ZSt7forwardIRA1_KcEOT_RNSt16remove_referenceIS3_E4typeE
FN:70,71,_ZSt7forwardIRA2_KcEOT_RNSt16remove_referenceIS3_E4typeE
FN:70,71,_ZSt7forwardIRKN5Catch11MessageInfoEEOT_RNSt16remove_referenceIS4_E4typeE
FN:70,71,_ZSt7forwardIRKN5Catch11SectionInfoEEOT_RNSt16remove_referenceIS4_E4typeE
FN:70,71,_ZSt7forwardIRKN5Catch12TestRunStatsEEOT_RNSt16remove_referenceIS4_E4typeE
FN:70,71,_ZSt7forwardIRKN5Catch12_GLOBAL__N_110ColumnInfoEEOT_RNSt16remove_referenceIS5_E4typeE
FN:70,71,_ZSt7forwardIRKN5Catch13TestCaseStatsEEOT_RNSt16remove_referenceIS4_E4typeE
FN:70,71,_ZSt7forwardIRKN5Catch14AssertionStatsEEOT_RNSt16remove_referenceIS4_E4typeE
FN:70,71,_ZSt7forwardIRKN5Catch14MessageBuilderEEOT_RNSt16remove_referenceIS4_E4typeE
FN:70,71,_ZSt7forwardIRKN5Catch14SectionEndInfoEEOT_RNSt16remove_referenceIS4_E4typeE
FN:70,71,_ZSt7forwardIRKN5Catch14SourceLineInfoEEOT_RNSt16remove_referenceIS4_E4typeE
FN:70,71,_ZSt7forwardIRKN5Catch14TestGroupStatsEEOT_RNSt16remove_referenceIS4_E4typeE
FN:70,71,_ZSt7forwardIRKN5Catch16TestCaseTracking15NameAndLocationEEOT_RNSt16remove_referenceIS5_E4typeE
FN:70,71,_ZSt7forwardIRKN5Catch5clara6detail11HelpColumnsEEOT_RNSt16remove_referenceIS6_E4typeE
FN:70,71,_ZSt7forwardIRKN5Catch5clara6detail3ArgEEOT_RNSt16remove_referenceIS6_E4typeE
FN:70,71,_ZSt7forwardIRKN5Catch5clara6detail3OptEEOT_RNSt16remove_referenceIS6_E4typeE
FN:70,71,_ZSt7forwardIRKN5Catch5clara6detail5TokenEEOT_RNSt16remove_referenceIS6_E4typeE
FN:70,71,_ZSt7forwardIRKN5Catch5clara8TextFlow6ColumnEEOT_RNSt16remove_referenceIS6_E4typeE
FN:70,71,_ZSt7forwardIRKN5Catch8TestCaseEEOT_RNSt16remove_referenceIS4_E4typeE
FN:70,71,_ZSt7forwardIRKN5Catch8TestSpec6FilterEEOT_RNSt16remove_referenceIS5_E4typeE
FN:70,71,_ZSt7forwardIRKN5Catch9StringRefEEOT_RNSt16remove_referenceIS4_E4typeE
FN:70,71,_ZSt7forwardIRKN5Catch9VerbosityEEOT_RNSt16remove_referenceIS4_E4typeE
FN:70,71,_ZSt7forwardIRKNSt15__exception_ptr13exception_ptrEEOT_RNSt16remove_referenceIS4_E4typeE
FN:70,71,_ZSt7forwardIRKNSt7__cxx1112basic_stringIcSt11char_traitsIcESaIcEEEEOT_RNSt16remove_referenceIS8_E4typeE
FN:70,71,_ZSt7forwardIRKNSt7__cxx1112regex_traitsIcE10_RegexMaskEEOT_RNSt16remove_referenceIS6_E4typeE
FN:70,71,_ZSt7forwardIRKNSt7__cxx119sub_matchIN9__gnu_cxx17__normal_iteratorIPKcNS0_12basic_stringIcSt11char_traitsIcESaIcEEEEEEEEOT_RNSt16remove_referenceISF_E4typeE
FN:70,71,_ZSt7forwardIRKNSt8__detail11_AnyMatcherINSt7__cxx1112regex_traitsIcEELb0ELb0ELb0EEEEOT_RNSt16remove_referenceIS8_E4typeE
FN:70,71,_ZSt7forwardIRKNSt8__detail11_AnyMatcherINSt7__cxx1112regex_traitsIcEELb0ELb0ELb1EEEEOT_RNSt16remove_referenceIS8_E4typeE
FN:70,71,_ZSt7forwardIRKNSt8__detail11_AnyMatcherINSt7__cxx1112regex_traitsIcEELb0ELb1ELb0EEEEOT_RNSt16remove_referenceIS8_E4typeE
FN:70,71,_ZSt7forwardIRKNSt8__detail11_AnyMatcherINSt7__cxx1112regex_traitsIcEELb0ELb1ELb1EEEEOT_RNSt16remove_referenceIS8_E4typeE
FN:70,71,_ZSt7forwardIRKNSt8__detail11_AnyMatcherINSt7__cxx1112regex_traitsIcEELb1ELb0ELb0EEEEOT_RNSt16remove_referenceIS8_E4typeE
FN:70,71,_ZSt7forwardIRKNSt8__detail11_AnyMatcherINSt7__cxx1112regex_traitsIcEELb1ELb0ELb1EEEEOT_RNSt16remove_referenceIS8_E4typeE
FN:70,71,_ZSt7forwardIRKNSt8__detail11_AnyMatcherINSt7__cxx1112regex_traitsIcEELb1ELb1ELb0EEEEOT_RNSt16remove_referenceIS8_E4typeE
FN:70,71,_ZSt7forwardIRKNSt8__detail11_AnyMatcherINSt7__cxx1112regex_traitsIcEELb1ELb1ELb1EEEEOT_RNSt16remove_referenceIS8_E4typeE
FN:70,71,_ZSt7forwardIRKNSt8__detail12_CharMatcherINSt7__cxx1112regex_traitsIcEELb0ELb0EEEEOT_RNSt16remove_referenceIS8_E4typeE
FN:70,71,_ZSt7forwardIRKNSt8__detail12_CharMatcherINSt7__cxx1112regex_traitsIcEELb0ELb1EEEEOT_RNSt16remove_referenceIS8_E4typeE
FN:70,71,_ZSt7forwardIRKNSt8__detail12_CharMatcherINSt7__cxx1112regex_traitsIcEELb1ELb0EEEEOT_RNSt16remove_referenceIS8_E4typeE
FN:70,71,_ZSt7forwardIRKNSt8__detail12_CharMatcherINSt7__cxx1112regex_traitsIcEELb1ELb1EEEEOT_RNSt16remove_referenceIS8_E4typeE
FN:70,71,_ZSt7forwardIRKNSt8__detail15_BracketMatcherINSt7__cxx1112regex_traitsIcEELb0ELb0EEEEOT_RNSt16remove_referenceIS8_E4typeE
FN:70,71,_ZSt7forwardIRKNSt8__detail15_BracketMatcherINSt7__cxx1112regex_traitsIcEELb0ELb1EEEEOT_RNSt16remove_referenceIS8_E4typeE
FN:70,71,_ZSt7forwardIRKNSt8__detail15_BracketMatcherINSt7__cxx1112regex_traitsIcEELb1ELb0EEEEOT_RNSt16remove_referenceIS8_E4typeE
FN:70,71,_ZSt7forwardIRKNSt8__detail15_BracketMatcherINSt7__cxx1112regex_traitsIcEELb1ELb1EEEEOT_RNSt16remove_referenceIS8_E4typeE
FN:70,71,_ZSt7forwardIRKNSt8__detail9_StateSeqINSt7__cxx1112regex_traitsIcEEEEEOT_RNSt16remove_referenceIS8_E4typeE
FN:70,71,_ZSt7forwardIRKPKN5Catch8TestCaseEEOT_RNSt16remove_referenceIS6_E4typeE
FN:70,71,_ZSt7forwardIRKPKcEOT_RNSt16remove_referenceIS4_E4typeE
FN:70,71,_ZSt7forwardIRKPN5Catch10ISingletonEEOT_RNSt16remove_referenceIS5_E4typeE
FN:70,71,_ZSt7forwardIRKSt10shared_ptrIN5Catch16IReporterFactoryEEEOT_RNSt16remove_referenceIS6_E4typeE
FN:70,71,_ZSt7forwardIRKSt10shared_ptrIN5Catch16TestCaseTracking8ITrackerEEEOT_RNSt16remove_referenceIS7_E4typeE
FN:70,71,_ZSt7forwardIRKSt10shared_ptrIN5Catch22CumulativeReporterBaseINS1_13JunitReporterEE11SectionNodeEEEOT_RNSt16remove_referenceIS9_E4typeE
FN:70,71,_ZSt7forwardIRKSt10shared_ptrIN5Catch22CumulativeReporterBaseINS1_13JunitReporterEE4NodeINS1_12TestRunStatsENS5_INS1_14TestGroupStatsENS5_INS1_13TestCaseStatsENS4_11SectionNodeEEEEEEEEEOT_RNSt16remove_referenceISG_E4typeE
FN:70,71,_ZSt7forwardIRKSt10shared_ptrIN5Catch22CumulativeReporterBaseINS1_13JunitReporterEE4NodeINS1_13TestCaseStatsENS4_11SectionNodeEEEEEOT_RNSt16remove_referenceISC_E4typeE
FN:70,71,_ZSt7forwardIRKSt10shared_ptrIN5Catch22CumulativeReporterBaseINS1_13JunitReporterEE4NodeINS1_14TestGroupStatsENS5_INS1_13TestCaseStatsENS4_11SectionNodeEEEEEEEOT_RNSt16remove_referenceISE_E4typeE
FN:70,71,_ZSt7forwardIRKSt10shared_ptrIN5Catch8TestSpec7PatternEEEOT_RNSt16remove_referenceIS7_E4typeE
FN:70,71,_ZSt7forwardIRKSt21piecewise_construct_tEOT_RNSt16remove_referenceIS3_E4typeE
FN:70,71,_ZSt7forwardIRKSt4pairINSt7__cxx1112basic_stringIcSt11char_traitsIcESaIcEEES6_EEOT_RNSt16remove_referenceISA_E4typeE
FN:70,71,_ZSt7forwardIRKSt4pairIccEEOT_RNSt16remove_referenceIS4_E4typeE
FN:70,71,_ZSt7forwardIRKSt6localeEOT_RNSt16remove_referenceIS3_E4typeE
FN:70,71,_ZSt7forwardIRKSt6vectorINSt7__cxx119sub_matchIN9__gnu_cxx17__normal_iteratorIPKcNS1_12basic_stringIcSt11char_traitsIcESaIcEEEEEEESaISD_EEEOT_RNSt16remove_referenceISI_E4typeE
FN:70,71,_ZSt7forwardIRKZN5Catch21makeCommandLineParserERNS0_10ConfigDataEEUlRKNSt7__cxx1112basic_stringIcSt11char_traitsIcESaIcEEEE0_EOT_RNSt16remove_referenceISE_E4typeE
FN:70,71,_ZSt7forwardIRKZN5Catch21makeCommandLineParserERNS0_10ConfigDataEEUlRKNSt7__cxx1112basic_stringIcSt11char_traitsIcESaIcEEEE1_EOT_RNSt16remove_referenceISE_E4typeE
FN:70,71,_ZSt7forwardIRKZN5Catch21makeCommandLineParserERNS0_10ConfigDataEEUlRKNSt7__cxx1112basic_stringIcSt11char_traitsIcESaIcEEEE2_EOT_RNSt16remove_referenceISE_E4typeE
FN:70,71,_ZSt7forwardIRKZN5Catch21makeCommandLineParserERNS0_10ConfigDataEEUlRKNSt7__cxx1112basic_stringIcSt11char_traitsIcESaIcEEEE3_EOT_RNSt16remove_referenceISE_E4typeE
FN:70,71,_ZSt7forwardIRKZN5Catch21makeCommandLineParserERNS0_10ConfigDataEEUlRKNSt7__cxx1112basic_stringIcSt11char_traitsIcESaIcEEEE4_EOT_RNSt16remove_referenceISE_E4typeE
FN:70,71,_ZSt7forwardIRKZN5Catch21makeCommandLineParserERNS0_10ConfigDataEEUlRKNSt7__cxx1112basic_stringIcSt11char_traitsIcESaIcEEEE5_EOT_RNSt16remove_referenceISE_E4typeE
FN:70,71,_ZSt7forwardIRKZN5Catch21makeCommandLineParserERNS0_10ConfigDataEEUlRKNSt7__cxx1112basic_stringIcSt11char_traitsIcESaIcEEEE6_EOT_RNSt16remove_referenceISE_E4typeE
FN:70,71,_ZSt7forwardIRKZN5Catch21makeCommandLineParserERNS0_10ConfigDataEEUlRKNSt7__cxx1112basic_stringIcSt11char_traitsIcESaIcEEEE_EOT_RNSt16remove_referenceISE_E4typeE
FN:70,71,_ZSt7forwardIRKZN5Catch21makeCommandLineParserERNS0_10ConfigDataEEUlbE0_EOT_RNSt16remove_referenceIS6_E4typeE
FN:70,71,_ZSt7forwardIRKZN5Catch21makeCommandLineParserERNS0_10ConfigDataEEUlbE_EOT_RNSt16remove_referenceIS6_E4typeE
FN:70,71,_ZSt7forwardIRKZN5Catch21makeCommandLineParserERNS0_10ConfigDataEEUliE_EOT_RNSt16remove_referenceIS6_E4typeE
FN:70,71,_ZSt7forwardIRKZN5Catch5clara6detail4HelpC4ERbEUlbE_EOT_RNSt16remove_referenceIS8_E4typeE
FN:70,71,_ZSt7forwardIRKcEOT_RNSt16remove_referenceIS2_E4typeE
FN:70,71,_ZSt7forwardIRKlEOT_RNSt16remove_referenceIS2_E4typeE
FN:70,71,_ZSt7forwardIRKmEOT_RNSt16remove_referenceIS2_E4typeE
FN:70,71,_ZSt7forwardIRN5Catch10ConfigDataEEOT_RNSt16remove_referenceIS3_E4typeE
FN:70,71,_ZSt7forwardIRN5Catch12SectionStatsEEOT_RNSt16remove_referenceIS3_E4typeE
FN:70,71,_ZSt7forwardIRN5Catch16TestCaseTracking14TrackerContextEEOT_RNSt16remove_referenceIS4_E4typeE
FN:70,71,_ZSt7forwardIRN5Catch5clara6detail11HelpColumnsEEOT_RNSt16remove_referenceIS5_E4typeE
FN:70,71,_ZSt7forwardIRN5Catch5clara6detail3ArgEEOT_RNSt16remove_referenceIS5_E4typeE
FN:70,71,_ZSt7forwardIRN5Catch5clara6detail3OptEEOT_RNSt16remove_referenceIS5_E4typeE
FN:70,71,_ZSt7forwardIRN5Catch9ResultWas6OfTypeEEOT_RNSt16remove_referenceIS4_E4typeE
FN:70,71,_ZSt7forwardIRN5Catch9StringRefEEOT_RNSt16remove_referenceIS3_E4typeE
FN:70,71,_ZSt7forwardIRNSt15regex_constants18syntax_option_typeEEOT_RNSt16remove_referenceIS3_E4typeE
FN:70,71,_ZSt7forwardIRNSt7__cxx1112basic_stringIcSt11char_traitsIcESaIcEEEEOT_RNSt16remove_referenceIS7_E4typeE
FN:70,71,_ZSt7forwardIRNSt7__cxx119sub_matchIN9__gnu_cxx17__normal_iteratorIPKcNS0_12basic_stringIcSt11char_traitsIcESaIcEEEEEEEEOT_RNSt16remove_referenceISE_E4typeE
FN:70,71,_ZSt7forwardIRNSt8__detail11_AnyMatcherINSt7__cxx1112regex_traitsIcEELb0ELb0ELb0EEEEOT_RNSt16remove_referenceIS7_E4typeE
FN:70,71,_ZSt7forwardIRNSt8__detail11_AnyMatcherINSt7__cxx1112regex_traitsIcEELb0ELb0ELb1EEEEOT_RNSt16remove_referenceIS7_E4typeE
FN:70,71,_ZSt7forwardIRNSt8__detail11_AnyMatcherINSt7__cxx1112regex_traitsIcEELb0ELb1ELb0EEEEOT_RNSt16remove_referenceIS7_E4typeE
FN:70,71,_ZSt7forwardIRNSt8__detail11_AnyMatcherINSt7__cxx1112regex_traitsIcEELb0ELb1ELb1EEEEOT_RNSt16remove_referenceIS7_E4typeE
FN:70,71,_ZSt7forwardIRNSt8__detail11_AnyMatcherINSt7__cxx1112regex_traitsIcEELb1ELb0ELb0EEEEOT_RNSt16remove_referenceIS7_E4typeE
FN:70,71,_ZSt7forwardIRNSt8__detail11_AnyMatcherINSt7__cxx1112regex_traitsIcEELb1ELb0ELb1EEEEOT_RNSt16remove_referenceIS7_E4typeE
FN:70,71,_ZSt7forwardIRNSt8__detail11_AnyMatcherINSt7__cxx1112regex_traitsIcEELb1ELb1ELb0EEEEOT_RNSt16remove_referenceIS7_E4typeE
FN:70,71,_ZSt7forwardIRNSt8__detail11_AnyMatcherINSt7__cxx1112regex_traitsIcEELb1ELb1ELb1EEEEOT_RNSt16remove_referenceIS7_E4typeE
FN:70,71,_ZSt7forwardIRNSt8__detail12_CharMatcherINSt7__cxx1112regex_traitsIcEELb0ELb0EEEEOT_RNSt16remove_referenceIS7_E4typeE
FN:70,71,_ZSt7forwardIRNSt8__detail12_CharMatcherINSt7__cxx1112regex_traitsIcEELb0ELb1EEEEOT_RNSt16remove_referenceIS7_E4typeE
FN:70,71,_ZSt7forwardIRNSt8__detail12_CharMatcherINSt7__cxx1112regex_traitsIcEELb1ELb0EEEEOT_RNSt16remove_referenceIS7_E4typeE
FN:70,71,_ZSt7forwardIRNSt8__detail12_CharMatcherINSt7__cxx1112regex_traitsIcEELb1ELb1EEEEOT_RNSt16remove_referenceIS7_E4typeE
FN:70,71,_ZSt7forwardIRNSt8__detail15_BracketMatcherINSt7__cxx1112regex_traitsIcEELb0ELb0EEEEOT_RNSt16remove_referenceIS7_E4typeE
FN:70,71,_ZSt7forwardIRNSt8__detail15_BracketMatcherINSt7__cxx1112regex_traitsIcEELb0ELb1EEEEOT_RNSt16remove_referenceIS7_E4typeE
FN:70,71,_ZSt7forwardIRNSt8__detail15_BracketMatcherINSt7__cxx1112regex_traitsIcEELb1ELb0EEEEOT_RNSt16remove_referenceIS7_E4typeE
FN:70,71,_ZSt7forwardIRNSt8__detail15_BracketMatcherINSt7__cxx1112regex_traitsIcEELb1ELb1EEEEOT_RNSt16remove_referenceIS7_E4typeE
FN:70,71,_ZSt7forwardIRPN5Catch18IStreamingReporterEEOT_RNSt16remove_referenceIS4_E4typeE
FN:70,71,_ZSt7forwardIRPSt13_Rb_tree_nodeIN5Catch8TestCaseEEEOT_RNSt16remove_referenceIS6_E4typeE
FN:70,71,_ZSt7forwardIRPSt13_Rb_tree_nodeIN5Catch9VerbosityEEEOT_RNSt16remove_referenceIS6_E4typeE
FN:70,71,_ZSt7forwardIRPSt13_Rb_tree_nodeINSt7__cxx1112basic_stringIcSt11char_traitsIcESaIcEEEEEOT_RNSt16remove_referenceISA_E4typeE
FN:70,71,_ZSt7forwardIRPSt13_Rb_tree_nodeIPKN5Catch8TestCaseEEEOT_RNSt16remove_referenceIS8_E4typeE
FN:70,71,_ZSt7forwardIRPSt13_Rb_tree_nodeISt4pairIKNSt7__cxx1112basic_stringIcSt11char_traitsIcESaIcEEEN5Catch7TagInfoEEEEOT_RNSt16remove_referenceISF_E4typeE
FN:70,71,_ZSt7forwardIRPSt13_Rb_tree_nodeISt4pairIKNSt7__cxx1112basic_stringIcSt11char_traitsIcESaIcEEEN5Catch8TagAliasEEEEOT_RNSt16remove_referenceISF_E4typeE
FN:70,71,_ZSt7forwardIRPSt13_Rb_tree_nodeISt4pairIKNSt7__cxx1112basic_stringIcSt11char_traitsIcESaIcEEESt10shared_ptrIN5Catch16IReporterFactoryEEEEEOT_RNSt16remove_referenceISH_E4typeE
FN:70,71,_ZSt7forwardIRPSt13_Rb_tree_nodeISt4pairIKllEEEOT_RNSt16remove_referenceIS7_E4typeE
FN:70,71,_ZSt7forwardIRPSt18_Rb_tree_node_baseEOT_RNSt16remove_referenceIS3_E4typeE
FN:70,71,_ZSt7forwardIRSt10shared_ptrIN5Catch8TestSpec7PatternEEEOT_RNSt16remove_referenceIS6_E4typeE
FN:70,71,_ZSt7forwardIRSt17_Rb_tree_iteratorIN5Catch8TestCaseEEEOT_RNSt16remove_referenceIS5_E4typeE
FN:70,71,_ZSt7forwardIRSt17_Rb_tree_iteratorINSt7__cxx1112basic_stringIcSt11char_traitsIcESaIcEEEEEOT_RNSt16remove_referenceIS9_E4typeE
FN:70,71,_ZSt7forwardIRSt6vectorINSt7__cxx1112basic_stringIcSt11char_traitsIcESaIcEEESaIS6_EEEOT_RNSt16remove_referenceISA_E4typeE
FN:70,71,_ZSt7forwardIRbEOT_RNSt16remove_referenceIS1_E4typeE
FN:70,71,_ZSt7forwardIRdEOT_RNSt16remove_referenceIS1_E4typeE
FN:70,71,_ZSt7forwardIRiEOT_RNSt16remove_referenceIS1_E4typeE
FN:70,71,_ZSt7forwardIRjEOT_RNSt16remove_referenceIS1_E4typeE
FN:70,71,_ZSt7forwardIRlEOT_RNSt16remove_referenceIS1_E4typeE
FN:70,71,_ZSt7forwardISt10shared_ptrIN5Catch16IReporterFactoryEEEOT_RNSt16remove_referenceIS4_E4typeE
FN:70,71,_ZSt7forwardISt10shared_ptrIN5Catch16TestCaseTracking8ITrackerEEEOT_RNSt16remove_referenceIS5_E4typeE
FN:70,71,_ZSt7forwardISt10shared_ptrIN5Catch22CumulativeReporterBaseINS1_13JunitReporterEE11SectionNodeEEEOT_RNSt16remove_referenceIS7_E4typeE
FN:70,71,_ZSt7forwardISt10shared_ptrIN5Catch22CumulativeReporterBaseINS1_13JunitReporterEE4NodeINS1_12TestRunStatsENS5_INS1_14TestGroupStatsENS5_INS1_13TestCaseStatsENS4_11SectionNodeEEEEEEEEEOT_RNSt16remove_referenceISE_E4typeE
FN:70,71,_ZSt7forwardISt10shared_ptrIN5Catch22CumulativeReporterBaseINS1_13JunitReporterEE4NodeINS1_13TestCaseStatsENS4_11SectionNodeEEEEEOT_RNSt16remove_referenceISA_E4typeE
FN:70,71,_ZSt7forwardISt10shared_ptrIN5Catch22CumulativeReporterBaseINS1_13JunitReporterEE4NodeINS1_14TestGroupStatsENS5_INS1_13TestCaseStatsENS4_11SectionNodeEEEEEEEOT_RNSt16remove_referenceISC_E4typeE
FN:70,71,_ZSt7forwardISt10shared_ptrIN5Catch8TestSpec7PatternEEEOT_RNSt16remove_referenceIS5_E4typeE
FN:70,71,_ZSt7forwardISt10unique_ptrIKN5Catch20IExceptionTranslatorESt14default_deleteIS3_EEEOT_RNSt16remove_referenceIS7_E4typeE
FN:70,71,_ZSt7forwardISt10unique_ptrIN5Catch18IStreamingReporterESt14default_deleteIS2_EEEOT_RNSt16remove_referenceIS6_E4typeE
FN:70,71,_ZSt7forwardISt10unique_ptrIN5Catch6Detail8EnumInfoESt14default_deleteIS3_EEEOT_RNSt16remove_referenceIS7_E4typeE
FN:70,71,_ZSt7forwardISt10unique_ptrINSt7__cxx1119basic_ostringstreamIcSt11char_traitsIcESaIcEEESt14default_deleteIS6_EEEOT_RNSt16remove_referenceISA_E4typeE
FN:70,71,_ZSt7forwardISt14default_deleteIN5Catch10Generators20GeneratorUntypedBaseEEEOT_RNSt16remove_referenceIS5_E4typeE
FN:70,71,_ZSt7forwardISt14default_deleteIN5Catch11XmlReporterEEEOT_RNSt16remove_referenceIS4_E4typeE
FN:70,71,_ZSt7forwardISt14default_deleteIN5Catch13JunitReporterEEEOT_RNSt16remove_referenceIS4_E4typeE
FN:70,71,_ZSt7forwardISt14default_deleteIN5Catch15CompactReporterEEEOT_RNSt16remove_referenceIS4_E4typeE
FN:70,71,_ZSt7forwardISt14default_deleteIN5Catch15ConsoleReporterEEEOT_RNSt16remove_referenceIS4_E4typeE
FN:70,71,_ZSt7forwardISt14default_deleteIN5Catch18IStreamingReporterEEEOT_RNSt16remove_referenceIS4_E4typeE
FN:70,71,_ZSt7forwardISt17_Rb_tree_iteratorIN5Catch8TestCaseEEEOT_RNSt16remove_referenceIS4_E4typeE
FN:70,71,_ZSt7forwardISt17_Rb_tree_iteratorINSt7__cxx1112basic_stringIcSt11char_traitsIcESaIcEEEEEOT_RNSt16remove_referenceIS8_E4typeE
FN:70,71,_ZSt7forwardISt17_Rb_tree_iteratorIPKN5Catch8TestCaseEEEOT_RNSt16remove_referenceIS6_E4typeE
FN:70,71,_ZSt7forwardISt17_Rb_tree_iteratorISt4pairIKNSt7__cxx1112basic_stringIcSt11char_traitsIcESaIcEEEN5Catch7TagInfoEEEEOT_RNSt16remove_referenceISD_E4typeE
FN:70,71,_ZSt7forwardISt17_Rb_tree_iteratorISt4pairIKNSt7__cxx1112basic_stringIcSt11char_traitsIcESaIcEEEN5Catch8TagAliasEEEEOT_RNSt16remove_referenceISD_E4typeE
FN:70,71,_ZSt7forwardISt17_Rb_tree_iteratorISt4pairIKNSt7__cxx1112basic_stringIcSt11char_traitsIcESaIcEEESt10shared_ptrIN5Catch16IReporterFactoryEEEEEOT_RNSt16remove_referenceISF_E4typeE
FN:70,71,_ZSt7forwardISt4pairINSt7__cxx1112basic_stringIcSt11char_traitsIcESaIcEEEN5Catch7TagInfoEEEOT_RNSt16remove_referenceISA_E4typeE
FN:70,71,_ZSt7forwardISt4pairINSt7__cxx1112basic_stringIcSt11char_traitsIcESaIcEEEN5Catch8TagAliasEEEOT_RNSt16remove_referenceISA_E4typeE
FN:70,71,_ZSt7forwardISt4pairINSt7__cxx1112basic_stringIcSt11char_traitsIcESaIcEEES6_EEOT_RNSt16remove_referenceIS8_E4typeE
FN:70,71,_ZSt7forwardISt4pairIccEEOT_RNSt16remove_referenceIS2_E4typeE
FN:70,71,_ZSt7forwardISt4pairIiN5Catch9StringRefEEEOT_RNSt16remove_referenceIS4_E4typeE
FN:70,71,_ZSt7forwardISt4pairIlSt6vectorINSt7__cxx119sub_matchIN9__gnu_cxx17__normal_iteratorIPKcNS2_12basic_stringIcSt11char_traitsIcESaIcEEEEEEESaISE_EEEEOT_RNSt16remove_referenceISI_E4typeE
FN:70,71,_ZSt7forwardISt4pairImPKN5Catch8TestCaseEEEOT_RNSt16remove_referenceIS6_E4typeE
FN:70,71,_ZSt7forwardISt5tupleIJEEEOT_RNSt16remove_referenceIS2_E4typeE
FN:70,71,_ZSt7forwardISt5tupleIJRKlEEEOT_RNSt16remove_referenceIS4_E4typeE
FN:70,71,_ZSt7forwardIbEOT_RNSt16remove_referenceIS0_E4typeE
FN:70,71,_ZSt7forwardIcEOT_RNSt16remove_referenceIS0_E4typeE
FN:70,71,_ZSt7forwardIjEOT_RNSt16remove_referenceIS0_E4typeE
FN:70,71,_ZSt7forwardImEOT_RNSt16remove_referenceIS0_E4typeE
FN:97,98,_ZSt4moveIRN5Catch11MessageInfoEEONSt16remove_referenceIT_E4typeEOS4_
FN:97,98,_ZSt4moveIRN5Catch11SectionInfoEEONSt16remove_referenceIT_E4typeEOS4_
FN:97,98,_ZSt4moveIRN5Catch12TestCaseInfoEEONSt16remove_referenceIT_E4typeEOS4_
FN:97,98,_ZSt4moveIRN5Catch13SummaryColumnEEONSt16remove_referenceIT_E4typeEOS4_
FN:97,98,_ZSt4moveIRN5Catch14SectionEndInfoEEONSt16remove_referenceIT_E4typeEOS4_
FN:97,98,_ZSt4moveIRN5Catch22CumulativeReporterBaseINS0_13JunitReporterEE13BySectionInfoEEONSt16remove_referenceIT_E4typeEOS7_
FN:97,98,_ZSt4moveIRN5Catch5clara6detail11HelpColumnsEEONSt16remove_referenceIT_E4typeEOS6_
FN:97,98,_ZSt4moveIRN5Catch5clara6detail3ArgEEONSt16remove_referenceIT_E4typeEOS6_
FN:97,98,_ZSt4moveIRN5Catch5clara6detail3OptEEONSt16remove_referenceIT_E4typeEOS6_
FN:97,98,_ZSt4moveIRN5Catch5clara6detail5TokenEEONSt16remove_referenceIT_E4typeEOS6_
FN:97,98,_ZSt4moveIRN5Catch5clara8TextFlow6Column8iteratorEEONSt16remove_referenceIT_E4typeEOS7_
FN:97,98,_ZSt4moveIRN5Catch5clara8TextFlow6ColumnEEONSt16remove_referenceIT_E4typeEOS6_
FN:97,98,_ZSt4moveIRN5Catch8TestCaseEEONSt16remove_referenceIT_E4typeEOS4_
FN:97,98,_ZSt4moveIRN5Catch8TestSpec6FilterEEONSt16remove_referenceIT_E4typeEOS5_
FN:97,98,_ZSt4moveIRN5Catch9StringRefEEONSt16remove_referenceIT_E4typeEOS4_
FN:97,98,_ZSt4moveIRN9__gnu_cxx5__ops15_Iter_comp_iterIZN5Catch9sortTestsERKNS3_7IConfigERKSt6vectorINS3_8TestCaseESaIS8_EEEUlRKSt4pairImPKS8_ESI_E_EEEONSt16remove_referenceIT_E4typeEOSN_
FN:97,98,_ZSt4moveIRN9__gnu_cxx5__ops15_Iter_less_iterEEONSt16remove_referenceIT_E4typeEOS5_
FN:97,98,_ZSt4moveIRNSt12_Vector_baseIN5Catch12_GLOBAL__N_110ColumnInfoESaIS3_EE12_Vector_implEEONSt16remove_referenceIT_E4typeEOS9_
FN:97,98,_ZSt4moveIRNSt12_Vector_baseIN5Catch8TestCaseESaIS2_EE12_Vector_implEEONSt16remove_referenceIT_E4typeEOS8_
FN:97,98,_ZSt4moveIRNSt12_Vector_baseINSt7__cxx1112basic_stringIcSt11char_traitsIcESaIcEEESaIS6_EE12_Vector_implEEONSt16remove_referenceIT_E4typeEOSC_
FN:97,98,_ZSt4moveIRNSt12_Vector_baseINSt7__cxx1112regex_traitsIcE10_RegexMaskESaIS4_EE12_Vector_implEEONSt16remove_referenceIT_E4typeEOSA_
FN:97,98,_ZSt4moveIRNSt12_Vector_baseINSt7__cxx119sub_matchIN9__gnu_cxx17__normal_iteratorIPKcNS1_12basic_stringIcSt11char_traitsIcESaIcEEEEEEESaISD_EE12_Vector_implEEONSt16remove_referenceIT_E4typeEOSJ_
FN:97,98,_ZSt4moveIRNSt12_Vector_baseISt10shared_ptrIN5Catch8TestSpec7PatternEESaIS5_EE12_Vector_implEEONSt16remove_referenceIT_E4typeEOSB_
FN:97,98,_ZSt4moveIRNSt12_Vector_baseISt4pairINSt7__cxx1112basic_stringIcSt11char_traitsIcESaIcEEES7_ESaIS8_EE12_Vector_implEEONSt16remove_referenceIT_E4typeEOSE_
FN:97,98,_ZSt4moveIRNSt12_Vector_baseISt4pairIccESaIS2_EE12_Vector_implEEONSt16remove_referenceIT_E4typeEOS8_
FN:97,98,_ZSt4moveIRNSt12_Vector_baseISt4pairIlSt6vectorINSt7__cxx119sub_matchIN9__gnu_cxx17__normal_iteratorIPKcNS3_12basic_stringIcSt11char_traitsIcESaIcEEEEEEESaISF_EEESaISI_EE12_Vector_implEEONSt16remove_referenceIT_E4typeEOSO_
FN:97,98,_ZSt4moveIRNSt12_Vector_baseIcSaIcEE12_Vector_implEEONSt16remove_referenceIT_E4typeEOS6_
FN:97,98,_ZSt4moveIRNSt15__exception_ptr13exception_ptrEEONSt16remove_referenceIT_E4typeEOS4_
FN:97,98,_ZSt4moveIRNSt7__cxx1112basic_stringIcSt11char_traitsIcESaIcEEEEONSt16remove_referenceIT_E4typeEOS8_
FN:97,98,_ZSt4moveIRNSt7__cxx1112regex_traitsIcE10_RegexMaskEEONSt16remove_referenceIT_E4typeEOS6_
FN:97,98,_ZSt4moveIRNSt8__detail15_BracketMatcherINSt7__cxx1112regex_traitsIcEELb0ELb0EEEEONSt16remove_referenceIT_E4typeEOS8_
FN:97,98,_ZSt4moveIRNSt8__detail15_BracketMatcherINSt7__cxx1112regex_traitsIcEELb0ELb1EEEEONSt16remove_referenceIT_E4typeEOS8_
FN:97,98,_ZSt4moveIRNSt8__detail15_BracketMatcherINSt7__cxx1112regex_traitsIcEELb1ELb0EEEEONSt16remove_referenceIT_E4typeEOS8_
FN:97,98,_ZSt4moveIRNSt8__detail15_BracketMatcherINSt7__cxx1112regex_traitsIcEELb1ELb1EEEEONSt16remove_referenceIT_E4typeEOS8_
FN:97,98,_ZSt4moveIRNSt8__detail6_StateIcEEEONSt16remove_referenceIT_E4typeEOS5_
FN:97,98,_ZSt4moveIRNSt8__detail9_StateSeqINSt7__cxx1112regex_traitsIcEEEEEONSt16remove_referenceIT_E4typeEOS8_
FN:97,98,_ZSt4moveIRPFbRKSt9_Any_dataOcEEONSt16remove_referenceIT_E4typeEOS8_
FN:97,98,_ZSt4moveIRPFbRSt9_Any_dataRKS0_St18_Manager_operationEEONSt16remove_referenceIT_E4typeEOS9_
FN:97,98,_ZSt4moveIRPKN5Catch20IExceptionTranslatorEEONSt16remove_referenceIT_E4typeEOS6_
FN:97,98,_ZSt4moveIRPKN5Catch7IStreamEEONSt16remove_referenceIT_E4typeEOS6_
FN:97,98,_ZSt4moveIRPKN5Catch8TestCaseEEONSt16remove_referenceIT_E4typeEOS6_
FN:97,98,_ZSt4moveIRPKNSt8__detail4_NFAINSt7__cxx1112regex_traitsIcEEEEEONSt16remove_referenceIT_E4typeEOSA_
FN:97,98,_ZSt4moveIRPN5Catch10Generators16GeneratorTrackerEEONSt16remove_referenceIT_E4typeEOS6_
FN:97,98,_ZSt4moveIRPN5Catch10Generators20GeneratorUntypedBaseEEONSt16remove_referenceIT_E4typeEOS6_
FN:97,98,_ZSt4moveIRPN5Catch10ISingletonEEONSt16remove_referenceIT_E4typeEOS5_
FN:97,98,_ZSt4moveIRPN5Catch11MessageInfoEEONSt16remove_referenceIT_E4typeEOS5_
FN:97,98,_ZSt4moveIRPN5Catch11SectionInfoEEONSt16remove_referenceIT_E4typeEOS5_
FN:97,98,_ZSt4moveIRPN5Catch11XmlReporterEEONSt16remove_referenceIT_E4typeEOS5_
FN:97,98,_ZSt4moveIRPN5Catch12ITestInvokerEEONSt16remove_referenceIT_E4typeEOS5_
FN:97,98,_ZSt4moveIRPN5Catch12TablePrinterEEONSt16remove_referenceIT_E4typeEOS5_
FN:97,98,_ZSt4moveIRPN5Catch13JunitReporterEEONSt16remove_referenceIT_E4typeEOS5_
FN:97,98,_ZSt4moveIRPN5Catch13ScopedMessageEEONSt16remove_referenceIT_E4typeEOS5_
FN:97,98,_ZSt4moveIRPN5Catch13SummaryColumnEEONSt16remove_referenceIT_E4typeEOS5_
FN:97,98,_ZSt4moveIRPN5Catch14SectionEndInfoEEONSt16remove_referenceIT_E4typeEOS5_
FN:97,98,_ZSt4moveIRPN5Catch15CompactReporterEEONSt16remove_referenceIT_E4typeEOS5_
FN:97,98,_ZSt4moveIRPN5Catch15ConsoleReporterEEONSt16remove_referenceIT_E4typeEOS5_
FN:97,98,_ZSt4moveIRPN5Catch16TestCaseTracking14SectionTrackerEEONSt16remove_referenceIT_E4typeEOS6_
FN:97,98,_ZSt4moveIRPN5Catch16TestCaseTracking8ITrackerEEONSt16remove_referenceIT_E4typeEOS6_
FN:97,98,_ZSt4moveIRPN5Catch18IStreamingReporterEEONSt16remove_referenceIT_E4typeEOS5_
FN:97,98,_ZSt4moveIRPN5Catch22CumulativeReporterBaseINS0_13JunitReporterEE11SectionNodeEEONSt16remove_referenceIT_E4typeEOS8_
FN:97,98,_ZSt4moveIRPN5Catch5clara6detail11HelpColumnsEEONSt16remove_referenceIT_E4typeEOS7_
FN:97,98,_ZSt4moveIRPN5Catch5clara6detail17BoundValueRefBaseEEONSt16remove_referenceIT_E4typeEOS7_
FN:97,98,_ZSt4moveIRPN5Catch5clara6detail3ArgEEONSt16remove_referenceIT_E4typeEOS7_
FN:97,98,_ZSt4moveIRPN5Catch5clara6detail3OptEEONSt16remove_referenceIT_E4typeEOS7_
FN:97,98,_ZSt4moveIRPN5Catch5clara6detail5TokenEEONSt16remove_referenceIT_E4typeEOS7_
FN:97,98,_ZSt4moveIRPN5Catch5clara8TextFlow6Column8iteratorEEONSt16remove_referenceIT_E4typeEOS8_
FN:97,98,_ZSt4moveIRPN5Catch5clara8TextFlow6ColumnEEONSt16remove_referenceIT_E4typeEOS7_
FN:97,98,_ZSt4moveIRPN5Catch6ConfigEEONSt16remove_referenceIT_E4typeEOS5_
FN:97,98,_ZSt4moveIRPN5Catch6Detail12_GLOBAL__N_113StreamBufImplINS2_17OutputDebugWriterELm256EEEEONSt16remove_referenceIT_E4typeEOS9_
FN:97,98,_ZSt4moveIRPN5Catch6Detail8EnumInfoEEONSt16remove_referenceIT_E4typeEOS6_
FN:97,98,_ZSt4moveIRPN5Catch8TestCaseEEONSt16remove_referenceIT_E4typeEOS5_
FN:97,98,_ZSt4moveIRPN5Catch8TestSpec6FilterEEONSt16remove_referenceIT_E4typeEOS6_
FN:97,98,_ZSt4moveIRPN5Catch8TestSpec7PatternEEONSt16remove_referenceIT_E4typeEOS6_
FN:97,98,_ZSt4moveIRPN5Catch9StringRefEEONSt16remove_referenceIT_E4typeEOS5_
FN:97,98,_ZSt4moveIRPNSt15__exception_ptr13exception_ptrEEONSt16remove_referenceIT_E4typeEOS5_
FN:97,98,_ZSt4moveIRPNSt7__cxx1112basic_stringIcSt11char_traitsIcESaIcEEEEONSt16remove_referenceIT_E4typeEOS9_
FN:97,98,_ZSt4moveIRPNSt7__cxx1112regex_traitsIcE10_RegexMaskEEONSt16remove_referenceIT_E4typeEOS7_
FN:97,98,_ZSt4moveIRPNSt7__cxx1119basic_ostringstreamIcSt11char_traitsIcESaIcEEEEONSt16remove_referenceIT_E4typeEOS9_
FN:97,98,_ZSt4moveIRPNSt8__detail6_StateIcEEEONSt16remove_referenceIT_E4typeEOS6_
FN:97,98,_ZSt4moveIRPPKN5Catch8TestCaseEEONSt16remove_referenceIT_E4typeEOS7_
FN:97,98,_ZSt4moveIRPPN5Catch10ISingletonEEONSt16remove_referenceIT_E4typeEOS6_
FN:97,98,_ZSt4moveIRPPN5Catch16TestCaseTracking8ITrackerEEONSt16remove_referenceIT_E4typeEOS7_
FN:97,98,_ZSt4moveIRPSt10shared_ptrIN5Catch16IReporterFactoryEEEONSt16remove_referenceIT_E4typeEOS7_
FN:97,98,_ZSt4moveIRPSt10shared_ptrIN5Catch16TestCaseTracking8ITrackerEEEONSt16remove_referenceIT_E4typeEOS8_
FN:97,98,_ZSt4moveIRPSt10shared_ptrIN5Catch22CumulativeReporterBaseINS1_13JunitReporterEE11SectionNodeEEEONSt16remove_referenceIT_E4typeEOSA_
