TN:
SF:/home/nikola/Desktop/2024_Analysis_Mini-Student-Management-System/Mini-Student-Management-System/src/attendancelist.cpp
FN:102,140,_ZN3SMS29export_attendance_list_to_csvEv
FN:13,16,_Z38__attendancelist_filter_studentID_funcN3Csv9multitypeENS_4listIS0_EENS_5tableE
FN:142,194,_ZN3SMS21edit_attendance_tableERKN3Csv5tableE
FN:17,21,_Z48__attendancelist_filter_studentID_view_mode_funcN3Csv9multitypeENS_4listIS0_EENS_5tableE
FN:196,220,_ZN3SMS25edit_attendance_by_courseEv
FN:222,241,_ZN3SMS26edit_attendance_by_studentEv
FN:23,32,_Z55__attendancelist_filter_studentID_checkin_courseID_funcN3Csv9multitypeENS_4listIS0_EENS_5tableE
FN:243,261,_ZN3SMS15edit_attendanceEv
FN:263,323,_ZN3SMS16student_check_inERKN3Csv9multitypeE
FN:325,331,_ZN3SMS13view_check_inERKN3Csv9multitypeE
FN:35,69,_Z26__courses_filter_date_funcN3Csv9multitypeENS_4listIS0_EENS_5tableE
FN:7,10,_Z37__attendancelist_filter_courseID_funcN3Csv9multitypeENS_4listIS0_EENS_5tableE
FN:73,100,_ZN3SMS20view_attendance_listEv
FNDA:1,_ZN3SMS29export_attendance_list_to_csvEv
FNDA:80,_Z38__attendancelist_filter_studentID_funcN3Csv9multitypeENS_4listIS0_EENS_5tableE
FNDA:3,_ZN3SMS21edit_attendance_tableERKN3Csv5tableE
FNDA:15,_Z48__attendancelist_filter_studentID_view_mode_funcN3Csv9multitypeENS_4listIS0_EENS_5tableE
FNDA:1,_ZN3SMS25edit_attendance_by_courseEv
FNDA:2,_ZN3SMS26edit_attendance_by_studentEv
FNDA:15,_Z55__attendancelist_filter_studentID_checkin_courseID_funcN3Csv9multitypeENS_4listIS0_EENS_5tableE
FNDA:0,_ZN3SMS15edit_attendanceEv
FNDA:1,_ZN3SMS16student_check_inERKN3Csv9multitypeE
FNDA:1,_ZN3SMS13view_check_inERKN3Csv9multitypeE
FNDA:55,_Z26__courses_filter_date_funcN3Csv9multitypeENS_4listIS0_EENS_5tableE
FNDA:60,_Z37__attendancelist_filter_courseID_funcN3Csv9multitypeENS_4listIS0_EENS_5tableE
FNDA:1,_ZN3SMS20view_attendance_listEv
FNF:13
FNH:12
DA:7,60
DA:9,60
DA:13,80
DA:15,80
DA:17,15
DA:19,24
DA:20,24
DA:23,15
DA:25,15
DA:26,15
DA:27,15
DA:28,0
DA:29,0
DA:30,0
DA:31,0
DA:35,55
DA:37,105
DA:38,105
DA:39,30
DA:41,25
DA:42,25
DA:43,125
DA:44,100
DA:45,20
DA:46,25
DA:47,5
DA:49,20
DA:50,20
DA:51,20
DA:52,20
DA:54,20
DA:55,15
DA:57,5
DA:58,5
DA:59,5
DA:60,5
DA:61,5
DA:63,5
DA:64,5
DA:65,20
DA:66,20
DA:67,5
DA:68,0
DA:73,1
DA:75,1
DA:76,1
DA:77,1
DA:79,1
DA:80,1
DA:81,6
DA:82,5
DA:83,1
DA:88,2
DA:89,2
DA:91,1
DA:92,1
DA:93,1
DA:94,1
DA:96,1
DA:99,2
DA:100,1
DA:102,1
DA:104,1
DA:105,1
DA:106,1
DA:108,1
DA:109,1
DA:110,6
DA:111,5
DA:112,1
DA:117,2
DA:118,2
DA:120,1
DA:121,1
DA:123,1
DA:124,1
DA:125,1
DA:126,1
DA:127,1
DA:128,1
DA:129,1
DA:130,1
DA:131,1
DA:132,0
DA:133,1
DA:134,1
DA:135,1
DA:136,1
DA:139,2
DA:142,3
DA:144,3
DA:145,3
DA:146,3
DA:147,3
DA:148,3
DA:150,3
DA:151,3
DA:153,0
DA:155,0
DA:156,0
DA:160,3
DA:161,3
DA:162,3
DA:163,3
DA:164,3
DA:169,3
DA:170,3
DA:172,2
DA:173,2
DA:174,2
DA:175,0
DA:176,2
DA:177,2
DA:179,2
DA:182,1
DA:184,1
DA:185,1
DA:186,0
DA:187,1
DA:188,1
DA:189,1
DA:191,3
DA:196,1
DA:198,1
DA:199,1
DA:200,1
DA:202,1
DA:203,1
DA:204,6
DA:205,5
DA:206,1
DA:211,2
DA:212,2
DA:214,1
DA:215,1
DA:216,1
DA:219,2
DA:220,1
DA:222,2
DA:224,2
DA:226,2
DA:227,2
DA:228,2
DA:230,2
DA:231,2
DA:233,0
DA:235,0
DA:236,0
DA:239,2
DA:240,2
DA:243,0
DA:245,0
DA:246,0
DA:247,0
DA:248,0
DA:249,0
DA:252,0
DA:253,0
DA:254,0
DA:256,0
DA:257,0
DA:259,0
DA:260,0
DA:261,0
DA:263,1
DA:265,1
DA:266,1
DA:267,1
DA:268,5
DA:269,4
DA:271,1
DA:272,1
DA:273,1
DA:275,1
DA:276,1
DA:277,2
DA:279,1
DA:280,1
DA:281,1
DA:282,1
DA:283,1
DA:284,1
DA:285,1
DA:286,1
DA:288,1
DA:293,2
DA:294,2
DA:296,1
DA:297,1
DA:298,1
DA:300,0
DA:301,0
DA:305,1
DA:306,1
DA:307,1
DA:308,1
DA:309,1
DA:310,1
DA:311,1
DA:312,1
DA:313,1
DA:314,1
DA:315,0
DA:316,1
DA:317,1
DA:318,1
DA:322,2
DA:323,1
DA:325,1
DA:327,1
DA:328,1
DA:329,1
DA:330,1
DA:331,1
LF:214
LH:183
end_of_record
TN:
SF:/home/nikola/Desktop/2024_Analysis_Mini-Student-Management-System/Mini-Student-Management-System/src/class.cpp
FN:16,23,_ZN3SMS11checkExist2EN3Csv9multitypeE
FN:180,191,_ZN3SMS11updateusersEv
FN:194,204,_ZN3SMS11filterClassEN3Csv9multitypeENS0_4listIS1_EENS0_5tableE
FN:207,209,_ZN3SMS13filterStudentEN3Csv9multitypeENS0_4listIS1_EENS0_5tableE
FN:211,214,_ZN3SMS9viewClassEv
FN:216,224,_ZN3SMS18viewStudentInClassEv
FN:225,261,_ZN3SMS8newClassEv
FN:25,54,_ZN3SMS13removeStudentEv
FN:56,90,_ZN3SMS10addStudentEv
FN:7,14,_ZN3SMS10checkExistEN3Csv9multitypeE
FN:92,178,_ZN3SMS11editStudentEv
FNDA:4,_ZN3SMS11checkExist2EN3Csv9multitypeE
FNDA:0,_ZN3SMS11updateusersEv
FNDA:50,_ZN3SMS11filterClassEN3Csv9multitypeENS0_4listIS1_EENS0_5tableE
FNDA:40,_ZN3SMS13filterStudentEN3Csv9multitypeENS0_4listIS1_EENS0_5tableE
FNDA:1,_ZN3SMS9viewClassEv
FNDA:1,_ZN3SMS18viewStudentInClassEv
FNDA:1,_ZN3SMS8newClassEv
FNDA:3,_ZN3SMS13removeStudentEv
FNDA:1,_ZN3SMS10addStudentEv
FNDA:5,_ZN3SMS10checkExistEN3Csv9multitypeE
FNDA:1,_ZN3SMS11editStudentEv
FNF:11
FNH:10
DA:7,5
DA:8,40
DA:9,39
DA:10,4
DA:13,1
DA:16,4
DA:17,84
DA:18,80
DA:19,0
DA:22,4
DA:25,3
DA:26,3
DA:27,3
DA:28,3
DA:29,3
DA:30,3
DA:31,0
DA:32,0
DA:33,0
DA:35,3
DA:36,3
DA:37,0
DA:39,3
DA:40,3
DA:41,3
DA:42,0
DA:44,3
DA:45,3
DA:46,0
DA:48,3
DA:49,0
DA:51,3
DA:52,3
DA:53,3
DA:56,1
DA:57,1
DA:58,1
DA:59,1
DA:60,1
DA:61,1
DA:62,1
DA:63,1
DA:64,1
DA:65,1
DA:66,0
DA:67,0
DA:68,0
DA:70,1
DA:71,1
DA:72,1
DA:73,1
DA:74,1
DA:75,1
DA:76,1
DA:77,0
DA:79,1
DA:80,1
DA:81,1
DA:82,1
DA:83,1
DA:84,1
DA:85,0
DA:87,1
DA:88,1
DA:89,1
DA:92,1
DA:93,1
DA:94,1
DA:95,1
DA:96,1
DA:97,1
DA:98,1
DA:99,1
DA:100,1
DA:101,1
DA:102,1
DA:103,1
DA:104,1
DA:105,1
DA:106,0
DA:107,0
DA:108,0
DA:113,6
DA:114,6
DA:115,1
DA:116,1
DA:117,1
DA:118,1
DA:119,1
DA:120,1
DA:121,1
DA:122,1
DA:123,0
DA:125,1
DA:127,1
DA:128,1
DA:129,1
DA:130,1
DA:131,1
DA:132,1
DA:133,1
DA:135,1
DA:136,1
DA:137,1
DA:138,1
DA:139,1
DA:140,1
DA:141,1
DA:143,1
DA:144,1
DA:145,1
DA:146,1
DA:147,1
DA:148,1
DA:149,1
DA:151,1
DA:152,1
DA:153,1
DA:154,1
DA:155,1
DA:156,1
DA:157,1
DA:159,1
DA:160,0
DA:163,6
DA:164,1
DA:165,0
DA:167,1
DA:168,0
DA:170,1
DA:171,0
DA:173,1
DA:174,1
DA:175,1
DA:176,1
DA:177,1
DA:180,0
DA:181,0
DA:182,0
DA:183,0
DA:184,0
DA:185,0
DA:186,0
DA:187,0
DA:189,0
DA:194,50
DA:195,50
DA:196,40
DA:197,10
DA:198,19
DA:199,16
DA:200,7
DA:202,3
DA:203,3
DA:207,40
DA:208,40
DA:211,1
DA:212,1
DA:213,1
DA:214,1
DA:216,1
DA:217,1
DA:218,1
DA:219,1
DA:220,1
DA:221,1
DA:222,1
DA:223,1
DA:224,1
DA:225,1
DA:226,1
DA:227,1
DA:228,1
DA:229,1
DA:230,1
DA:231,1
DA:232,1
DA:233,0
DA:234,0
DA:235,0
DA:237,1
DA:238,1
DA:239,3
DA:240,2
DA:241,2
DA:242,2
DA:243,2
DA:244,2
DA:245,2
DA:246,2
DA:247,2
DA:248,2
DA:249,2
DA:251,1
DA:252,0
DA:254,1
DA:255,0
DA:257,1
DA:258,1
DA:259,1
DA:260,1
LF:201
LH:166
end_of_record
TN:
SF:/home/nikola/Desktop/2024_Analysis_Mini-Student-Management-System/Mini-Student-Management-System/src/courses.cpp
FN:150,195,_ZN3SMS22update_course_manuallyEv
FN:197,217,_ZN3SMS13delete_courseEv
FN:219,262,_ZN3SMS25update_academic_year_nameEv
FN:264,305,_ZN3SMS20update_semester_nameEv
FN:307,365,_ZN3SMS21add_student_to_courseEv
FN:31,83,_ZN3SMS33add_new_semester_to_academic_yearEv
FN:367,408,_ZN3SMS26remove_student_from_courseEv
FN:410,468,_ZN3SMS22add_lecturer_to_courseEv
FN:470,508,_ZN3SMS27remove_lecturer_from_courseEv
FN:511,513,_ZN3SMS15filter_semesterEN3Csv9multitypeENS0_4listIS1_EENS0_5tableE
FN:516,523,_ZN3SMS20filter_semester_nameEN3Csv9multitypeENS0_4listIS1_EENS0_5tableE
FN:525,578,_ZN3SMS34delete_semester_from_academic_yearEv
FN:581,583,_ZN3SMS14filter_studentEN3Csv9multitypeENS0_4listIS1_EENS0_5tableE
FN:586,591,_ZN3SMS21filter_student_courseEN3Csv9multitypeENS0_4listIS1_EENS0_5tableE
FN:593,639,_ZN3SMS23view_students_of_courseEv
FN:641,693,_ZN3SMS22add_course_to_semesterEv
FN:697,699,_ZN3SMS22filter_course_semesterEN3Csv9multitypeENS0_4listIS1_EENS0_5tableE
FN:701,745,_ZN3SMS27delete_course_from_semesterEv
FN:748,753,_ZN3SMS19filter_course_printEN3Csv9multitypeENS0_4listIS1_EENS0_5tableE
FN:755,781,_ZN3SMS23view_course_of_semesterEv
FN:783,871,_ZN3SMS22import_course_from_csvEv
FN:86,148,_ZN3SMS26create_new_course_manuallyEv
FN:874,876,_ZN3SMS25filter_student_and_courseEN3Csv9multitypeENS0_4listIS1_EENS0_5tableE
FN:880,905,_ZN3SMS15filter_scheduleEN3Csv9multitypeENS0_4listIS1_EENS0_5tableE
FN:9,29,_ZN3SMS20create_academic_yearEv
FN:907,935,_ZN3SMS24view_schedule_of_studentEN3Csv9multitypeE
FN:937,939,_ZN3SMS11filter_yearEN3Csv9multitypeENS0_4listIS1_EENS0_5tableE
FN:940,943,_ZN3SMS22view_all_academic_yearEv
FN:945,975,_ZN3SMS30view_semester_in_academic_yearEv
FN:977,1005,_ZN3SMS20delete_academic_yearEv
FNDA:1,_ZN3SMS22update_course_manuallyEv
FNDA:2,_ZN3SMS13delete_courseEv
FNDA:1,_ZN3SMS25update_academic_year_nameEv
FNDA:1,_ZN3SMS20update_semester_nameEv
FNDA:1,_ZN3SMS21add_student_to_courseEv
FNDA:1,_ZN3SMS33add_new_semester_to_academic_yearEv
FNDA:1,_ZN3SMS26remove_student_from_courseEv
FNDA:1,_ZN3SMS22add_lecturer_to_courseEv
FNDA:1,_ZN3SMS27remove_lecturer_from_courseEv
FNDA:24,_ZN3SMS15filter_semesterEN3Csv9multitypeENS0_4listIS1_EENS0_5tableE
FNDA:24,_ZN3SMS20filter_semester_nameEN3Csv9multitypeENS0_4listIS1_EENS0_5tableE
FNDA:1,_ZN3SMS34delete_semester_from_academic_yearEv
FNDA:42,_ZN3SMS14filter_studentEN3Csv9multitypeENS0_4listIS1_EENS0_5tableE
FNDA:35,_ZN3SMS21filter_student_courseEN3Csv9multitypeENS0_4listIS1_EENS0_5tableE
FNDA:1,_ZN3SMS23view_students_of_courseEv
FNDA:1,_ZN3SMS22add_course_to_semesterEv
FNDA:78,_ZN3SMS22filter_course_semesterEN3Csv9multitypeENS0_4listIS1_EENS0_5tableE
FNDA:1,_ZN3SMS27delete_course_from_semesterEv
FNDA:66,_ZN3SMS19filter_course_printEN3Csv9multitypeENS0_4listIS1_EENS0_5tableE
FNDA:1,_ZN3SMS23view_course_of_semesterEv
FNDA:1,_ZN3SMS22import_course_from_csvEv
FNDA:1,_ZN3SMS26create_new_course_manuallyEv
FNDA:42,_ZN3SMS25filter_student_and_courseEN3Csv9multitypeENS0_4listIS1_EENS0_5tableE
FNDA:66,_ZN3SMS15filter_scheduleEN3Csv9multitypeENS0_4listIS1_EENS0_5tableE
FNDA:1,_ZN3SMS20create_academic_yearEv
FNDA:1,_ZN3SMS24view_schedule_of_studentEN3Csv9multitypeE
FNDA:6,_ZN3SMS11filter_yearEN3Csv9multitypeENS0_4listIS1_EENS0_5tableE
FNDA:1,_ZN3SMS22view_all_academic_yearEv
FNDA:1,_ZN3SMS30view_semester_in_academic_yearEv
FNDA:1,_ZN3SMS20delete_academic_yearEv
FNF:30
FNH:30
DA:9,1
DA:10,1
DA:11,1
DA:12,1
DA:13,1
DA:15,3
DA:16,2
DA:17,0
DA:18,0
DA:19,0
DA:22,1
DA:23,1
DA:24,1
DA:25,1
DA:26,1
DA:27,1
DA:28,1
DA:31,1
DA:32,1
DA:33,1
DA:36,4
DA:37,3
DA:40,1
DA:45,2
DA:46,2
DA:47,1
DA:48,1
DA:49,1
DA:51,1
DA:53,1
DA:54,6
DA:55,5
DA:56,0
DA:57,0
DA:58,0
DA:61,1
DA:64,1
DA:65,1
DA:66,1
DA:69,1
DA:70,1
DA:71,1
DA:73,1
DA:75,1
DA:76,1
DA:78,1
DA:79,1
DA:80,1
DA:82,2
DA:83,1
DA:86,1
DA:87,1
DA:88,1
DA:89,1
DA:90,1
DA:91,1
DA:92,1
DA:93,1
DA:94,1
DA:95,1
DA:96,1
DA:97,1
DA:98,1
DA:99,1
DA:101,1
DA:103,1
DA:104,1
DA:105,1
DA:108,6
DA:109,5
DA:110,0
DA:111,0
DA:112,0
DA:116,1
DA:117,12
DA:119,1
DA:120,1
DA:123,8
DA:124,7
DA:125,0
DA:126,0
DA:127,0
DA:128,0
DA:129,0
DA:132,0
DA:133,0
DA:134,0
DA:135,0
DA:140,1
DA:142,1
DA:143,1
DA:145,1
DA:146,1
DA:147,1
DA:150,1
DA:151,1
DA:152,1
DA:153,7
DA:154,6
DA:156,1
DA:160,1
DA:161,1
DA:163,1
DA:165,1
DA:167,1
DA:168,1
DA:169,1
DA:170,1
DA:171,1
DA:172,1
DA:173,1
DA:174,1
DA:175,1
DA:176,1
DA:178,1
DA:180,1
DA:181,1
DA:182,1
DA:184,12
DA:186,1
DA:187,1
DA:188,1
DA:189,1
DA:190,1
DA:192,0
DA:195,1
DA:197,2
DA:198,2
DA:199,2
DA:200,15
DA:201,13
DA:203,2
DA:207,2
DA:208,2
DA:209,2
DA:210,2
DA:211,2
DA:212,2
DA:213,2
DA:214,2
DA:216,0
DA:217,2
DA:219,1
DA:220,1
DA:221,1
DA:224,4
DA:225,3
DA:228,1
DA:232,1
DA:233,1
DA:234,1
DA:235,1
DA:236,1
DA:237,1
DA:239,1
DA:240,4
DA:241,3
DA:242,0
DA:243,0
DA:247,1
DA:248,0
DA:249,0
DA:250,0
DA:253,1
DA:254,1
DA:255,1
DA:256,1
DA:257,1
DA:258,1
DA:260,0
DA:262,1
DA:264,1
DA:265,1
DA:266,1
DA:267,7
DA:268,6
DA:270,1
DA:273,1
DA:274,1
DA:276,1
DA:277,1
DA:278,1
DA:280,1
DA:282,1
DA:283,7
DA:284,6
DA:285,0
DA:286,0
DA:290,1
DA:291,0
DA:292,0
DA:293,0
DA:296,1
DA:298,1
DA:299,1
DA:300,1
DA:301,1
DA:302,1
DA:304,0
DA:305,1
DA:307,1
DA:309,1
DA:310,1
DA:311,7
DA:312,6
DA:314,1
DA:319,2
DA:320,2
DA:321,1
DA:322,1
DA:323,1
DA:325,1
DA:327,1
DA:328,3
DA:329,3
DA:330,1
DA:331,1
DA:335,1
DA:336,0
DA:337,0
DA:338,0
DA:340,1
DA:341,21
DA:342,20
DA:343,0
DA:344,0
DA:348,1
DA:349,0
DA:350,0
DA:351,0
DA:355,1
DA:356,1
DA:357,1
DA:358,1
DA:359,1
DA:360,1
DA:361,1
DA:363,2
DA:365,1
DA:367,1
DA:368,1
DA:369,1
DA:370,8
DA:371,7
DA:373,1
DA:378,5
DA:379,5
DA:380,4
DA:381,4
DA:382,4
DA:383,4
DA:385,4
DA:387,87
DA:388,87
DA:389,4
DA:390,4
DA:391,4
DA:395,4
DA:396,4
DA:398,4
DA:399,0
DA:400,0
DA:403,4
DA:404,4
DA:407,5
DA:408,1
DA:410,1
DA:411,1
DA:412,1
DA:413,7
DA:414,6
DA:416,1
DA:421,2
DA:422,2
DA:423,1
DA:424,1
DA:425,1
DA:427,1
DA:429,1
DA:431,1
DA:432,1
DA:433,1
DA:434,1
DA:437,1
DA:438,0
DA:439,0
DA:440,0
DA:443,1
DA:444,5
DA:445,4
DA:446,0
DA:447,0
DA:450,1
DA:451,0
DA:452,0
DA:453,0
DA:457,1
DA:458,1
DA:459,1
DA:460,1
DA:462,1
DA:463,1
DA:464,1
DA:466,2
DA:468,1
DA:470,1
DA:471,1
DA:472,1
DA:473,7
DA:474,6
DA:476,1
DA:481,2
DA:482,2
DA:483,1
DA:484,1
DA:485,1
DA:487,1
DA:488,5
DA:489,5
DA:490,1
DA:491,1
DA:492,1
DA:493,1
DA:494,1
DA:498,1
DA:499,0
DA:500,0
DA:503,1
DA:504,1
DA:507,2
DA:508,1
DA:511,24
DA:512,24
DA:516,24
DA:517,24
DA:518,22
DA:519,12
DA:522,22
DA:525,1
DA:526,1
DA:527,1
DA:530,4
DA:531,3
DA:534,1
DA:539,2
DA:540,2
DA:542,1
DA:543,1
DA:545,1
DA:546,2
DA:547,1
DA:550,1
DA:552,1
DA:553,1
DA:554,2
DA:555,1
DA:558,1
DA:562,1
DA:563,1
DA:564,1
DA:565,1
DA:566,1
DA:567,1
DA:568,1
DA:569,1
DA:571,1
DA:572,1
DA:573,1
DA:575,0
DA:577,2
DA:578,1
DA:581,42
DA:582,42
DA:586,35
DA:587,65
DA:588,35
DA:590,30
DA:593,1
DA:594,1
DA:595,1
DA:596,7
DA:597,6
DA:599,1
DA:604,1
DA:606,8
DA:607,7
DA:608,0
DA:609,0
DA:610,0
DA:611,0
DA:612,0
DA:615,0
DA:616,0
DA:617,0
DA:618,0
DA:623,1
DA:624,1
DA:626,1
DA:628,1
DA:629,2
DA:630,1
DA:633,1
DA:634,1
DA:635,1
DA:636,1
DA:638,0
DA:639,1
DA:641,1
DA:642,1
DA:643,1
DA:644,7
DA:645,6
DA:647,1
DA:652,2
DA:653,2
DA:654,1
DA:655,1
DA:656,7
DA:657,6
DA:659,1
DA:664,1
DA:666,1
DA:667,1
DA:668,9
DA:669,8
DA:670,0
DA:671,0
DA:675,1
DA:676,0
DA:677,0
DA:678,0
DA:681,1
DA:682,1
DA:683,1
DA:684,1
DA:685,1
DA:686,1
DA:687,1
DA:688,1
DA:690,0
DA:692,2
DA:693,1
DA:697,78
DA:698,78
DA:701,1
DA:702,1
DA:703,1
DA:704,7
DA:705,6
DA:707,1
DA:712,4
DA:713,4
DA:714,3
DA:715,3
DA:717,3
DA:718,3
DA:719,9
DA:720,6
DA:722,3
DA:727,3
DA:729,3
DA:730,30
DA:731,30
DA:732,3
DA:733,3
DA:734,3
DA:735,3
DA:738,3
DA:739,3
DA:740,3
DA:742,0
DA:744,4
DA:745,1
DA:748,66
DA:749,121
DA:750,66
DA:752,55
DA:755,1
DA:756,1
DA:757,1
DA:758,7
DA:759,6
DA:761,1
DA:766,2
DA:767,2
DA:768,1
DA:769,1
DA:771,1
DA:772,2
DA:773,1
DA:775,1
DA:776,1
DA:777,1
DA:779,2
DA:781,1
DA:783,1
DA:784,1
DA:785,1
DA:786,7
DA:787,6
DA:789,1
DA:794,2
DA:795,2
DA:797,1
DA:798,1
DA:799,1
DA:800,1
DA:802,1
DA:803,1
DA:804,0
DA:805,0
DA:806,0
DA:808,1
DA:810,1
DA:812,3
DA:813,2
DA:814,8
DA:815,7
DA:816,1
DA:817,1
DA:820,2
DA:821,1
DA:822,12
DA:823,11
DA:828,1
DA:829,1
DA:831,3
DA:832,2
DA:833,21
DA:834,19
DA:835,0
DA:836,0
DA:839,2
DA:840,2
DA:841,2
DA:842,2
DA:844,16
DA:845,14
DA:846,6
DA:847,81
DA:848,78
DA:849,3
DA:850,3
DA:853,6
DA:854,3
DA:855,3
DA:856,3
DA:862,1
DA:863,1
DA:864,1
DA:866,1
DA:867,1
DA:868,1
DA:870,2
DA:871,1
DA:874,42
DA:875,42
DA:880,66
DA:881,66
DA:882,66
DA:883,198
DA:884,165
DA:885,33
DA:887,33
DA:888,176
DA:889,176
DA:890,33
DA:891,33
DA:895,33
DA:897,33
DA:898,33
DA:899,33
DA:901,33
DA:904,33
DA:907,1
DA:909,1
DA:910,1
DA:911,1
DA:913,1
DA:916,1
DA:917,4
DA:918,3
DA:920,1
DA:924,1
DA:925,0
DA:926,0
DA:927,0
DA:928,0
DA:929,0
DA:933,1
DA:934,1
DA:935,1
DA:937,6
DA:938,6
DA:940,1
DA:941,1
DA:942,1
DA:943,1
DA:945,1
DA:946,1
DA:947,1
DA:950,4
DA:951,3
DA:954,1
DA:958,2
DA:959,2
DA:960,1
DA:961,1
DA:962,1
DA:963,2
DA:964,1
DA:968,1
DA:970,1
DA:971,1
DA:974,2
DA:975,1
DA:977,1
DA:978,1
DA:979,1
DA:982,4
DA:983,3
DA:986,1
DA:989,1
DA:990,1
DA:991,1
DA:992,1
DA:993,1
DA:995,1
DA:996,1
DA:998,1
DA:999,1
DA:1001,1
DA:1002,1
DA:1004,0
DA:1005,1
LF:635
LH:554
end_of_record
TN:
SF:/home/nikola/Desktop/2024_Analysis_Mini-Student-Management-System/Mini-Student-Management-System/src/csv_import.cpp
FN:20,31,_ZN3SMS13csv_read_utilERN3Csv11csv_handlerERKNS0_9multitypeERKNS0_4listIS3_EE
FN:33,59,_ZN3SMS13init_all_csvsEv
FNDA:578,_ZN3SMS13csv_read_utilERN3Csv11csv_handlerERKNS0_9multitypeERKNS0_4listIS3_EE
FNDA:48,_ZN3SMS13init_all_csvsEv
FNF:2
FNH:2
DA:20,578
DA:22,578
DA:24,1
DA:25,1
DA:26,1
DA:29,577
DA:30,577
DA:33,48
DA:35,48
DA:37,48
DA:39,48
DA:41,48
DA:43,48
DA:45,48
DA:47,48
DA:49,48
DA:51,48
DA:53,48
DA:55,48
DA:57,48
DA:59,48
LF:21
LH:21
end_of_record
TN:
SF:/home/nikola/Desktop/2024_Analysis_Mini-Student-Management-System/Mini-Student-Management-System/src/date.cpp
FN:104,179,_ZNK4date7compileERKN3Csv9multitypeE
FN:181,225,_ZNK4date7add_dayERKN3Csv9multitypeE
FN:227,230,_ZNK4dateltERKS_
FN:232,235,_ZNK4dategtERKS_
FN:237,240,_ZNK4dateeqERKS_
FN:242,245,_ZNK4dateneERKS_
FN:247,250,_ZNK4dateleERKS_
FN:252,255,_ZNK4dategeERKS_
FN:257,272,_ZNK4date9substractES_
FN:27,38,_ZN4date3nowEv
FN:40,102,_ZN4date5parseERKN3Csv9multitypeES3_
FN:8,25,_ZN4dateC2ERKN3Csv9multitypeES3_S3_S3_S3_
FNDA:12,_ZNK4date7compileERKN3Csv9multitypeE
FNDA:53,_ZNK4date7add_dayERKN3Csv9multitypeE
FNDA:120,_ZNK4dateltERKS_
FNDA:115,_ZNK4dategtERKS_
FNDA:58,_ZNK4dateeqERKS_
FNDA:21,_ZNK4dateneERKS_
FNDA:38,_ZNK4dateleERKS_
FNDA:38,_ZNK4dategeERKS_
FNDA:3,_ZNK4date9substractES_
FNDA:89,_ZN4date3nowEv
FNDA:113,_ZN4date5parseERKN3Csv9multitypeES3_
FNDA:265,_ZN4dateC2ERKN3Csv9multitypeES3_S3_S3_S3_
FNF:12
FNH:12
DA:8,265
DA:9,265
DA:11,265
DA:12,265
DA:13,265
DA:14,1
DA:16,264
DA:17,25
DA:19,239
DA:21,265
DA:22,265
DA:23,265
DA:24,265
DA:25,265
DA:27,89
DA:29,89
DA:30,89
DA:31,89
DA:32,89
DA:33,89
DA:34,89
DA:35,89
DA:36,89
DA:37,89
DA:40,113
DA:42,113
DA:43,113
DA:44,113
DA:45,113
DA:46,113
DA:47,113
DA:48,113
DA:49,0
DA:50,113
DA:51,113
DA:52,113
DA:53,113
DA:54,113
DA:55,678
DA:57,565
DA:59,113
DA:60,113
DA:61,452
DA:62,339
DA:63,113
DA:65,565
DA:67,113
DA:68,113
DA:69,226
DA:70,113
DA:71,113
DA:73,565
DA:75,113
DA:76,113
DA:77,226
DA:78,113
DA:79,113
DA:81,565
DA:83,0
DA:84,0
DA:85,0
DA:86,0
DA:87,0
DA:89,565
DA:91,0
DA:92,0
DA:93,0
DA:94,0
DA:95,0
DA:99,113
DA:100,113
DA:101,113
DA:104,12
DA:106,12
DA:107,12
DA:108,69
DA:110,57
DA:111,57
DA:112,57
DA:114,70
DA:116,58
DA:118,10
DA:119,10
DA:120,10
DA:121,40
DA:123,30
DA:124,30
DA:127,58
DA:129,10
DA:130,10
DA:131,10
DA:132,20
DA:134,10
DA:135,10
DA:138,58
DA:140,10
DA:141,10
DA:142,10
DA:143,20
DA:145,10
DA:146,10
DA:149,58
DA:151,4
DA:152,4
DA:153,4
DA:154,8
DA:156,4
DA:157,4
DA:160,58
DA:162,4
DA:163,4
DA:164,4
DA:165,8
DA:167,4
DA:168,4
DA:172,69
DA:174,57
DA:175,57
DA:176,57
DA:178,12
DA:181,53
DA:183,53
DA:184,53
DA:185,53
DA:186,53
DA:187,53
DA:188,53
DA:189,117
DA:191,64
DA:193,44
DA:194,44
DA:196,0
DA:197,0
DA:199,0
DA:200,0
DA:202,0
DA:203,0
DA:205,44
DA:209,20
DA:210,40
DA:211,20
DA:213,1
DA:214,1
DA:216,0
DA:217,0
DA:219,1
DA:221,20
DA:224,53
DA:227,120
DA:229,120
DA:232,115
DA:234,115
DA:237,58
DA:239,58
DA:242,21
DA:244,21
DA:247,38
DA:249,38
DA:252,38
DA:254,38
DA:257,3
DA:259,3
DA:260,0
DA:261,3
DA:262,1
DA:263,2
DA:264,2
DA:265,2
DA:266,20
DA:268,18
DA:269,18
DA:271,2
LF:172
LH:152
end_of_record
TN:
SF:/home/nikola/Desktop/2024_Analysis_Mini-Student-Management-System/Mini-Student-Management-System/src/interface.cpp
FN:100,208,_ZN9Interface11print_tableERKN3Csv5tableERKNS0_9multitypeEbbbRSo
FN:210,215,_ZN9Interface11select_menuC2Ev
FN:217,222,_ZN9Interface11select_menu8add_itemEiRKN3Csv9multitypeE
FN:224,227,_ZN9Interface11select_menu17remove_item_by_noEi
FN:229,232,_ZN9Interface11select_menu9set_titleERKN3Csv9multitypeE
FN:234,267,_ZNK9Interface11select_menu19print_menu_and_waitEbRSo
FN:269,274,_ZN9Interface10input_menuC2Ev
FN:276,283,_ZN9Interface10input_menu8add_itemERKN3Csv9multitypeEb
FN:285,288,_ZN9Interface10input_menu19remove_item_by_descERKN3Csv9multitypeEb
FN:290,293,_ZN9Interface10input_menu9set_titleERKN3Csv9multitypeE
FN:295,323,_ZNK9Interface10input_menu19print_menu_and_waitEbRSo
FN:3,29,_ZrsRSiRN3Csv9multitypeE
FN:31,34,_ZlsRSoRKN3Csv9multitypeE
FN:36,61,_Z8readlineRSiRN3Csv9multitypeE
FN:65,72,_ZN9Interface6clrscrEv
FN:74,83,_ZN9Interface5pauseEv
FN:85,98,_ZN9Interface10print_noteERKN3Csv9multitypeES3_bRSo
FNDA:19,_ZN9Interface11print_tableERKN3Csv5tableERKNS0_9multitypeEbbbRSo
FNDA:38,_ZN9Interface11select_menuC2Ev
FNDA:202,_ZN9Interface11select_menu8add_itemEiRKN3Csv9multitypeE
FNDA:2,_ZN9Interface11select_menu17remove_item_by_noEi
FNDA:38,_ZN9Interface11select_menu9set_titleERKN3Csv9multitypeE
FNDA:69,_ZNK9Interface11select_menu19print_menu_and_waitEbRSo
FNDA:39,_ZN9Interface10input_menuC2Ev
FNDA:72,_ZN9Interface10input_menu8add_itemERKN3Csv9multitypeEb
FNDA:2,_ZN9Interface10input_menu19remove_item_by_descERKN3Csv9multitypeEb
FNDA:38,_ZN9Interface10input_menu9set_titleERKN3Csv9multitypeE
FNDA:39,_ZNK9Interface10input_menu19print_menu_and_waitEbRSo
FNDA:2,_ZrsRSiRN3Csv9multitypeE
FNDA:1433,_ZlsRSoRKN3Csv9multitypeE
FNDA:141,_Z8readlineRSiRN3Csv9multitypeE
FNDA:159,_ZN9Interface6clrscrEv
FNDA:52,_ZN9Interface5pauseEv
FNDA:41,_ZN9Interface10print_noteERKN3Csv9multitypeES3_bRSo
FNF:17
FNH:17
DA:3,2
DA:5,2
DA:6,2
DA:8,2
DA:9,2
DA:10,2
DA:12,2
DA:13,2
DA:14,16
DA:15,14
DA:18,2
DA:19,2
DA:20,2
DA:21,16
DA:22,14
DA:23,2
DA:27,0
DA:28,2
DA:31,1433
DA:33,1433
DA:36,141
DA:39,141
DA:42,141
DA:43,141
DA:46,732
DA:47,732
DA:48,141
DA:49,591
DA:50,0
DA:51,591
DA:55,141
DA:56,141
DA:57,141
DA:58,732
DA:59,591
DA:60,141
DA:61,141
DA:65,159
DA:70,159
DA:72,159
DA:74,52
DA:83,52
DA:85,41
DA:90,41
DA:91,40
DA:92,41
DA:93,41
DA:94,41
DA:95,41
DA:96,41
DA:97,41
DA:98,41
DA:100,19
DA:107,19
DA:108,19
DA:109,19
DA:110,19
DA:111,19
DA:113,19
DA:114,19
DA:115,19
DA:116,19
DA:117,108
DA:118,89
DA:119,75
DA:121,56
DA:122,311
DA:123,255
DA:127,19
DA:129,18
DA:131,18
DA:133,11
DA:134,11
DA:135,0
DA:137,99
DA:139,81
DA:140,81
DA:141,217
DA:142,136
DA:144,18
DA:145,18
DA:147,33
DA:148,22
DA:149,11
DA:151,99
DA:153,842
DA:154,761
DA:155,81
DA:157,18
DA:158,74
DA:160,56
DA:162,29
DA:163,29
DA:164,58
DA:165,29
DA:167,311
DA:169,255
DA:170,255
DA:171,1080
DA:172,825
DA:174,56
DA:179,0
DA:180,0
DA:181,0
DA:182,0
DA:184,0
DA:186,0
DA:187,0
DA:188,0
DA:189,0
DA:191,0
DA:193,0
DA:194,0
DA:195,0
DA:196,0
DA:197,0
DA:199,0
DA:200,0
DA:205,1
DA:206,19
DA:207,19
DA:208,19
DA:210,38
DA:212,38
DA:213,38
DA:214,38
DA:215,38
DA:217,202
DA:219,202
DA:220,202
DA:221,202
DA:222,202
DA:224,2
DA:226,2
DA:229,38
DA:231,38
DA:232,38
DA:234,69
DA:236,69
DA:237,68
DA:238,69
DA:239,69
DA:240,69
DA:242,69
DA:243,462
DA:244,393
DA:245,462
DA:247,393
DA:248,393
DA:249,0
DA:250,393
DA:252,69
DA:257,69
DA:258,69
DA:259,69
DA:260,69
DA:261,69
DA:263,69
DA:264,69
DA:266,0
DA:269,39
DA:271,39
DA:272,39
DA:273,39
DA:274,39
DA:276,72
DA:278,72
DA:279,0
DA:280,72
DA:281,72
DA:282,72
DA:285,2
DA:287,2
DA:290,38
DA:292,38
DA:293,38
DA:295,39
DA:297,39
DA:298,32
DA:299,39
DA:300,39
DA:301,39
DA:303,39
DA:304,39
DA:305,111
DA:306,72
DA:307,111
DA:309,72
DA:310,72
DA:311,372
DA:312,300
DA:313,72
DA:314,71
DA:316,1
DA:317,72
DA:319,39
DA:320,39
DA:322,39
LF:198
LH:175
end_of_record
TN:
SF:/home/nikola/Desktop/2024_Analysis_Mini-Student-Management-System/Mini-Student-Management-System/src/lecturer.cpp
FN:114,151,_ZN3SMS15delete_lecturerEv
FN:13,19,_Z35__lecturers_filter_lecturerIDs_funcN3Csv9multitypeENS_4listIS0_EENS_5tableE
FN:153,157,_ZN3SMS18view_all_lecturersEv
FN:159,191,_ZN3SMS24view_lecturers_of_courseEv
FN:23,69,_ZN3SMS12add_lecturerEv
FN:7,10,_Z37__courselecturer_filter_courseID_funcN3Csv9multitypeENS_4listIS0_EENS_5tableE
FN:71,112,_ZN3SMS13edit_lecturerEv
FNDA:1,_ZN3SMS15delete_lecturerEv
FNDA:16,_Z35__lecturers_filter_lecturerIDs_funcN3Csv9multitypeENS_4listIS0_EENS_5tableE
FNDA:1,_ZN3SMS18view_all_lecturersEv
FNDA:1,_ZN3SMS24view_lecturers_of_courseEv
FNDA:1,_ZN3SMS12add_lecturerEv
FNDA:8,_Z37__courselecturer_filter_courseID_funcN3Csv9multitypeENS_4listIS0_EENS_5tableE
FNDA:1,_ZN3SMS13edit_lecturerEv
FNF:7
FNH:7
DA:7,8
DA:9,8
DA:13,16
DA:15,36
DA:16,28
DA:17,8
DA:18,8
DA:23,1
DA:25,1
DA:26,1
DA:27,1
DA:28,1
DA:29,1
DA:30,1
DA:31,1
DA:33,1
DA:34,1
DA:36,1
DA:37,5
DA:38,4
DA:39,0
DA:40,1
DA:42,0
DA:43,0
DA:44,0
DA:47,1
DA:48,1
DA:49,1
DA:50,1
DA:51,1
DA:53,1
DA:54,0
DA:55,1
DA:58,1
DA:59,1
DA:60,1
DA:61,1
DA:63,1
DA:64,0
DA:65,1
DA:67,1
DA:68,1
DA:71,1
DA:73,1
DA:74,1
DA:76,1
DA:78,1
DA:79,1
DA:80,1
DA:82,1
DA:83,1
DA:84,6
DA:85,5
DA:86,1
DA:87,1
DA:89,0
DA:90,0
DA:91,0
DA:94,1
DA:95,1
DA:96,1
DA:97,1
DA:98,1
DA:99,1
DA:101,1
DA:102,1
DA:103,1
DA:105,1
DA:106,0
DA:107,1
DA:109,1
DA:111,1
DA:114,1
DA:116,1
DA:117,1
DA:119,1
DA:121,1
DA:122,1
DA:123,1
DA:125,1
DA:126,1
DA:127,6
DA:128,5
DA:129,1
DA:130,1
DA:132,0
DA:133,0
DA:134,0
DA:137,1
DA:138,1
DA:139,0
DA:140,1
DA:142,1
DA:144,1
DA:146,1
DA:148,1
DA:150,1
DA:153,1
DA:155,1
DA:156,1
DA:157,1
DA:159,1
DA:161,1
DA:162,1
DA:164,1
DA:165,1
DA:166,6
DA:167,5
DA:168,1
DA:173,2
DA:174,2
DA:176,1
DA:177,1
DA:178,1
DA:180,1
DA:181,3
DA:182,2
DA:184,1
DA:185,1
DA:186,1
DA:190,2
DA:191,1
LF:122
LH:108
end_of_record
TN:
SF:/home/nikola/Desktop/2024_Analysis_Mini-Student-Management-System/Mini-Student-Management-System/src/scoreboard.cpp
FN:12,15,_Z31__courses_filter_studentID_funcN3Csv9multitypeENS_4listIS0_EENS_5tableE
FN:138,164,_ZN3SMS15view_scoreboardEv
FN:166,193,_ZN3SMS23student_view_scoreboardERKN3Csv9multitypeE
FN:17,21,_Z43__scoreboard_filter_courseID_studentID_funcN3Csv9multitypeENS_4listIS0_EENS_5tableE
FN:195,234,_ZN3SMS24export_scoreboard_to_csvEv
FN:25,77,_ZN3SMS17import_scoreboardEv
FN:6,9,_Z33__scoreboard_filter_courseID_funcN3Csv9multitypeENS_4listIS0_EENS_5tableE
FN:79,136,_ZN3SMS15edit_scoreboardEv
FNDA:40,_Z31__courses_filter_studentID_funcN3Csv9multitypeENS_4listIS0_EENS_5tableE
FNDA:1,_ZN3SMS15view_scoreboardEv
FNDA:1,_ZN3SMS23student_view_scoreboardERKN3Csv9multitypeE
FNDA:264,_Z43__scoreboard_filter_courseID_studentID_funcN3Csv9multitypeENS_4listIS0_EENS_5tableE
FNDA:1,_ZN3SMS24export_scoreboard_to_csvEv
FNDA:1,_ZN3SMS17import_scoreboardEv
FNDA:396,_Z33__scoreboard_filter_courseID_funcN3Csv9multitypeENS_4listIS0_EENS_5tableE
FNDA:1,_ZN3SMS15edit_scoreboardEv
FNF:8
FNH:8
DA:6,396
DA:8,396
DA:12,40
DA:14,40
DA:17,264
DA:19,354
DA:20,354
DA:25,1
DA:27,1
DA:28,1
DA:29,1
DA:31,1
DA:32,1
DA:33,6
DA:34,5
DA:35,1
DA:40,2
DA:41,2
DA:43,1
DA:44,1
DA:45,1
DA:46,1
DA:48,1
DA:49,1
DA:50,1
DA:52,0
DA:53,0
DA:54,0
DA:56,1
DA:57,1
DA:58,5
DA:60,4
DA:61,4
DA:62,4
DA:63,4
DA:64,4
DA:65,4
DA:66,4
DA:68,1
DA:69,0
DA:70,1
DA:71,1
DA:72,1
DA:73,1
DA:76,2
DA:77,1
DA:79,1
DA:81,1
DA:82,1
DA:83,1
DA:85,1
DA:86,1
DA:87,6
DA:88,5
DA:89,1
DA:94,2
DA:95,2
DA:97,1
DA:98,1
DA:99,1
DA:100,1
DA:102,1
DA:103,1
DA:104,1
DA:105,1
DA:106,1
DA:107,1
DA:109,1
DA:110,1
DA:111,1
DA:112,1
DA:113,1
DA:114,1
DA:115,1
DA:117,23
DA:118,30
DA:119,30
DA:121,1
DA:122,1
DA:123,1
DA:124,1
DA:129,0
DA:130,0
DA:131,0
DA:135,2
DA:136,1
DA:138,1
DA:140,1
DA:141,1
DA:142,1
DA:144,1
DA:145,1
DA:146,6
DA:147,5
DA:148,1
DA:153,2
DA:154,2
DA:156,1
DA:157,1
DA:158,1
DA:159,1
DA:160,1
DA:163,2
DA:164,1
DA:166,1
DA:168,1
DA:169,1
DA:170,1
DA:171,1
DA:173,1
DA:174,1
DA:175,4
DA:176,3
DA:177,1
DA:182,2
DA:183,2
DA:185,1
DA:186,1
DA:187,1
DA:188,1
DA:189,1
DA:192,2
DA:193,1
DA:195,1
DA:197,1
DA:198,1
DA:199,1
DA:201,1
DA:202,1
DA:203,6
DA:204,5
DA:205,1
DA:210,2
DA:211,2
DA:213,1
DA:214,1
DA:216,1
DA:217,1
DA:218,1
DA:219,1
DA:220,1
DA:221,1
DA:222,1
DA:223,1
DA:224,1
DA:225,1
DA:226,0
DA:227,1
DA:228,1
DA:229,1
DA:230,1
DA:233,2
LF:152
LH:144
end_of_record
TN:
SF:/home/nikola/Desktop/2024_Analysis_Mini-Student-Management-System/unit_tests/tests/test_attendancelist.cpp
FN:10,66,_Z21updateLastCourseEntryv
FN:112,124,_ZN12_GLOBAL__N_130____C_A_T_C_H____T_E_S_T____544testEv
FN:127,140,_ZN12_GLOBAL__N_130____C_A_T_C_H____T_E_S_T____564testEv
FN:143,153,_ZN12_GLOBAL__N_130____C_A_T_C_H____T_E_S_T____584testEv
FN:157,174,_ZN12_GLOBAL__N_130____C_A_T_C_H____T_E_S_T____604testEv
FN:177,189,_ZN12_GLOBAL__N_130____C_A_T_C_H____T_E_S_T____624testEv
FN:73,76,_ZN20SetupAttendanceTestsC2Ev
FN:80,92,_ZN12_GLOBAL__N_130____C_A_T_C_H____T_E_S_T____504testEv
FN:95,109,_ZN12_GLOBAL__N_130____C_A_T_C_H____T_E_S_T____524testEv
FNDA:7,_Z21updateLastCourseEntryv
FNDA:1,_ZN12_GLOBAL__N_130____C_A_T_C_H____T_E_S_T____544testEv
FNDA:1,_ZN12_GLOBAL__N_130____C_A_T_C_H____T_E_S_T____564testEv
FNDA:1,_ZN12_GLOBAL__N_130____C_A_T_C_H____T_E_S_T____584testEv
FNDA:1,_ZN12_GLOBAL__N_130____C_A_T_C_H____T_E_S_T____604testEv
FNDA:1,_ZN12_GLOBAL__N_130____C_A_T_C_H____T_E_S_T____624testEv
FNDA:7,_ZN20SetupAttendanceTestsC2Ev
FNDA:1,_ZN12_GLOBAL__N_130____C_A_T_C_H____T_E_S_T____504testEv
FNDA:1,_ZN12_GLOBAL__N_130____C_A_T_C_H____T_E_S_T____524testEv
FNF:9
FNH:9
DA:10,7
DA:11,7
DA:12,7
DA:14,7
DA:15,7
DA:17,49
DA:18,42
DA:20,7
DA:23,7
DA:24,7
DA:27,7
DA:29,7
DA:30,7
DA:31,7
DA:32,7
DA:34,7
DA:35,7
DA:37,7
DA:38,7
DA:39,7
DA:41,84
DA:42,77
DA:45,7
DA:46,7
DA:47,7
DA:49,7
DA:50,84
DA:51,77
DA:52,77
DA:55,7
DA:56,42
DA:57,35
DA:59,7
DA:60,7
DA:62,7
DA:63,7
DA:64,7
DA:65,7
DA:66,7
DA:73,7
DA:74,7
DA:75,7
DA:76,7
DA:80,1
DA:81,1
DA:82,1
DA:85,1
DA:87,1
DA:90,1
DA:91,1
DA:92,1
DA:95,1
DA:96,1
DA:97,1
DA:101,1
DA:102,1
DA:103,1
DA:104,1
DA:106,1
DA:108,1
DA:109,1
DA:112,1
DA:113,1
DA:116,1
DA:118,1
DA:119,1
DA:121,1
DA:123,1
DA:124,1
DA:127,1
DA:128,1
DA:132,1
DA:134,1
DA:135,1
DA:137,1
DA:139,1
DA:140,1
DA:143,1
DA:144,1
DA:145,1
DA:147,1
DA:149,1
DA:151,1
DA:152,1
DA:153,1
DA:157,1
DA:158,1
DA:159,1
DA:162,1
DA:163,1
DA:164,1
DA:165,1
DA:167,1
DA:169,1
DA:170,1
DA:173,1
DA:174,1
DA:177,1
DA:178,1
DA:181,1
DA:183,1
DA:184,1
DA:186,1
DA:188,1
DA:189,1
LF:105
LH:105
end_of_record
TN:
SF:/home/nikola/Desktop/2024_Analysis_Mini-Student-Management-System/unit_tests/tests/test_class.cpp
FN:101,121,_ZN12_GLOBAL__N_130____C_A_T_C_H____T_E_S_T____744testEv
FN:14,16,_ZN15SetupClassTestsC2Ev
FN:20,34,_ZN12_GLOBAL__N_130____C_A_T_C_H____T_E_S_T____644testEv
FN:38,52,_ZN12_GLOBAL__N_130____C_A_T_C_H____T_E_S_T____664testEv
FN:55,64,_ZN12_GLOBAL__N_130____C_A_T_C_H____T_E_S_T____684testEv
FN:67,81,_ZN12_GLOBAL__N_130____C_A_T_C_H____T_E_S_T____704testEv
FN:84,98,_ZN12_GLOBAL__N_130____C_A_T_C_H____T_E_S_T____724testEv
FNDA:1,_ZN12_GLOBAL__N_130____C_A_T_C_H____T_E_S_T____744testEv
FNDA:6,_ZN15SetupClassTestsC2Ev
FNDA:1,_ZN12_GLOBAL__N_130____C_A_T_C_H____T_E_S_T____644testEv
FNDA:1,_ZN12_GLOBAL__N_130____C_A_T_C_H____T_E_S_T____664testEv
FNDA:1,_ZN12_GLOBAL__N_130____C_A_T_C_H____T_E_S_T____684testEv
FNDA:1,_ZN12_GLOBAL__N_130____C_A_T_C_H____T_E_S_T____704testEv
FNDA:1,_ZN12_GLOBAL__N_130____C_A_T_C_H____T_E_S_T____724testEv
FNF:7
FNH:7
DA:14,6
DA:15,6
DA:16,6
DA:20,1
DA:21,1
DA:22,1
DA:24,1
DA:25,1
DA:26,1
DA:27,1
DA:29,1
DA:31,1
DA:33,1
DA:34,1
DA:38,1
DA:39,1
DA:41,1
DA:43,1
DA:44,1
DA:45,1
DA:47,1
DA:49,1
DA:51,2
DA:52,1
DA:55,1
DA:56,1
DA:57,1
DA:58,1
DA:59,1
DA:61,1
DA:63,1
DA:64,1
DA:67,1
DA:68,1
DA:69,1
DA:71,1
DA:72,1
DA:73,1
DA:74,1
DA:76,1
DA:78,1
DA:80,1
DA:81,1
DA:84,1
DA:85,1
DA:86,1
DA:89,1
DA:92,1
DA:95,1
DA:96,1
DA:97,1
DA:98,1
DA:101,1
DA:102,1
DA:103,1
DA:106,2
DA:108,4
DA:109,3
DA:110,3
DA:111,3
DA:112,3
DA:114,3
DA:116,3
DA:117,3
DA:120,1
DA:121,1
LF:66
LH:66
end_of_record
TN:
SF:/home/nikola/Desktop/2024_Analysis_Mini-Student-Management-System/unit_tests/tests/test_courses.cpp
FN:111,123,_ZN12_GLOBAL__N_130____C_A_T_C_H____T_E_S_T____884testEv
FN:126,138,_ZN12_GLOBAL__N_130____C_A_T_C_H____T_E_S_T____904testEv
FN:13,15,_ZN17SetupCoursesTestsC2Ev
FN:141,153,_ZN12_GLOBAL__N_130____C_A_T_C_H____T_E_S_T____924testEv
FN:156,169,_ZN12_GLOBAL__N_130____C_A_T_C_H____T_E_S_T____944testEv
FN:172,185,_ZN12_GLOBAL__N_130____C_A_T_C_H____T_E_S_T____964testEv
FN:188,197,_ZN12_GLOBAL__N_130____C_A_T_C_H____T_E_S_T____984testEv
FN:19,31,_ZN12_GLOBAL__N_130____C_A_T_C_H____T_E_S_T____764testEv
FN:200,213,_ZN12_GLOBAL__N_131____C_A_T_C_H____T_E_S_T____1004testEv
FN:216,225,_ZN12_GLOBAL__N_131____C_A_T_C_H____T_E_S_T____1024testEv
FN:230,242,_ZN12_GLOBAL__N_131____C_A_T_C_H____T_E_S_T____1044testEv
FN:245,257,_ZN12_GLOBAL__N_131____C_A_T_C_H____T_E_S_T____1064testEv
FN:262,299,_ZN12_GLOBAL__N_131____C_A_T_C_H____T_E_S_T____1084testEv
FN:302,314,_ZN12_GLOBAL__N_131____C_A_T_C_H____T_E_S_T____1104testEv
FN:317,336,_ZN12_GLOBAL__N_131____C_A_T_C_H____T_E_S_T____1124testEv
FN:339,351,_ZN12_GLOBAL__N_131____C_A_T_C_H____T_E_S_T____1144testEv
FN:34,45,_ZN12_GLOBAL__N_130____C_A_T_C_H____T_E_S_T____784testEv
FN:354,366,_ZN12_GLOBAL__N_131____C_A_T_C_H____T_E_S_T____1164testEv
FN:48,60,_ZN12_GLOBAL__N_130____C_A_T_C_H____T_E_S_T____804testEv
FN:63,74,_ZN12_GLOBAL__N_130____C_A_T_C_H____T_E_S_T____824testEv
FN:78,91,_ZN12_GLOBAL__N_130____C_A_T_C_H____T_E_S_T____844testEv
FN:94,105,_ZN12_GLOBAL__N_130____C_A_T_C_H____T_E_S_T____864testEv
FNDA:1,_ZN12_GLOBAL__N_130____C_A_T_C_H____T_E_S_T____884testEv
FNDA:1,_ZN12_GLOBAL__N_130____C_A_T_C_H____T_E_S_T____904testEv
FNDA:21,_ZN17SetupCoursesTestsC2Ev
FNDA:1,_ZN12_GLOBAL__N_130____C_A_T_C_H____T_E_S_T____924testEv
FNDA:1,_ZN12_GLOBAL__N_130____C_A_T_C_H____T_E_S_T____944testEv
FNDA:1,_ZN12_GLOBAL__N_130____C_A_T_C_H____T_E_S_T____964testEv
FNDA:1,_ZN12_GLOBAL__N_130____C_A_T_C_H____T_E_S_T____984testEv
FNDA:1,_ZN12_GLOBAL__N_130____C_A_T_C_H____T_E_S_T____764testEv
FNDA:1,_ZN12_GLOBAL__N_131____C_A_T_C_H____T_E_S_T____1004testEv
FNDA:1,_ZN12_GLOBAL__N_131____C_A_T_C_H____T_E_S_T____1024testEv
FNDA:1,_ZN12_GLOBAL__N_131____C_A_T_C_H____T_E_S_T____1044testEv
FNDA:1,_ZN12_GLOBAL__N_131____C_A_T_C_H____T_E_S_T____1064testEv
FNDA:1,_ZN12_GLOBAL__N_131____C_A_T_C_H____T_E_S_T____1084testEv
FNDA:1,_ZN12_GLOBAL__N_131____C_A_T_C_H____T_E_S_T____1104testEv
FNDA:1,_ZN12_GLOBAL__N_131____C_A_T_C_H____T_E_S_T____1124testEv
FNDA:1,_ZN12_GLOBAL__N_131____C_A_T_C_H____T_E_S_T____1144testEv
FNDA:1,_ZN12_GLOBAL__N_130____C_A_T_C_H____T_E_S_T____784testEv
FNDA:1,_ZN12_GLOBAL__N_131____C_A_T_C_H____T_E_S_T____1164testEv
FNDA:1,_ZN12_GLOBAL__N_130____C_A_T_C_H____T_E_S_T____804testEv
FNDA:1,_ZN12_GLOBAL__N_130____C_A_T_C_H____T_E_S_T____824testEv
FNDA:1,_ZN12_GLOBAL__N_130____C_A_T_C_H____T_E_S_T____844testEv
FNDA:1,_ZN12_GLOBAL__N_130____C_A_T_C_H____T_E_S_T____864testEv
FNF:22
FNH:22
DA:13,21
DA:14,21
DA:15,21
DA:19,1
DA:20,1
DA:21,1
DA:23,1
DA:24,1
DA:26,1
DA:28,1
DA:30,1
DA:31,1
DA:34,1
DA:35,1
DA:37,1
DA:38,1
DA:40,1
DA:42,1
DA:44,2
DA:45,1
DA:48,1
DA:49,1
DA:50,1
DA:52,1
DA:53,1
DA:55,1
DA:57,1
DA:59,1
DA:60,1
DA:63,1
DA:64,1
DA:66,1
DA:67,1
DA:69,1
DA:71,1
DA:73,2
DA:74,1
DA:78,1
DA:79,1
DA:80,1
DA:83,1
DA:84,1
DA:86,1
DA:88,1
DA:90,1
DA:91,1
DA:94,1
DA:95,1
DA:97,1
DA:98,1
DA:100,1
DA:102,1
DA:104,3
DA:105,1
DA:111,1
DA:112,1
DA:113,1
DA:115,1
DA:116,1
DA:118,1
DA:120,1
DA:122,1
DA:123,1
DA:126,1
DA:127,1
DA:128,1
DA:130,1
DA:131,1
DA:133,1
DA:135,1
DA:137,1
DA:138,1
DA:141,1
DA:142,1
DA:143,1
DA:145,1
DA:146,1
DA:148,1
DA:150,1
DA:152,1
DA:153,1
DA:156,1
DA:157,1
DA:158,1
DA:160,1
DA:161,1
DA:163,1
DA:165,1
DA:166,1
DA:168,1
DA:169,1
DA:172,1
DA:173,1
DA:174,1
DA:176,1
DA:177,1
DA:179,1
DA:181,1
DA:182,1
DA:184,1
DA:185,1
DA:188,1
DA:189,1
DA:190,1
DA:192,1
DA:194,1
DA:196,1
DA:197,1
DA:200,1
DA:201,1
DA:202,1
DA:204,1
DA:205,1
DA:207,1
DA:209,1
DA:210,1
DA:212,1
DA:213,1
DA:216,1
DA:217,1
DA:218,1
DA:220,1
DA:222,1
DA:224,1
DA:225,1
DA:230,1
DA:231,1
DA:232,1
DA:234,1
DA:235,1
DA:237,1
DA:239,1
DA:241,1
DA:242,1
DA:245,1
DA:246,1
DA:247,1
DA:249,1
DA:250,1
DA:252,1
DA:254,1
DA:256,1
DA:257,1
DA:262,1
DA:263,1
DA:264,1
DA:270,2
DA:271,2
DA:273,1
DA:274,1
DA:275,3
DA:276,5
DA:277,4
DA:279,4
DA:280,1
DA:281,1
DA:285,1
DA:286,1
DA:288,1
DA:290,1
DA:292,1
DA:299,1
DA:302,1
DA:303,1
DA:304,1
DA:306,1
DA:307,1
DA:309,1
DA:311,1
DA:313,1
DA:314,1
DA:317,1
DA:318,1
DA:319,1
DA:322,2
DA:324,3
DA:325,2
DA:326,2
DA:327,2
DA:328,2
DA:330,2
DA:332,2
DA:333,2
DA:335,1
DA:336,1
DA:339,1
DA:340,1
DA:341,1
DA:343,1
DA:344,1
DA:346,1
DA:348,1
DA:350,1
DA:351,1
DA:354,1
DA:355,1
DA:356,1
DA:358,1
DA:359,1
DA:361,1
DA:363,1
DA:365,1
DA:366,1
LF:203
LH:203
end_of_record
TN:
SF:/home/nikola/Desktop/2024_Analysis_Mini-Student-Management-System/unit_tests/tests/test_csv_import.cpp
FN:10,12,_ZN13SetupCSVTestsC2Ev
FN:16,25,_ZN12_GLOBAL__N_130____C_A_T_C_H____T_E_S_T____344testEv
FN:28,33,_ZN12_GLOBAL__N_130____C_A_T_C_H____T_E_S_T____364testEv
FN:36,43,_ZN12_GLOBAL__N_130____C_A_T_C_H____T_E_S_T____384testEv
FNDA:3,_ZN13SetupCSVTestsC2Ev
FNDA:1,_ZN12_GLOBAL__N_130____C_A_T_C_H____T_E_S_T____344testEv
FNDA:1,_ZN12_GLOBAL__N_130____C_A_T_C_H____T_E_S_T____364testEv
FNDA:1,_ZN12_GLOBAL__N_130____C_A_T_C_H____T_E_S_T____384testEv
FNF:4
FNH:4
DA:10,3
DA:11,3
DA:12,3
DA:16,1
DA:17,1
DA:18,1
DA:21,1
DA:22,1
DA:23,1
DA:24,1
DA:25,1
DA:28,1
DA:29,1
DA:32,1
DA:33,1
DA:36,1
DA:37,1
DA:40,1
DA:41,1
DA:42,1
DA:43,1
LF:21
LH:21
end_of_record
TN:
SF:/home/nikola/Desktop/2024_Analysis_Mini-Student-Management-System/unit_tests/tests/test_date.cpp
FN:17,25,_ZL30____C_A_T_C_H____T_E_S_T____24v
FN:27,36,_ZL30____C_A_T_C_H____T_E_S_T____26v
FN:39,47,_ZL30____C_A_T_C_H____T_E_S_T____28v
FN:49,59,_ZL30____C_A_T_C_H____T_E_S_T____30v
FN:5,15,_ZL30____C_A_T_C_H____T_E_S_T____22v
FN:61,67,_ZL30____C_A_T_C_H____T_E_S_T____32v
FNDA:1,_ZL30____C_A_T_C_H____T_E_S_T____24v
FNDA:1,_ZL30____C_A_T_C_H____T_E_S_T____26v
FNDA:1,_ZL30____C_A_T_C_H____T_E_S_T____28v
FNDA:1,_ZL30____C_A_T_C_H____T_E_S_T____30v
FNDA:1,_ZL30____C_A_T_C_H____T_E_S_T____22v
FNDA:1,_ZL30____C_A_T_C_H____T_E_S_T____32v
FNF:6
FNH:6
DA:5,1
DA:6,1
DA:7,1
DA:8,1
DA:9,1
DA:10,1
DA:11,1
DA:13,1
DA:14,1
DA:15,1
DA:17,1
DA:18,1
DA:19,1
DA:20,1
DA:21,1
DA:22,1
DA:23,1
DA:24,1
DA:25,1
DA:27,1
DA:28,1
DA:30,1
DA:31,1
DA:33,1
DA:35,1
DA:36,1
DA:39,1
DA:40,1
DA:41,1
DA:42,1
DA:44,1
DA:45,1
DA:46,1
DA:47,1
DA:49,1
DA:50,1
DA:51,1
DA:53,1
DA:54,1
DA:55,1
DA:57,1
DA:58,1
DA:59,1
DA:61,1
DA:62,1
DA:63,1
DA:65,1
DA:66,1
DA:67,1
LF:49
LH:49
end_of_record
TN:
SF:/home/nikola/Desktop/2024_Analysis_Mini-Student-Management-System/unit_tests/tests/test_interface.cpp
FN:16,22,_ZL30____C_A_T_C_H____T_E_S_T____12v
FN:25,32,_ZL30____C_A_T_C_H____T_E_S_T____14v
FN:35,48,_ZL30____C_A_T_C_H____T_E_S_T____16v
FN:51,69,_ZL30____C_A_T_C_H____T_E_S_T____18v
FN:7,13,_ZL30____C_A_T_C_H____T_E_S_T____10v
FN:72,99,_ZL30____C_A_T_C_H____T_E_S_T____20v
FNDA:1,_ZL30____C_A_T_C_H____T_E_S_T____12v
FNDA:1,_ZL30____C_A_T_C_H____T_E_S_T____14v
FNDA:1,_ZL30____C_A_T_C_H____T_E_S_T____16v
FNDA:1,_ZL30____C_A_T_C_H____T_E_S_T____18v
FNDA:1,_ZL30____C_A_T_C_H____T_E_S_T____10v
FNDA:1,_ZL30____C_A_T_C_H____T_E_S_T____20v
FNF:6
FNH:6
DA:7,1
DA:8,1
DA:9,1
DA:10,1
DA:12,3
DA:13,1
DA:16,1
DA:17,1
DA:18,1
DA:19,1
DA:21,1
DA:22,1
DA:25,1
DA:26,1
DA:27,1
DA:29,1
DA:31,3
DA:32,1
DA:35,1
DA:36,1
DA:37,1
DA:45,1
DA:47,1
DA:48,1
DA:51,1
DA:52,1
DA:53,1
DA:54,1
DA:55,1
DA:57,1
DA:58,1
DA:61,2
DA:63,1
DA:67,1
DA:68,1
DA:69,1
DA:72,1
DA:73,1
DA:74,1
DA:77,1
DA:78,1
DA:81,1
DA:82,1
DA:83,1
DA:84,1
DA:86,1
DA:88,1
DA:91,1
DA:92,1
DA:93,3
DA:96,1
DA:97,1
DA:99,1
LF:53
LH:53
end_of_record
TN:
SF:/home/nikola/Desktop/2024_Analysis_Mini-Student-Management-System/unit_tests/tests/test_lecturer.cpp
FN:11,13,_ZN18SetupLecturerTestsC2Ev
FN:17,27,_ZN12_GLOBAL__N_130____C_A_T_C_H____T_E_S_T____404testEv
FN:29,39,_ZN12_GLOBAL__N_130____C_A_T_C_H____T_E_S_T____424testEv
FN:41,51,_ZN12_GLOBAL__N_130____C_A_T_C_H____T_E_S_T____444testEv
FN:53,55,_ZN12_GLOBAL__N_130____C_A_T_C_H____T_E_S_T____464testEv
FN:57,76,_ZN12_GLOBAL__N_130____C_A_T_C_H____T_E_S_T____484testEv
FNDA:5,_ZN18SetupLecturerTestsC2Ev
FNDA:1,_ZN12_GLOBAL__N_130____C_A_T_C_H____T_E_S_T____404testEv
FNDA:1,_ZN12_GLOBAL__N_130____C_A_T_C_H____T_E_S_T____424testEv
FNDA:1,_ZN12_GLOBAL__N_130____C_A_T_C_H____T_E_S_T____444testEv
FNDA:1,_ZN12_GLOBAL__N_130____C_A_T_C_H____T_E_S_T____464testEv
FNDA:1,_ZN12_GLOBAL__N_130____C_A_T_C_H____T_E_S_T____484testEv
FNF:6
FNH:6
DA:11,5
DA:12,5
DA:13,5
DA:17,1
DA:18,1
DA:19,1
DA:21,1
DA:22,1
DA:23,1
DA:24,1
DA:26,1
DA:27,1
DA:29,1
DA:30,1
DA:31,1
DA:33,1
DA:34,1
DA:35,1
DA:36,1
DA:38,1
DA:39,1
DA:41,1
DA:42,1
DA:43,1
DA:45,1
DA:46,1
DA:47,1
DA:48,1
DA:50,1
DA:51,1
DA:53,1
DA:54,1
DA:55,1
DA:57,1
DA:59,1
DA:60,1
DA:63,1
DA:64,1
DA:67,1
DA:70,1
DA:71,1
DA:74,1
DA:75,1
DA:76,1
LF:44
LH:44
end_of_record
TN:
SF:/home/nikola/Desktop/2024_Analysis_Mini-Student-Management-System/unit_tests/tests/test_scoreboard.cpp
FN:117,132,_ZN12_GLOBAL__N_129____C_A_T_C_H____T_E_S_T____84testEv
FN:12,14,_ZN20SetupScoreboardTestsC2Ev
FN:18,37,_ZN12_GLOBAL__N_129____C_A_T_C_H____T_E_S_T____04testEv
FN:41,70,_ZN12_GLOBAL__N_129____C_A_T_C_H____T_E_S_T____24testEv
FN:73,92,_ZN12_GLOBAL__N_129____C_A_T_C_H____T_E_S_T____44testEv
FN:95,114,_ZN12_GLOBAL__N_129____C_A_T_C_H____T_E_S_T____64testEv
FNDA:1,_ZN12_GLOBAL__N_129____C_A_T_C_H____T_E_S_T____84testEv
FNDA:5,_ZN20SetupScoreboardTestsC2Ev
FNDA:1,_ZN12_GLOBAL__N_129____C_A_T_C_H____T_E_S_T____04testEv
FNDA:1,_ZN12_GLOBAL__N_129____C_A_T_C_H____T_E_S_T____24testEv
FNDA:1,_ZN12_GLOBAL__N_129____C_A_T_C_H____T_E_S_T____44testEv
FNDA:1,_ZN12_GLOBAL__N_129____C_A_T_C_H____T_E_S_T____64testEv
FNF:6
FNH:6
DA:12,5
DA:13,5
DA:14,5
DA:18,1
DA:19,1
DA:20,1
DA:23,1
DA:25,1
DA:26,1
DA:27,1
DA:30,1
DA:33,1
DA:36,1
DA:37,1
DA:41,1
DA:42,1
DA:45,1
DA:46,1
DA:47,1
DA:48,1
DA:51,1
DA:54,1
DA:58,23
DA:59,30
DA:60,30
DA:63,1
DA:64,1
DA:65,1
DA:66,1
DA:70,1
DA:73,1
DA:75,1
DA:76,1
DA:79,1
DA:80,1
DA:83,1
DA:86,1
DA:87,1
DA:90,1
DA:91,1
DA:92,1
DA:95,1
DA:97,1
DA:98,1
DA:101,1
DA:102,1
DA:105,1
DA:108,1
DA:109,1
DA:112,1
DA:113,1
DA:114,1
DA:117,1
DA:119,1
DA:120,1
DA:123,1
DA:126,1
DA:129,1
DA:130,1
DA:131,1
DA:132,1
LF:61
LH:61
end_of_record
